(lp1
(lp2
(S'For'
S'IN'
p3
S'O'
tp4
a(S'mains'
S'NNS'
p5
S'O'
tp6
a(S','
S','
S'O'
tp7
a(S'my'
S'PRP$'
p8
S'O'
tp9
a(S'bf'
S'NN'
p10
S'O'
tp11
a(S'had'
S'VBD'
p12
S'O'
tp13
a(S'the'
S'DT'
p14
S'O'
tp15
a(S'beef'
g10
S'FOOD'
p16
tp17
a(S'tenderloin'
g10
g16
tp18
a(S'with'
S'IN'
p19
S'O'
tp20
a(S'a'
S'DT'
p21
S'O'
tp22
a(S'glass'
g10
S'O'
tp23
a(S'of'
S'IN'
p24
S'O'
tp25
a(S'mountain'
g10
S'O'
tp26
a(S'cuvee'
g10
S'O'
tp27
a(S'.'
S'.'
S'O'
tp28
aa(lp29
(S'One'
S'CD'
p30
S'O'
tp31
a(S'time'
S'NN'
p32
S'O'
tp33
a(S'I'
S'PRP'
p34
S'O'
tp35
a(S'order'
S'NN'
p36
S'O'
tp37
a(S'a'
g21
S'O'
tp38
a(S'cup'
g10
S'O'
tp39
a(S'of'
g24
S'O'
tp40
a(S'coffee'
g10
S'O'
tp41
a(S'and'
S'CC'
p42
S'O'
tp43
a(S"it's"
S'JJ'
p44
S'O'
tp45
a(S'really'
S'RB'
p46
S'O'
tp47
a(S'bland'
g10
S'O'
tp48
a(S'and'
g42
S'O'
tp49
a(S'unsatisfying'
g10
S'O'
tp50
a(S'.'
S'.'
S'O'
tp51
aa(lp52
(S'Pasta'
g10
g16
tp53
a(S'in'
S'IN'
p54
g16
tp55
a(S'basil'
g10
g16
tp56
a(S'pesto'
g10
g16
tp57
a(S'was'
g12
S'O'
tp58
a(S'great'
S'JJ'
p59
S'O'
tp60
a(S'too'
S'RB'
p61
S'O'
tp62
a(S'but'
S'CC'
p63
S'O'
tp64
a(S'the'
g14
S'O'
tp65
a(S'it'
S'PRP'
p66
S'O'
tp67
a(S'left'
g12
S'O'
tp68
a(S'something'
S'NN'
p69
S'O'
tp70
a(S'to'
S'TO'
p71
S'O'
tp72
a(S'be'
S'VB'
p73
S'O'
tp74
a(S'desired'
S'VBN'
p75
S'O'
tp76
a(S'as'
S'IN'
p77
S'O'
tp78
a(S'an'
S'DT'
p79
S'O'
tp80
a(S'accompaniment'
g10
S'O'
tp81
a(S'or'
S'CC'
p82
S'O'
tp83
a(S'maybe'
S'RB'
p84
S'O'
tp85
a(S'something'
g69
S'O'
tp86
a(S'else'
g84
S'O'
tp87
a(S'could'
S'MD'
p88
S'O'
tp89
a(S'be'
g73
S'O'
tp90
a(S'added'
g75
S'O'
tp91
a(S'to'
g71
S'O'
tp92
a(S'the'
g14
S'O'
tp93
a(S'sauce'
g10
g16
tp94
a(S'.'
S'.'
S'O'
tp95
aa(lp96
(S'It'
S'PRP'
S'O'
tp97
a(S'tastes'
S'VBZ'
p98
S'O'
tp99
a(S'fresh'
g44
S'O'
tp100
a(S'which'
S'WDT'
p101
S'O'
tp102
a(S'is'
S'VBZ'
p103
S'O'
tp104
a(S'the'
g14
S'O'
tp105
a(S'best'
S'JJS'
p106
S'O'
tp107
a(S'part'
S'NN'
p108
S'O'
tp109
a(S','
S','
S'O'
tp110
a(S'not'
S'RB'
p111
S'O'
tp112
a(S'like'
g77
S'O'
tp113
a(S'a'
g21
S'O'
tp114
a(S'31'
S'CD'
S'O'
tp115
a(S'flavors'
g5
S'O'
tp116
a(S','
S','
S'O'
tp117
a(S'but'
g63
S'O'
tp118
a(S'real'
S'JJ'
p119
S'O'
tp120
a(S'delicious'
g44
S'O'
tp121
a(S'ingredients'
g5
S'O'
tp122
a(S'.'
S'.'
S'O'
tp123
aa(lp124
(S'Crust'
S'NNP'
p125
S'O'
tp126
a(S'is'
g103
S'O'
tp127
a(S'crispy'
g44
S'O'
tp128
a(S'and'
g42
S'O'
tp129
a(S'sauce'
g10
S'O'
tp130
a(S'is'
g103
S'O'
tp131
a(S'just'
S'RB'
p132
S'O'
tp133
a(S'right'
g44
S'O'
tp134
a(S'w'
g10
S'O'
tp135
a(S'fresh'
g44
g16
tp136
a(S'toppings'
g5
g16
tp137
a(S'.'
S'.'
S'O'
tp138
aa(lp139
(S'The'
S'DT'
p140
S'O'
tp141
a(S'decor'
g10
S'O'
tp142
a(S'is'
g103
S'O'
tp143
a(S'really'
g46
S'O'
tp144
a(S'nice'
g44
S'O'
tp145
a(S','
S','
S'O'
tp146
a(S'with'
g19
S'O'
tp147
a(S'an'
g79
S'O'
tp148
a(S'almost'
S'RB'
S'O'
tp149
a(S'diner'
g10
S'O'
tp150
a(S'like'
g77
S'O'
tp151
a(S'feel'
g10
S'O'
tp152
a(S'with'
g19
S'O'
tp153
a(S'the'
g14
S'O'
tp154
a(S'red'
g44
S'O'
tp155
a(S'and'
g42
S'O'
tp156
a(S'white'
S'JJ'
p157
S'O'
tp158
a(S','
S','
S'O'
tp159
a(S'but'
g63
S'O'
tp160
a(S'in'
g54
S'O'
tp161
a(S'a'
g21
S'O'
tp162
a(S'much'
g84
S'O'
tp163
a(S'more'
S'JJR'
p164
S'O'
tp165
a(S'modern'
g44
S'O'
tp166
a(S'way'
S'NN'
p167
S'O'
tp168
a(S'.'
S'.'
S'O'
tp169
aa(lp170
(S'I'
g34
S'O'
tp171
a(S'know'
S'VBP'
p172
S'O'
tp173
a(S','
S','
S'O'
tp174
a(S'because'
g77
S'O'
tp175
a(S'I'
g34
S'O'
tp176
a(S'am'
S'VBP'
p177
S'O'
tp178
a(S'half'
g44
S'O'
tp179
a(S'Iraqi'
g125
S'O'
tp180
a(S'and'
g42
S'O'
tp181
a(S'this'
S'DT'
p182
S'O'
tp183
a(S'was'
g12
S'O'
tp184
a(S'very'
g84
S'O'
tp185
a(S'authentic'
g44
S'O'
tp186
a(S'and'
g42
S'O'
tp187
a(S'similar'
S'JJ'
S'O'
tp188
a(S'to'
g71
S'O'
tp189
a(S'the'
g14
S'O'
tp190
a(S'food'
S'NN'
p191
S'O'
tp192
a(S'I'
g34
S'O'
tp193
a(S'grew'
S'VBD'
S'O'
tp194
a(S'up'
S'RP'
p195
S'O'
tp196
a(S'on'
S'IN'
p197
S'O'
tp198
a(S'.'
S'.'
S'O'
tp199
aa(lp200
(S'They'
S'PRP'
p201
S'O'
tp202
a(S"didn't"
g172
S'O'
tp203
a(S'do'
S'VB'
p204
S'O'
tp205
a(S'much'
g84
S'O'
tp206
a(S'to'
g71
S'O'
tp207
a(S'convert'
g204
S'O'
tp208
a(S'the'
g14
S'O'
tp209
a(S'house'
S'NN'
p210
S'O'
tp211
a(S'into'
S'IN'
p212
S'O'
tp213
a(S'a'
g21
S'O'
tp214
a(S'restaurant'
g10
S'O'
tp215
a(S'.'
S'.'
S'O'
tp216
aa(lp217
(S'This'
S'DT'
p218
S'O'
tp219
a(S'used'
g75
S'O'
tp220
a(S'to'
g71
S'O'
tp221
a(S'be'
g73
S'O'
tp222
a(S'my'
g8
S'O'
tp223
a(S'regular'
g44
S'O'
tp224
a(S'breakfast'
g10
S'O'
tp225
a(S'place'
g10
S'O'
tp226
a(S'.'
S'.'
S'O'
tp227
aa(lp228
(S'We'
S'PRP'
p229
S'O'
tp230
a(S"couldn't"
g172
S'O'
tp231
a(S'finish'
g204
S'O'
tp232
a(S'it'
g66
S'O'
tp233
a(S'and'
g42
S'O'
tp234
a(S'I'
g34
S'O'
tp235
a(S'also'
S'RB'
p236
S'O'
tp237
a(S"don't"
g172
S'O'
tp238
a(S'eat'
g84
S'O'
tp239
a(S'much'
g44
S'O'
tp240
a(S'rice'
g10
g16
tp241
a(S'so'
g84
S'O'
tp242
a(S'that'
g84
S'O'
tp243
a(S'says'
S'VBZ'
S'O'
tp244
a(S'a'
g21
S'O'
tp245
a(S'lot'
g10
S'O'
tp246
a(S'.'
S'.'
S'O'
tp247
aa(lp248
(S'Mmmmmmm'
g125
S'O'
tp249
a(S','
S','
S'O'
tp250
a(S'the'
g14
S'O'
tp251
a(S'smell'
g10
S'O'
tp252
a(S'was'
g12
S'O'
tp253
a(S'steak'
g44
g16
tp254
a(S'tastic'
g44
S'O'
tp255
a(S'.'
S'.'
S'O'
tp256
aa(lp257
(S'Instead'
S'RB'
S'O'
tp258
a(S'of'
g24
S'O'
tp259
a(S'having'
S'VBG'
p260
S'O'
tp261
a(S'the'
g14
S'O'
tp262
a(S'lobster'
g10
g16
tp263
a(S'roll'
g10
g16
tp264
a(S','
S','
S'O'
tp265
a(S'I'
g34
S'O'
tp266
a(S'had'
g12
S'O'
tp267
a(S'the'
g14
S'O'
tp268
a(S'crab'
g10
g16
tp269
a(S'melt'
g10
g16
tp270
a(S'.'
S'.'
S'O'
tp271
aa(lp272
(S'An'
S'DT'
S'O'
tp273
a(S'assortment'
g10
S'O'
tp274
a(S'of'
g24
S'O'
tp275
a(S'flavors'
g5
S'O'
tp276
a(S'and'
g42
S'O'
tp277
a(S'very'
g84
S'O'
tp278
a(S'fresh'
g44
g16
tp279
a(S'.'
S'.'
S'O'
tp280
aa(lp281
(S'Pros'
g5
S'O'
tp282
a(S'food'
g191
S'O'
tp283
a(S'is'
g103
S'O'
tp284
a(S'great'
g59
S'O'
tp285
a(S';'
S':'
S'O'
tp286
a(S'fresh'
g44
S'O'
tp287
a(S','
S','
S'O'
tp288
a(S'hot'
g44
S'O'
tp289
a(S'and'
g42
S'O'
tp290
a(S'a'
g21
S'O'
tp291
a(S'good'
g44
S'O'
tp292
a(S'variety'
g10
S'O'
tp293
a(S'of'
g24
S'O'
tp294
a(S'classic'
g44
S'O'
tp295
a(S'dim'
g10
g16
tp296
a(S'sum'
g10
g16
tp297
a(S'dishes'
g5
g16
tp298
a(S'service'
g10
S'O'
tp299
a(S'.'
S'.'
S'O'
tp300
a(S'.'
S'.'
S'O'
tp301
a(S'.'
S'.'
S'O'
tp302
a(S'I'
g34
S'O'
tp303
a(S'usually'
S'RB'
S'O'
tp304
a(S"don't"
g172
S'O'
tp305
a(S'expect'
g44
S'O'
tp306
a(S'great'
g59
S'O'
tp307
a(S'service'
g10
S'O'
tp308
a(S'at'
S'IN'
p309
S'O'
tp310
a(S'Chinese'
g44
S'O'
tp311
a(S'restaurants'
g5
S'O'
tp312
a(S','
S','
S'O'
tp313
a(S'but'
g63
S'O'
tp314
a(S'all'
S'PDT'
S'O'
tp315
a(S'the'
g14
S'O'
tp316
a(S'servers'
g5
S'O'
tp317
a(S'were'
S'VBD'
p318
S'O'
tp319
a(S'pleasant'
g44
S'O'
tp320
a(S'('
S'('
S'O'
tp321
a(S'my'
g8
S'O'
tp322
a(S'mom'
g10
S'O'
tp323
a(S'had'
g12
S'O'
tp324
a(S'to'
g71
S'O'
tp325
a(S'be'
g73
S'O'
tp326
a(S'told'
g75
S'O'
tp327
a(S'to'
g71
S'O'
tp328
a(S'let'
g204
S'O'
tp329
a(S'them'
S'PRP'
p330
S'O'
tp331
a(S'please'
g204
S'O'
tp332
a(S'serve'
g204
S'O'
tp333
a(S'her'
g66
S'O'
tp334
a(S','
S','
S'O'
tp335
a(S'haha'
g10
S'O'
tp336
a(S')'
S')'
S'O'
tp337
a(S'cleanliness'
g10
S'O'
tp338
a(S'Cons'
S'NNPS'
S'O'
tp339
a(S'this'
g182
S'O'
tp340
a(S'place'
g10
S'O'
tp341
a(S'is'
g103
S'O'
tp342
a(S'HARD'
g44
S'O'
tp343
a(S'to'
g71
S'O'
tp344
a(S'find'
g204
S'O'
tp345
a(S'.'
S'.'
S'O'
tp346
a(S'.'
S'.'
S'O'
tp347
a(S'.'
S'.'
S'O'
tp348
a(S'if'
S'IN'
p349
S'O'
tp350
a(S'we'
S'PRP'
p351
S'O'
tp352
a(S'had'
g12
S'O'
tp353
a(S'not'
g111
S'O'
tp354
a(S'seen'
S'VBN'
p355
S'O'
tp356
a(S'the'
g14
S'O'
tp357
a(S'woman'
S'NN'
S'O'
tp358
a(S'from'
S'IN'
p359
S'O'
tp360
a(S'Hang'
g125
S'O'
tp361
a(S'Ah'
g125
S'O'
tp362
a(S'standing'
S'VBG'
p363
S'O'
tp364
a(S'on'
g197
S'O'
tp365
a(S'the'
g14
S'O'
tp366
a(S'corner'
g10
S'O'
tp367
a(S'of'
g24
S'O'
tp368
a(S'Grant'
g125
S'O'
tp369
a(S'Stockton'
g125
S'O'
tp370
a(S'('
S'('
S'O'
tp371
a(S'who'
S'WP'
p372
S'O'
tp373
a(S'walked'
g12
S'O'
tp374
a(S'us'
S'PRP'
p375
S'O'
tp376
a(S'up'
g195
S'O'
tp377
a(S'the'
g14
S'O'
tp378
a(S'hill'
g10
S'O'
tp379
a(S'to'
g71
S'O'
tp380
a(S'the'
g14
S'O'
tp381
a(S'restaurant'
g10
S'O'
tp382
a(S')'
S')'
S'O'
tp383
a(S','
S','
S'O'
tp384
a(S'I'
g34
S'O'
tp385
a(S"don't"
g172
S'O'
tp386
a(S'think'
g204
S'O'
tp387
a(S'we'
g351
S'O'
tp388
a(S"would've"
g172
S'O'
tp389
a(S'found'
g75
S'O'
tp390
a(S'it'
g66
S'O'
tp391
a(S'!'
S'.'
S'O'
tp392
aa(lp393
(S'Always'
g84
S'O'
tp394
a(S'great'
g59
S'O'
tp395
a(S'to'
g71
S'O'
tp396
a(S'squeeze'
g204
S'O'
tp397
a(S'up'
g195
S'O'
tp398
a(S'at'
g309
S'O'
tp399
a(S'the'
g14
S'O'
tp400
a(S'counter'
g10
S'O'
tp401
a(S'('
S'('
S'O'
tp402
a(S'slightly'
S'RB'
S'O'
tp403
a(S'drunk'
g10
S'O'
tp404
a(S')'
S')'
S'O'
tp405
a(S','
S','
S'O'
tp406
a(S'listen'
S'UH'
p407
S'O'
tp408
a(S'to'
g71
S'O'
tp409
a(S'the'
g14
S'O'
tp410
a(S'hungry'
g44
S'O'
tp411
a(S'sots'
g5
S'O'
tp412
a(S'around'
g77
S'O'
tp413
a(S'you'
S'PRP'
p414
S'O'
tp415
a(S'while'
g77
S'O'
tp416
a(S'you'
g414
S'O'
tp417
a(S'wait'
g172
S'O'
tp418
a(S'for'
S'IN'
p419
S'O'
tp420
a(S'your'
S'PRP$'
p421
S'O'
tp422
a(S'slice'
g10
S'O'
tp423
a(S'to'
g71
S'O'
tp424
a(S'warm'
g204
S'O'
tp425
a(S'in'
g54
S'O'
tp426
a(S'the'
g14
S'O'
tp427
a(S'pizza'
g10
S'O'
tp428
a(S'ovens'
g98
S'O'
tp429
a(S','
S','
S'O'
tp430
a(S'look'
g204
S'O'
tp431
a(S'dreamily'
g84
S'O'
tp432
a(S'at'
g309
S'O'
tp433
a(S'the'
g14
S'O'
tp434
a(S'old'
S'JJ'
S'O'
tp435
a(S'boxing'
g10
S'O'
tp436
a(S'gloves'
g5
S'O'
tp437
a(S'hanging'
g363
S'O'
tp438
a(S'behind'
g77
S'O'
tp439
a(S'the'
g14
S'O'
tp440
a(S'counter'
g10
S'O'
tp441
a(S'while'
g77
S'O'
tp442
a(S'dreaming'
g363
S'O'
tp443
a(S'of'
g24
S'O'
tp444
a(S'dancing'
g363
S'O'
tp445
a(S'circles'
g5
S'O'
tp446
a(S'around'
g77
S'O'
tp447
a(S'your'
g421
S'O'
tp448
a(S'latest'
S'JJS'
S'O'
tp449
a(S'enemy'
g10
S'O'
tp450
a(S','
S','
S'O'
tp451
a(S'and'
g42
S'O'
tp452
a(S'then'
S'RB'
S'O'
tp453
a(S'shake'
g204
S'O'
tp454
a(S'parmesan'
g5
g16
tp455
a(S'and'
g42
S'O'
tp456
a(S'hot'
g44
g16
tp457
a(S'pepper'
g10
g16
tp458
a(S'flakes'
g5
g16
tp459
a(S'on'
g197
S'O'
tp460
a(S'your'
g421
S'O'
tp461
a(S'steamy'
g44
g16
tp462
a(S'cheesy'
g10
g16
tp463
a(S'rectangular'
g44
g16
tp464
a(S'chunk'
g10
g16
tp465
a(S'of'
g24
S'O'
tp466
a(S'pizza'
g10
g16
tp467
a(S'as'
g77
S'O'
tp468
a(S'its'
S'PRP$'
p469
S'O'
tp470
a(S'tossed'
g75
S'O'
tp471
a(S'down'
g195
S'O'
tp472
a(S'on'
g197
S'O'
tp473
a(S'the'
g14
S'O'
tp474
a(S'counter'
g10
S'O'
tp475
a(S'in'
g54
S'O'
tp476
a(S'front'
g10
S'O'
tp477
a(S'of'
g24
S'O'
tp478
a(S'you'
g414
S'O'
tp479
a(S','
S','
S'O'
tp480
a(S'as'
g77
S'O'
tp481
a(S'the'
g14
S'O'
tp482
a(S'warm'
g44
S'O'
tp483
a(S'aroma'
g10
S'O'
tp484
a(S'wafts'
g12
S'O'
tp485
a(S'up'
g195
S'O'
tp486
a(S'over'
g77
S'O'
tp487
a(S'your'
g421
S'O'
tp488
a(S'face'
g10
S'O'
tp489
a(S'.'
S'.'
S'O'
tp490
aa(lp491
(S'Dang'
g125
S'O'
tp492
a(S'the'
g14
S'O'
tp493
a(S'platter'
g10
S'O'
tp494
a(S'was'
g12
S'O'
tp495
a(S'huge'
S'JJ'
p496
S'O'
tp497
a(S'.'
S'.'
S'O'
tp498
a(S'.'
S'.'
S'O'
tp499
a(S'.'
S'.'
S'O'
tp500
a(S'.'
S'.'
S'O'
tp501
a(S'Next'
g44
S'O'
tp502
a(S'time'
g32
S'O'
tp503
a(S','
S','
S'O'
tp504
a(S'I'
g34
S'O'
tp505
a(S'must'
S'MD'
p506
S'O'
tp507
a(S'just'
g132
S'O'
tp508
a(S'get'
g204
S'O'
tp509
a(S'one'
g30
S'O'
tp510
a(S'platter'
g10
g16
tp511
a(S'salad'
g10
g16
tp512
a(S'and'
g42
S'O'
tp513
a(S'get'
g204
S'O'
tp514
a(S'a'
g21
S'O'
tp515
a(S'small'
S'JJ'
p516
S'O'
tp517
a(S'lentil'
g10
g16
tp518
a(S'soup'
g10
g16
tp519
a(S'to'
g71
S'O'
tp520
a(S'share'
S'NN'
p521
S'O'
tp522
a(S'.'
S'.'
S'O'
tp523
a(S'.'
S'.'
S'O'
tp524
a(S'.'
S'.'
S'O'
tp525
a(S'.'
S'.'
S'O'
tp526
a(S'One'
g30
S'O'
tp527
a(S'platter'
g10
S'O'
tp528
a(S'is'
g103
S'O'
tp529
a(S'A'
g79
S'O'
tp530
a(S'LOT'
g125
S'O'
tp531
a(S'for'
g419
S'O'
tp532
a(S'2'
S'CD'
p533
S'O'
tp534
a(S'people'
S'NNS'
p535
S'O'
tp536
a(S'.'
S'.'
S'O'
tp537
a(S'.'
S'.'
S'O'
tp538
a(S'.'
S'.'
S'O'
tp539
a(S'.'
S'.'
S'O'
tp540
aa(lp541
(S'I'
g34
S'O'
tp542
a(S'may'
S'MD'
S'O'
tp543
a(S'get'
g204
S'O'
tp544
a(S'in'
g54
S'O'
tp545
a(S'hot'
g44
S'O'
tp546
a(S'water'
S'NN'
p547
S'O'
tp548
a(S','
S','
S'O'
tp549
a(S'but'
g63
S'O'
tp550
a(S'I'
g34
S'O'
tp551
a(S'believe'
g172
S'O'
tp552
a(S'their'
S'PRP$'
p553
S'O'
tp554
a(S'seafood'
g10
S'O'
tp555
a(S'is'
g103
S'O'
tp556
a(S'better'
S'RBR'
p557
S'O'
tp558
a(S'prepared'
g75
S'O'
tp559
a(S'than'
S'IN'
p560
S'O'
tp561
a(S'the'
g14
S'O'
tp562
a(S'venerable'
g44
S'O'
tp563
a(S'Hayes'
g125
S'O'
tp564
a(S'Street'
S'NNP'
S'O'
tp565
a(S'Grill'
g125
S'O'
tp566
a(S'am'
g177
S'O'
tp567
a(S'I'
g34
S'O'
tp568
a(S'biased'
g12
S'O'
tp569
a(S'towards'
g5
S'O'
tp570
a(S'French'
g44
S'O'
tp571
a(S'owners'
S'NNS'
S'O'
tp572
a(S'?'
S'.'
S'O'
tp573
aa(lp574
(S'Loaded'
g75
S'O'
tp575
a(S'with'
g19
S'O'
tp576
a(S'bamboo'
g44
g16
tp577
a(S'shoots'
g5
g16
tp578
a(S','
S','
S'O'
tp579
a(S'mushrooms'
g5
g16
tp580
a(S','
S','
S'O'
tp581
a(S'rice'
g10
g16
tp582
a(S'and'
g42
S'O'
tp583
a(S'of'
g24
S'O'
tp584
a(S'course'
S'NN'
p585
S'O'
tp586
a(S','
S','
S'O'
tp587
a(S'chicken'
g10
g16
tp588
a(S'.'
S'.'
S'O'
tp589
aa(lp590
(S'The'
g140
S'O'
tp591
a(S'ice'
g10
g16
tp592
a(S'cream'
g10
g16
tp593
a(S'sundaes'
g10
g16
tp594
a(S'are'
S'VBP'
p595
S'O'
tp596
a(S'the'
g14
S'O'
tp597
a(S'way'
g167
S'O'
tp598
a(S'to'
g71
S'O'
tp599
a(S'go'
g204
S'O'
tp600
a(S','
S','
S'O'
tp601
a(S'gooey'
g204
g16
tp602
a(S'hot'
g44
g16
tp603
a(S'fudge'
g10
g16
tp604
a(S','
S','
S'O'
tp605
a(S'chopped'
g12
g16
tp606
a(S'nuts'
g5
g16
tp607
a(S'and'
g42
S'O'
tp608
a(S'a'
g21
S'O'
tp609
a(S'perfect'
g44
S'O'
tp610
a(S'maraschino'
g10
g16
tp611
a(S'cherry'
g10
g16
tp612
a(S'to'
g71
S'O'
tp613
a(S'top'
g204
S'O'
tp614
a(S'it'
g66
S'O'
tp615
a(S'off'
g195
S'O'
tp616
a(S'!'
S'.'
S'O'
tp617
aa(lp618
(S"I've"
g125
S'O'
tp619
a(S'eaten'
g12
S'O'
tp620
a(S'plenty'
g10
S'O'
tp621
a(S'of'
g24
S'O'
tp622
a(S'NY'
g125
g16
tp623
a(S'slices'
g5
g16
tp624
a(S'.'
S'.'
S'O'
tp625
aa(lp626
(S'Their'
g469
S'O'
tp627
a(S'egg'
g10
g16
tp628
a(S'rolls'
g5
g16
tp629
a(S'are'
g595
S'O'
tp630
a(S'especially'
S'RB'
S'O'
tp631
a(S'good'
g44
S'O'
tp632
a(S'.'
S'.'
S'O'
tp633
aa(lp634
(S'I'
g34
S'O'
tp635
a(S'do'
g172
S'O'
tp636
a(S'a'
g21
S'O'
tp637
a(S'quick'
g44
S'O'
tp638
a(S'head'
g10
S'O'
tp639
a(S'count'
g10
S'O'
tp640
a(S'of'
g24
S'O'
tp641
a(S'the'
g14
S'O'
tp642
a(S'place'
g10
S'O'
tp643
a(S'and'
g42
S'O'
tp644
a(S'I'
g34
S'O'
tp645
a(S'am'
g177
S'O'
tp646
a(S'by'
S'IN'
p647
S'O'
tp648
a(S'no'
g79
S'O'
tp649
a(S'means'
g98
S'O'
tp650
a(S'a'
g21
S'O'
tp651
a(S'math'
g10
S'O'
tp652
a(S'guru'
g10
S'O'
tp653
a(S'or'
g82
S'O'
tp654
a(S'anything'
S'NN'
p655
S'O'
tp656
a(S'BUT'
g77
S'O'
tp657
a(S'it'
g66
S'O'
tp658
a(S'sure'
g84
S'O'
tp659
a(S'seemed'
g12
S'O'
tp660
a(S'like'
g77
S'O'
tp661
a(S'there'
S'EX'
p662
S'O'
tp663
a(S'was'
g12
S'O'
tp664
a(S'easily'
S'RB'
S'O'
tp665
a(S'over'
g77
S'O'
tp666
a(S'100'
S'CD'
S'O'
tp667
a(S'people'
g535
S'O'
tp668
a(S'in'
g54
S'O'
tp669
a(S'the'
g14
S'O'
tp670
a(S'place'
g10
S'O'
tp671
a(S','
S','
S'O'
tp672
a(S'and'
g42
S'O'
tp673
a(S'by'
g647
S'O'
tp674
a(S'the'
g14
S'O'
tp675
a(S'line'
S'NN'
p676
S'O'
tp677
a(S'in'
g54
S'O'
tp678
a(S'the'
g14
S'O'
tp679
a(S"men's"
g10
S'O'
tp680
a(S'bathroom'
g10
S'O'
tp681
a(S'I'
g34
S'O'
tp682
a(S'honestly'
g84
S'O'
tp683
a(S'felt'
g12
S'O'
tp684
a(S'they'
S'PRP'
p685
S'O'
tp686
a(S'should'
S'MD'
p687
S'O'
tp688
a(S'not'
g111
S'O'
tp689
a(S'could'
g88
S'O'
tp690
a(S'not'
g111
S'O'
tp691
a(S'allow'
g204
S'O'
tp692
a(S'too'
g61
S'O'
tp693
a(S'many'
S'JJ'
S'O'
tp694
a(S'more'
g164
S'O'
tp695
a(S'guys'
g5
S'O'
tp696
a(S'into'
g212
S'O'
tp697
a(S'this'
g182
S'O'
tp698
a(S'place'
g10
S'O'
tp699
a(S'without'
S'IN'
S'O'
tp700
a(S'calling'
S'VBG'
S'O'
tp701
a(S'the'
g14
S'O'
tp702
a(S'fire'
g10
S'O'
tp703
a(S'department'
S'NN'
S'O'
tp704
a(S'!'
S'.'
S'O'
tp705
aa(lp706
(S'I'
g34
S'O'
tp707
a(S'also'
g236
S'O'
tp708
a(S'got'
g12
S'O'
tp709
a(S'a'
g21
S'O'
tp710
a(S'vegetable'
g44
g16
tp711
a(S'plate'
g10
g16
tp712
a(S'which'
g101
S'O'
tp713
a(S'was'
g12
S'O'
tp714
a(S'also'
g236
S'O'
tp715
a(S'very'
g84
S'O'
tp716
a(S'good'
g44
S'O'
tp717
a(S'.'
S'.'
S'O'
tp718
aa(lp719
(S'This'
g218
S'O'
tp720
a(S'was'
g12
S'O'
tp721
a(S'a'
g21
S'O'
tp722
a(S'huge'
g496
S'O'
tp723
a(S'portion'
S'NN'
S'O'
tp724
a(S'of'
g24
S'O'
tp725
a(S'meat'
g10
g16
tp726
a(S'and'
g42
S'O'
tp727
a(S'rice'
g10
g16
tp728
a(S'!'
S'.'
S'O'
tp729
aa(lp730
(S'They'
g201
S'O'
tp731
a(S'simply'
S'RB'
S'O'
tp732
a(S'remove'
g204
S'O'
tp733
a(S'the'
g14
S'O'
tp734
a(S'meat'
g10
g16
tp735
a(S'from'
g359
S'O'
tp736
a(S'the'
g14
S'O'
tp737
a(S'burrito'
g44
g16
tp738
a(S'equation'
g10
S'O'
tp739
a(S','
S','
S'O'
tp740
a(S'leaving'
g363
S'O'
tp741
a(S'it'
g66
S'O'
tp742
a(S'unbalanced'
g44
S'O'
tp743
a(S'and'
g42
S'O'
tp744
a(S'incomplete'
g44
S'O'
tp745
a(S'.'
S'.'
S'O'
tp746
aa(lp747
(S'Pad'
g125
g16
tp748
a(S'Thai'
g125
g16
tp749
a(S'Tea'
g125
g16
tp750
a(S'Leaf'
g125
g16
tp751
a(S'Salad'
g125
g16
tp752
a(S'Vegetarian'
g125
g16
tp753
a(S'soup'
g98
g16
tp754
a(S'Other'
S'JJ'
g16
tp755
a(S'noodle'
g44
g16
tp756
a(S'dish'
g10
g16
tp757
a(S'('
S'('
S'O'
tp758
a(S'served'
g12
S'O'
tp759
a(S'cold'
g10
S'O'
tp760
a(S')'
S')'
S'O'
tp761
a(S'that'
g77
S'O'
tp762
a(S'I'
g34
S'O'
tp763
a(S"can't"
g172
S'O'
tp764
a(S'remember'
g204
S'O'
tp765
a(S'the'
g14
S'O'
tp766
a(S'name'
g10
S'O'
tp767
a(S'of'
g24
S'O'
tp768
a(S'Dessert'
g125
S'O'
tp769
a(S'looked'
g12
S'O'
tp770
a(S'enticing'
g10
S'O'
tp771
a(S','
S','
S'O'
tp772
a(S'but'
g63
S'O'
tp773
a(S'I'
g34
S'O'
tp774
a(S'opted'
g12
S'O'
tp775
a(S'out'
g195
S'O'
tp776
a(S'since'
S'IN'
S'O'
tp777
a(S'I'
g34
S'O'
tp778
a(S'was'
g12
S'O'
tp779
a(S'so'
g84
S'O'
tp780
a(S'full'
S'JJ'
S'O'
tp781
a(S'.'
S'.'
S'O'
tp782
aa(lp783
(S'I'
g34
S'O'
tp784
a(S'has'
S'VBZ'
p785
S'O'
tp786
a(S'the'
g14
S'O'
tp787
a(S'clam'
g10
g16
tp788
a(S'and'
g42
g16
tp789
a(S'garlic'
g10
g16
tp790
a(S'which'
g101
S'O'
tp791
a(S'was'
g12
S'O'
tp792
a(S'so'
g84
S'O'
tp793
a(S'tasty'
g44
S'O'
tp794
a(S'!'
S'.'
S'O'
tp795
aa(lp796
(S'NY'
g125
S'O'
tp797
a(S'steak'
g10
g16
tp798
a(S'blows'
g5
S'O'
tp799
a(S'SF'
g125
S'O'
tp800
a(S'out'
g77
S'O'
tp801
a(S'of'
g24
S'O'
tp802
a(S'the'
g14
S'O'
tp803
a(S'water'
g547
S'O'
tp804
a(S'.'
S'.'
S'O'
tp805
aa(lp806
(S'I'
g34
S'O'
tp807
a(S'LOVE'
g172
S'O'
tp808
a(S'their'
g553
S'O'
tp809
a(S'pork'
g10
g16
tp810
a(S'marinated'
g75
g16
tp811
a(S'in'
g54
S'O'
tp812
a(S'the'
g14
S'O'
tp813
a(S'spicy'
g10
g16
tp814
a(S'house'
g210
g16
tp815
a(S'sauce'
g10
g16
tp816
a(S'and'
g42
S'O'
tp817
a(S'they'
g685
S'O'
tp818
a(S'always'
S'RB'
S'O'
tp819
a(S'give'
g172
S'O'
tp820
a(S'you'
g414
S'O'
tp821
a(S'additional'
S'JJ'
S'O'
tp822
a(S'dishes'
g5
S'O'
tp823
a(S'that'
g101
S'O'
tp824
a(S'are'
g595
S'O'
tp825
a(S'on'
g197
S'O'
tp826
a(S'the'
g14
S'O'
tp827
a(S'house'
g210
S'O'
tp828
a(S'!'
S'.'
S'O'
tp829
a(S'.'
S'.'
S'O'
tp830
aa(lp831
(S'The'
g140
S'O'
tp832
a(S'prawn'
g10
g16
tp833
a(S'.'
S'.'
S'O'
tp834
a(S'.'
S'.'
S'O'
tp835
a(S'.'
S'.'
S'O'
tp836
a(S'was'
g12
S'O'
tp837
a(S'it'
g66
S'O'
tp838
a(S'wrapped'
g12
S'O'
tp839
a(S'in'
g54
S'O'
tp840
a(S'bacon'
g10
g16
tp841
a(S'?'
S'.'
S'O'
tp842
a(S'?'
S'.'
S'O'
tp843
aa(lp844
(S'The'
g140
S'O'
tp845
a(S'sauce'
g10
g16
tp846
a(S'makes'
S'VBZ'
S'O'
tp847
a(S'it'
g66
S'O'
tp848
a(S'with'
g19
S'O'
tp849
a(S'a'
g21
S'O'
tp850
a(S'bit'
g10
S'O'
tp851
a(S'of'
g24
S'O'
tp852
a(S'spice'
g10
g16
tp853
a(S'mixed'
g75
S'O'
tp854
a(S'with'
g19
S'O'
tp855
a(S'a'
g21
S'O'
tp856
a(S'good'
g44
S'O'
tp857
a(S'amount'
g10
S'O'
tp858
a(S'of'
g24
S'O'
tp859
a(S'sweetness'
g10
S'O'
tp860
a(S'.'
S'.'
S'O'
tp861
aa(lp862
(S'Everything'
g10
S'O'
tp863
a(S'was'
g12
S'O'
tp864
a(S'fresh'
g44
S'O'
tp865
a(S','
S','
S'O'
tp866
a(S'tasty'
g44
S'O'
tp867
a(S'and'
g42
S'O'
tp868
a(S'just'
g132
S'O'
tp869
a(S'wonderful'
g44
S'O'
tp870
a(S'.'
S'.'
S'O'
tp871
aa(lp872
(S'Here'
S'RB'
S'O'
tp873
a(S'I'
g34
S'O'
tp874
a(S'was'
g12
S'O'
tp875
a(S'blaming'
g363
S'O'
tp876
a(S'the'
g14
S'O'
tp877
a(S'glowing'
g363
S'O'
tp878
a(S'review'
g10
S'O'
tp879
a(S'I'
g34
S'O'
tp880
a(S'wrote'
S'VBD'
S'O'
tp881
a(S'for'
g419
S'O'
tp882
a(S'his'
S'PRP$'
p883
S'O'
tp884
a(S'('
S'('
S'O'
tp885
a(S'and'
g42
S'O'
tp886
a(S'his'
g883
S'O'
tp887
a(S"wife's"
g10
S'O'
tp888
a(S')'
S')'
S'O'
tp889
a(S'new'
S'JJ'
p890
S'O'
tp891
a(S'found'
g75
S'O'
tp892
a(S'popularity'
g10
S'O'
tp893
a(S'Since'
S'IN'
S'O'
tp894
a(S'I'
g34
S'O'
tp895
a(S'have'
g172
S'O'
tp896
a(S'been'
S'VBN'
p897
S'O'
tp898
a(S'going'
S'VBG'
S'O'
tp899
a(S'here'
S'RB'
p900
S'O'
tp901
a(S'over'
g77
S'O'
tp902
a(S'the'
g14
S'O'
tp903
a(S'last'
S'JJ'
S'O'
tp904
a(S'three'
S'CD'
p905
S'O'
tp906
a(S'months'
S'NNS'
S'O'
tp907
a(S'or'
g82
S'O'
tp908
a(S'so'
g84
S'O'
tp909
a(S'the'
g14
S'O'
tp910
a(S'line'
g676
S'O'
tp911
a(S'has'
g785
S'O'
tp912
a(S'grown'
g75
S'O'
tp913
a(S'from'
g359
S'O'
tp914
a(S'a'
g21
S'O'
tp915
a(S'five'
S'CD'
S'O'
tp916
a(S'minute'
g10
S'O'
tp917
a(S'wait'
g10
S'O'
tp918
a(S'to'
g71
S'O'
tp919
a(S'anything'
g655
S'O'
tp920
a(S'up'
g195
S'O'
tp921
a(S'to'
g71
S'O'
tp922
a(S'thirty'
g204
S'O'
tp923
a(S'minutes'
S'NNS'
S'O'
tp924
a(S'!'
S'.'
S'O'
tp925
aa(lp926
(S'The'
g140
S'O'
tp927
a(S'decor'
g10
S'O'
tp928
a(S'ambiance'
g10
S'O'
tp929
a(S'was'
g12
S'O'
tp930
a(S'quite'
g84
S'O'
tp931
a(S'nice'
g44
S'O'
tp932
a(S','
S','
S'O'
tp933
a(S'neo'
g44
S'O'
tp934
a(S'classical'
g44
S'O'
tp935
a(S'Indian'
g10
S'O'
tp936
a(S'with'
g19
S'O'
tp937
a(S'large'
S'JJ'
p938
S'O'
tp939
a(S'columns'
g5
S'O'
tp940
a(S'.'
S'.'
S'O'
tp941
aa(lp942
(S'of'
g24
S'O'
tp943
a(S'clams'
g5
g16
tp944
a(S','
S','
S'O'
tp945
a(S'the'
g14
S'O'
tp946
a(S'house'
g210
g16
tp947
a(S'noodles'
g5
g16
tp948
a(S','
S','
S'O'
tp949
a(S'fried'
g12
g16
tp950
a(S'calamari'
g10
g16
tp951
a(S','
S','
S'O'
tp952
a(S'and'
g42
S'O'
tp953
a(S'sweet'
g44
g16
tp954
a(S'potato'
g10
g16
tp955
a(S'fries'
g5
g16
tp956
a(S'.'
S'.'
S'O'
tp957
aa(lp958
(S'My'
g469
S'O'
tp959
a(S'husband'
g10
S'O'
tp960
a(S'also'
g236
S'O'
tp961
a(S'got'
g12
S'O'
tp962
a(S'a'
g21
S'O'
tp963
a(S'sausage'
g10
g16
tp964
a(S'sandwich'
g10
g16
tp965
a(S'.'
S'.'
S'O'
tp966
aa(lp967
(S'Everything'
g10
S'O'
tp968
a(S'is'
g103
S'O'
tp969
a(S'fresh'
g44
S'O'
tp970
a(S'and'
g42
S'O'
tp971
a(S'just'
g132
S'O'
tp972
a(S'so'
g84
S'O'
tp973
a(S'damn'
g44
S'O'
tp974
a(S'tasty'
g10
S'O'
tp975
a(S'!'
S'.'
S'O'
tp976
aa(lp977
(S'Basically'
g84
S'O'
tp978
a(S'they'
g685
S'O'
tp979
a(S'let'
g172
S'O'
tp980
a(S'it'
g66
S'O'
tp981
a(S'rot'
g204
S'O'
tp982
a(S'to'
g71
S'O'
tp983
a(S'make'
g204
S'O'
tp984
a(S'it'
g66
S'O'
tp985
a(S'oh'
g66
S'O'
tp986
a(S'so'
g84
S'O'
tp987
a(S'tender'
g10
S'O'
tp988
a(S'.'
S'.'
S'O'
tp989
aa(lp990
(S'Perfect'
g125
S'O'
tp991
a(S'level'
g10
S'O'
tp992
a(S'of'
g24
S'O'
tp993
a(S'heat'
g10
S'O'
tp994
a(S'and'
g42
S'O'
tp995
a(S'flavors'
g5
S'O'
tp996
a(S'with'
g19
S'O'
tp997
a(S'just'
g132
S'O'
tp998
a(S'the'
g14
S'O'
tp999
a(S'right'
g44
S'O'
tp1000
a(S'amount'
g10
S'O'
tp1001
a(S'of'
g24
S'O'
tp1002
a(S'beef'
g10
g16
tp1003
a(S'and'
g42
g16
tp1004
a(S'noodles'
g5
g16
tp1005
a(S'.'
S'.'
S'O'
tp1006
aa(lp1007
(S'I'
g34
S'O'
tp1008
a(S'love'
g172
S'O'
tp1009
a(S'the'
g14
S'O'
tp1010
a(S'Potesto'
g125
g16
tp1011
a(S','
S','
S'O'
tp1012
a(S'Scalino'
g125
g16
tp1013
a(S','
S','
S'O'
tp1014
a(S'Da'
g125
g16
tp1015
a(S"Vinci's"
g125
g16
tp1016
a(S'Palette'
g125
g16
tp1017
a(S','
S','
S'O'
tp1018
a(S'garden'
g10
g16
tp1019
a(S'salads'
g5
g16
tp1020
a(S'.'
S'.'
S'O'
tp1021
aa(lp1022
(S'Lucky'
g125
S'O'
tp1023
a(S'for'
g419
S'O'
tp1024
a(S'us'
g375
S'O'
tp1025
a(S'it'
g66
S'O'
tp1026
a(S'was'
g12
S'O'
tp1027
a(S'dirt'
g75
S'O'
tp1028
a(S'cheap'
g44
S'O'
tp1029
a(S'and'
g42
S'O'
tp1030
a(S'we'
g351
S'O'
tp1031
a(S'ordered'
g12
S'O'
tp1032
a(S'a'
g21
S'O'
tp1033
a(S'small'
g516
S'O'
tp1034
a(S'feast'
g10
S'O'
tp1035
a(S'.'
S'.'
S'O'
tp1036
aa(lp1037
(S'I'
g34
S'O'
tp1038
a(S'really'
g46
S'O'
tp1039
a(S'like'
g77
S'O'
tp1040
a(S'the'
g14
S'O'
tp1041
a(S'braised'
g44
g16
tp1042
a(S'lamb'
g10
g16
tp1043
a(S'shank'
g10
g16
tp1044
a(S'.'
S'.'
S'O'
tp1045
aa(lp1046
(S'Written'
g75
S'O'
tp1047
a(S'on'
g197
S'O'
tp1048
a(S'the'
g14
S'O'
tp1049
a(S'plate'
g10
S'O'
tp1050
a(S'in'
g54
S'O'
tp1051
a(S'chocolate'
g10
g16
tp1052
a(S'was'
g12
S'O'
tp1053
a(S'Happy'
g44
S'O'
tp1054
a(S'Anniversary'
g125
S'O'
tp1055
a(S'with'
g19
S'O'
tp1056
a(S'a'
g21
S'O'
tp1057
a(S'sizzling'
g363
S'O'
tp1058
a(S'candle'
g10
S'O'
tp1059
a(S'to'
g71
S'O'
tp1060
a(S'blow'
g204
S'O'
tp1061
a(S'out'
g195
S'O'
tp1062
a(S'!'
S'.'
S'O'
tp1063
aa(lp1064
(S'A'
g79
S'O'
tp1065
a(S'must'
g506
S'O'
tp1066
a(S'visit'
g204
S'O'
tp1067
a(S'place'
g10
S'O'
tp1068
a(S'for'
g419
S'O'
tp1069
a(S'good'
g44
S'O'
tp1070
a(S'home'
g10
S'O'
tp1071
a(S'style'
S'NN'
p1072
S'O'
tp1073
a(S'Korean'
g44
S'O'
tp1074
a(S'cooking'
g10
S'O'
tp1075
a(S'.'
S'.'
S'O'
tp1076
aa(lp1077
(S'The'
g140
S'O'
tp1078
a(S'best'
g106
S'O'
tp1079
a(S'pizza'
g10
g16
tp1080
a(S'ever'
S'RB'
p1081
S'O'
tp1082
a(S'!'
S'.'
S'O'
tp1083
a(S'!'
S'.'
S'O'
tp1084
aa(lp1085
(S'Sure'
g44
S'O'
tp1086
a(S"I'll"
g125
S'O'
tp1087
a(S'eat'
g10
S'O'
tp1088
a(S'the'
g14
S'O'
tp1089
a(S'bits'
g5
g16
tp1090
a(S'with'
g19
g16
tp1091
a(S'sauce'
g10
g16
tp1092
a(S'on'
g197
S'O'
tp1093
a(S'.'
S'.'
S'O'
tp1094
aa(lp1095
(S"I'd"
g125
S'O'
tp1096
a(S'compare'
g172
S'O'
tp1097
a(S'it'
g66
S'O'
tp1098
a(S'to'
g71
S'O'
tp1099
a(S'the'
g14
S'O'
tp1100
a(S'first'
g44
S'O'
tp1101
a(S'lentil'
g10
g16
tp1102
a(S'soup'
g10
g16
tp1103
a(S'I'
g34
S'O'
tp1104
a(S'ever'
g1081
S'O'
tp1105
a(S'loved'
g12
S'O'
tp1106
a(S','
S','
S'O'
tp1107
a(S'namely'
g84
S'O'
tp1108
a(S'my'
g8
S'O'
tp1109
a(S"mother's"
g10
S'O'
tp1110
a(S','
S','
S'O'
tp1111
a(S'but'
g63
S'O'
tp1112
a(S'they'
g685
S'O'
tp1113
a(S'are'
g595
S'O'
tp1114
a(S'so'
g84
S'O'
tp1115
a(S'different'
S'JJ'
p1116
S'O'
tp1117
a(S'you'
g414
S'O'
tp1118
a(S"couldn't"
g172
S'O'
tp1119
a(S'really'
g46
S'O'
tp1120
a(S'compare'
g204
S'O'
tp1121
a(S'them'
g330
S'O'
tp1122
a(S'.'
S'.'
S'O'
tp1123
aa(lp1124
(S'The'
g140
S'O'
tp1125
a(S'good'
g44
S'O'
tp1126
a(S'part'
g108
S'O'
tp1127
a(S'about'
g77
S'O'
tp1128
a(S'eating'
g363
S'O'
tp1129
a(S'them'
g330
S'O'
tp1130
a(S'all'
g79
S'O'
tp1131
a(S'was'
g12
S'O'
tp1132
a(S'that'
g77
S'O'
tp1133
a(S'my'
g8
S'O'
tp1134
a(S'main'
S'JJ'
S'O'
tp1135
a(S'entree'
g10
S'O'
tp1136
a(S'was'
g12
S'O'
tp1137
a(S'quite'
g84
S'O'
tp1138
a(S'small'
g516
S'O'
tp1139
a(S'.'
S'.'
S'O'
tp1140
aa(lp1141
(S'its'
g469
S'O'
tp1142
a(S'just'
g132
S'O'
tp1143
a(S'cold'
g75
S'O'
tp1144
a(S'and'
g42
S'O'
tp1145
a(S'hard'
g84
S'O'
tp1146
a(S'in'
g54
S'O'
tp1147
a(S'my'
g8
S'O'
tp1148
a(S'mouth'
g10
S'O'
tp1149
a(S','
S','
S'O'
tp1150
a(S'and'
g42
S'O'
tp1151
a(S'the'
g14
S'O'
tp1152
a(S'strawberries'
g5
g16
tp1153
a(S'being'
S'VBG'
p1154
S'O'
tp1155
a(S'socked'
g75
S'O'
tp1156
a(S'in'
g54
S'O'
tp1157
a(S'a'
g21
S'O'
tp1158
a(S'sweet'
g44
g16
tp1159
a(S'sago'
g44
g16
tp1160
a(S'juice'
g10
S'O'
tp1161
a(S'becomes'
g98
S'O'
tp1162
a(S'sour'
g44
g16
tp1163
a(S'.'
S'.'
S'O'
tp1164
aa(lp1165
(S'We'
g229
S'O'
tp1166
a(S'ordered'
g12
S'O'
tp1167
a(S'the'
g14
S'O'
tp1168
a(S'tortilla'
g10
g16
tp1169
a(S'soup'
g10
g16
tp1170
a(S','
S','
S'O'
tp1171
a(S'which'
g101
S'O'
tp1172
a(S'I'
g34
S'O'
tp1173
a(S'imagined'
g12
S'O'
tp1174
a(S'would'
S'MD'
p1175
S'O'
tp1176
a(S'have'
g204
S'O'
tp1177
a(S'been'
g897
S'O'
tp1178
a(S'criticized'
g75
S'O'
tp1179
a(S'for'
g419
S'O'
tp1180
a(S'being'
g1154
S'O'
tp1181
a(S'too'
g61
S'O'
tp1182
a(S'spicy'
g84
S'O'
tp1183
a(S'if'
g349
S'O'
tp1184
a(S'prepared'
g75
S'O'
tp1185
a(S'on'
g197
S'O'
tp1186
a(S'one'
g30
S'O'
tp1187
a(S'of'
g24
S'O'
tp1188
a(S'those'
S'DT'
p1189
S'O'
tp1190
a(S'chef'
g44
S'O'
tp1191
a(S'reality'
g10
S'O'
tp1192
a(S'TV'
g10
S'O'
tp1193
a(S'shows'
g5
S'O'
tp1194
a(S','
S','
S'O'
tp1195
a(S'but'
g63
S'O'
tp1196
a(S'I'
g34
S'O'
tp1197
a(S'judging'
g363
S'O'
tp1198
a(S'from'
g359
S'O'
tp1199
a(S'my'
g8
S'O'
tp1200
a(S'trips'
g5
S'O'
tp1201
a(S'to'
g71
S'O'
tp1202
a(S'Mexico'
S'NNP'
S'O'
tp1203
a(S','
S','
S'O'
tp1204
a(S'the'
g14
S'O'
tp1205
a(S'flavor'
g10
S'O'
tp1206
a(S'was'
g12
S'O'
tp1207
a(S'pretty'
g84
S'O'
tp1208
a(S'authentic'
g44
S'O'
tp1209
a(S'.'
S'.'
S'O'
tp1210
aa(lp1211
(S'Something'
g363
S'O'
tp1212
a(S'about'
g77
S'O'
tp1213
a(S'the'
g14
S'O'
tp1214
a(S'density'
g10
S'O'
tp1215
a(S'and'
g42
S'O'
tp1216
a(S'texture'
g10
S'O'
tp1217
a(S'of'
g24
S'O'
tp1218
a(S'mushroom'
S'NN'
S'FOOD'
tp1219
a(S'in'
g54
S'O'
tp1220
a(S'flan'
g44
g16
tp1221
a(S'form'
g10
S'O'
tp1222
a(S'really'
g46
S'O'
tp1223
a(S'accentuates'
g98
S'O'
tp1224
a(S'the'
g14
S'O'
tp1225
a(S'flavor'
g10
S'O'
tp1226
a(S','
S','
S'O'
tp1227
a(S'and'
g42
S'O'
tp1228
a(S'the'
g14
S'O'
tp1229
a(S'sommelier'
g10
S'O'
tp1230
a(S'smartly'
g84
S'O'
tp1231
a(S'matched'
g12
S'O'
tp1232
a(S'his'
g883
S'O'
tp1233
a(S'wine'
g10
S'O'
tp1234
a(S'to'
g71
S'O'
tp1235
a(S'the'
g14
S'O'
tp1236
a(S'porcini'
g10
g16
tp1237
a(S','
S','
S'O'
tp1238
a(S'a'
g21
S'O'
tp1239
a(S'complete'
g44
S'O'
tp1240
a(S'flash'
g10
S'O'
tp1241
a(S'of'
g24
S'O'
tp1242
a(S'genius'
g10
S'O'
tp1243
a(S'.'
S'.'
S'O'
tp1244
aa(lp1245
(S'I'
g34
S'O'
tp1246
a(S'offer'
g172
S'O'
tp1247
a(S'for'
g419
S'O'
tp1248
a(S'your'
g421
S'O'
tp1249
a(S'consideration'
g10
S'O'
tp1250
a(S'Black'
g125
g16
tp1251
a(S'tiger'
g10
g16
tp1252
a(S'prawns'
g5
g16
tp1253
a(S'in'
g54
g16
tp1254
a(S'shredded'
g44
g16
tp1255
a(S'phyllo'
g10
g16
tp1256
a(S','
S','
S'O'
tp1257
a(S'deep'
g44
g16
tp1258
a(S'fried'
g12
g16
tp1259
a(S','
S','
S'O'
tp1260
a(S'with'
g19
g16
tp1261
a(S'tomato'
g44
g16
tp1262
a(S'amp'
g10
S'O'
tp1263
a(S';'
S':'
S'O'
tp1264
a(S'onion'
g10
g16
tp1265
a(S'marmalade'
g10
g16
tp1266
a(S','
S','
S'O'
tp1267
a(S'small'
g516
g16
tp1268
a(S'beans'
g5
g16
tp1269
a(S','
S','
S'O'
tp1270
a(S'and'
g42
S'O'
tp1271
a(S'herb'
g10
g16
tp1272
a(S'aioli'
g10
g16
tp1273
a(S'.'
S'.'
S'O'
tp1274
aa(lp1275
(S'Fresh'
g44
g16
tp1276
a(S'crab'
g10
g16
tp1277
a(S'deep'
g44
g16
tp1278
a(S'fried'
g75
g16
tp1279
a(S'with'
g19
g16
tp1280
a(S'Chinese'
g125
g16
tp1281
a(S'salted'
g12
g16
tp1282
a(S'egg'
g10
g16
tp1283
a(S'yolk'
g84
g16
tp1284
a(S'batter'
g10
g16
tp1285
a(S')'
S')'
S'O'
tp1286
a(S'.'
S'.'
S'O'
tp1287
aa(lp1288
(S'We'
g229
S'O'
tp1289
a(S'also'
g236
S'O'
tp1290
a(S'had'
g12
S'O'
tp1291
a(S'a'
g21
S'O'
tp1292
a(S'warm'
g44
S'O'
tp1293
a(S'antipasti'
g10
g16
tp1294
a(S'of'
g24
S'O'
tp1295
a(S'bruschetta'
g10
g16
tp1296
a(S'w'
g44
g16
tp1297
a(S'duck'
g10
g16
tp1298
a(S'mousse'
g10
g16
tp1299
a(S'and'
g42
g16
tp1300
a(S'fig'
g10
g16
tp1301
a(S','
S','
S'O'
tp1302
a(S'warm'
g44
g16
tp1303
a(S'bean'
g10
g16
tp1304
a(S'salad'
g10
g16
tp1305
a(S'('
S'('
S'O'
tp1306
a(S'yum'
g407
S'O'
tp1307
a(S'!'
S'.'
S'O'
tp1308
aa(lp1309
(S'I'
g34
S'O'
tp1310
a(S'tried'
g12
S'O'
tp1311
a(S'three'
g905
S'O'
tp1312
a(S'different'
g1116
S'O'
tp1313
a(S'curries'
g5
g16
tp1314
a(S','
S','
S'O'
tp1315
a(S'three'
g905
S'O'
tp1316
a(S'different'
g1116
S'O'
tp1317
a(S'naans'
g5
g16
tp1318
a(S','
S','
S'O'
tp1319
a(S'BBQ'
g125
g16
tp1320
a(S'and'
g42
g16
tp1321
a(S'grilled'
g12
g16
tp1322
a(S'meats'
g5
g16
tp1323
a(S'.'
S'.'
S'O'
tp1324
aa(lp1325
(S'I'
g34
S'O'
tp1326
a(S'ordered'
g12
S'O'
tp1327
a(S'the'
g14
S'O'
tp1328
a(S'Santa'
S'NNP'
g16
tp1329
a(S'Fe'
S'NNP'
g16
tp1330
a(S'carne'
g10
g16
tp1331
a(S'asada'
g10
g16
tp1332
a(S'salad'
S'NN'
S'FOOD'
tp1333
a(S','
S','
S'O'
tp1334
a(S'and'
g42
S'O'
tp1335
a(S'you'
g414
S'O'
tp1336
a(S'fellow'
g172
S'O'
tp1337
a(S'Yelpers'
g5
S'O'
tp1338
a(S'did'
S'VBD'
p1339
S'O'
tp1340
a(S'not'
g111
S'O'
tp1341
a(S'disappointment'
g204
S'O'
tp1342
a(S'me'
S'PRP'
p1343
S'O'
tp1344
a(S'at'
g309
S'O'
tp1345
a(S'all'
g79
S'O'
tp1346
a(S'.'
S'.'
S'O'
tp1347
aa(lp1348
(S'For'
g3
S'O'
tp1349
a(S'an'
g79
S'O'
tp1350
a(S'appetizer'
g10
S'O'
tp1351
a(S'i'
g10
S'O'
tp1352
a(S'had'
g12
S'O'
tp1353
a(S'the'
g14
S'O'
tp1354
a(S'escargots'
g5
g16
tp1355
a(S'in'
g54
g16
tp1356
a(S'garlic'
g44
g16
tp1357
a(S'parsley'
g10
g16
tp1358
a(S'butter'
g10
g16
tp1359
a(S'which'
g101
S'O'
tp1360
a(S'was'
g12
S'O'
tp1361
a(S'delicious'
g44
S'O'
tp1362
a(S','
S','
S'O'
tp1363
a(S'although'
S'IN'
S'O'
tp1364
a(S'I'
g34
S'O'
tp1365
a(S'was'
g12
S'O'
tp1366
a(S'a'
g21
S'O'
tp1367
a(S'little'
g44
S'O'
tp1368
a(S'hasty'
g10
S'O'
tp1369
a(S'in'
g54
S'O'
tp1370
a(S'shoving'
g363
S'O'
tp1371
a(S'the'
g14
S'O'
tp1372
a(S'first'
g44
S'O'
tp1373
a(S'one'
g10
S'O'
tp1374
a(S'in'
g54
S'O'
tp1375
a(S'my'
g8
S'O'
tp1376
a(S'mouth'
g10
S'O'
tp1377
a(S','
S','
S'O'
tp1378
a(S'so'
g77
S'O'
tp1379
a(S'I'
g34
S'O'
tp1380
a(S'burnt'
g172
S'O'
tp1381
a(S'my'
g8
S'O'
tp1382
a(S'tongue'
g10
S'O'
tp1383
a(S'('
S'('
S'O'
tp1384
a(S'it'
g66
S'O'
tp1385
a(S'was'
g12
S'O'
tp1386
a(S'really'
g46
S'O'
tp1387
a(S'freaking'
g44
S'O'
tp1388
a(S'HOT'
g125
S'O'
tp1389
a(S'!'
S'.'
S'O'
tp1390
a(S')'
S')'
S'O'
tp1391
a(S'.'
S'.'
S'O'
tp1392
aa(lp1393
(S'I'
g34
S'O'
tp1394
a(S'think'
g172
S'O'
tp1395
a(S'this'
g182
S'O'
tp1396
a(S'is'
g103
S'O'
tp1397
a(S'a'
g21
S'O'
tp1398
a(S'great'
g59
S'O'
tp1399
a(S'little'
g44
S'O'
tp1400
a(S'place'
g10
S'O'
tp1401
a(S'for'
g419
S'O'
tp1402
a(S'pizza'
g10
g16
tp1403
a(S'.'
S'.'
S'O'
tp1404
aa(lp1405
(S'The'
g140
S'O'
tp1406
a(S'pineapple'
g44
g16
tp1407
a(S'rice'
g10
g16
tp1408
a(S'was'
g12
S'O'
tp1409
a(S'moist'
g44
S'O'
tp1410
a(S'and'
g42
S'O'
tp1411
a(S'flavorful'
g44
S'O'
tp1412
a(S'with'
g19
S'O'
tp1413
a(S'abundant'
g44
S'O'
tp1414
a(S'white'
g157
g16
tp1415
a(S'meat'
g10
g16
tp1416
a(S'chicken'
g10
g16
tp1417
a(S'and'
g42
S'O'
tp1418
a(S'pineapple'
g10
g16
tp1419
a(S'.'
S'.'
S'O'
tp1420
aa(lp1421
(S'The'
g140
S'O'
tp1422
a(S'restaurant'
g10
S'O'
tp1423
a(S'had'
g12
S'O'
tp1424
a(S'a'
g21
S'O'
tp1425
a(S'nice'
g44
S'O'
tp1426
a(S'cozy'
g10
S'O'
tp1427
a(S'feel'
g10
S'O'
tp1428
a(S'to'
g71
S'O'
tp1429
a(S'it'
g66
S'O'
tp1430
a(S'.'
S'.'
S'O'
tp1431
a(S'.'
S'.'
S'O'
tp1432
a(S'.'
S'.'
S'O'
tp1433
a(S'well'
g84
S'O'
tp1434
a(S'either'
S'CC'
p1435
S'O'
tp1436
a(S'that'
g77
S'O'
tp1437
a(S'or'
g82
S'O'
tp1438
a(S'the'
g14
S'O'
tp1439
a(S'place'
g10
S'O'
tp1440
a(S'is'
g103
S'O'
tp1441
a(S'really'
g46
S'O'
tp1442
a(S'really'
g46
S'O'
tp1443
a(S'small'
g516
S'O'
tp1444
a(S'.'
S'.'
S'O'
tp1445
aa(lp1446
(S'The'
g140
S'O'
tp1447
a(S'closest'
g106
S'O'
tp1448
a(S'to'
g71
S'O'
tp1449
a(S'my'
g8
S'O'
tp1450
a(S'loved'
g75
S'O'
tp1451
a(S'and'
g42
S'O'
tp1452
a(S'dearly'
g84
S'O'
tp1453
a(S'missed'
g44
S'O'
tp1454
a(S'slice'
g10
S'O'
tp1455
a(S'of'
g24
S'O'
tp1456
a(S'NYC'
g125
g16
tp1457
a(S'pizza'
g10
g16
tp1458
a(S'.'
S'.'
S'O'
tp1459
aa(lp1460
(S'I'
g34
S'O'
tp1461
a(S'ordered'
g12
S'O'
tp1462
a(S'from'
g359
S'O'
tp1463
a(S'their'
g553
S'O'
tp1464
a(S'regular'
g44
S'O'
tp1465
a(S'menu'
g10
S'O'
tp1466
a(S','
S','
S'O'
tp1467
a(S'my'
g8
S'O'
tp1468
a(S'wife'
S'NN'
S'O'
tp1469
a(S'had'
g12
S'O'
tp1470
a(S'stuff'
g75
S'O'
tp1471
a(S'from'
g359
S'O'
tp1472
a(S'the'
g14
S'O'
tp1473
a(S'Dine'
g125
S'O'
tp1474
a(S'About'
g77
S'O'
tp1475
a(S'Town'
g125
S'O'
tp1476
a(S'menu'
g10
S'O'
tp1477
a(S'.'
S'.'
S'O'
tp1478
aa(lp1479
(S'That'
g79
S'O'
tp1480
a(S'was'
g12
S'O'
tp1481
a(S'the'
g14
S'O'
tp1482
a(S'best'
g106
S'O'
tp1483
a(S'pepper'
g10
g16
tp1484
a(S'mill'
g10
S'O'
tp1485
a(S'I'
g34
S'O'
tp1486
a(S'have'
g172
S'O'
tp1487
a(S'ever'
g1081
S'O'
tp1488
a(S'used'
g75
S'O'
tp1489
a(S'.'
S'.'
S'O'
tp1490
aa(lp1491
(S'We'
g229
S'O'
tp1492
a(S'ordered'
g12
S'O'
tp1493
a(S'the'
g14
S'O'
tp1494
a(S'kumamoto'
g10
g16
tp1495
a(S'oysters'
g98
g16
tp1496
a(S'shooters'
g5
g16
tp1497
a(S'with'
g19
g16
tp1498
a(S'sherry'
g44
g16
tp1499
a(S'black'
S'JJ'
g16
tp1500
a(S'peppercorn'
g10
g16
tp1501
a(S'granita'
g10
g16
tp1502
a(S','
S','
S'O'
tp1503
a(S'spicy'
g10
g16
tp1504
a(S'fritto'
g10
g16
tp1505
a(S'misto'
g10
g16
tp1506
a(S'of'
g24
S'O'
tp1507
a(S'calamari'
g10
g16
tp1508
a(S','
S','
S'O'
tp1509
a(S'rock'
g10
g16
tp1510
a(S'shrimp'
g10
g16
tp1511
a(S','
S','
S'O'
tp1512
a(S'eggplant'
g44
g16
tp1513
a(S'amp'
g10
S'O'
tp1514
a(S';'
S':'
S'O'
tp1515
a(S'zucchini'
g1435
g16
tp1516
a(S'with'
g19
g16
tp1517
a(S'delicious'
g44
g16
tp1518
a(S'sriracha'
g5
g16
tp1519
a(S'aioli'
g172
g16
tp1520
a(S'to'
g71
S'O'
tp1521
a(S'dip'
g204
S'O'
tp1522
a(S'it'
g66
S'O'
tp1523
a(S'in'
g54
S'O'
tp1524
a(S','
S','
S'O'
tp1525
a(S'and'
g42
S'O'
tp1526
a(S'split'
g12
S'O'
tp1527
a(S'a'
g21
S'O'
tp1528
a(S'smoked'
g44
g16
tp1529
a(S'chicken'
g10
g16
tp1530
a(S'salad'
g10
g16
tp1531
a(S'with'
g19
S'O'
tp1532
a(S'bloomsdale'
g44
g16
tp1533
a(S'spinach'
g10
g16
tp1534
a(S','
S','
S'O'
tp1535
a(S'english'
S'JJ'
S'FOOD'
tp1536
a(S'cucumber'
g10
g16
tp1537
a(S','
S','
S'O'
tp1538
a(S'fennel'
g10
g16
tp1539
a(S','
S','
S'O'
tp1540
a(S'and'
g42
S'O'
tp1541
a(S'avocado'
g44
g16
tp1542
a(S'plus'
g1435
S'O'
tp1543
a(S'a'
g21
S'O'
tp1544
a(S'glass'
g10
S'O'
tp1545
a(S'of'
g24
S'O'
tp1546
a(S'wine'
g10
S'O'
tp1547
a(S'.'
S'.'
S'O'
tp1548
aa(lp1549
(S'Morning'
g363
S'O'
tp1550
a(S'coffee'
g10
S'O'
tp1551
a(S'is'
g103
S'O'
tp1552
a(S'pretty'
g84
S'O'
tp1553
a(S'good'
g44
S'O'
tp1554
a(S'.'
S'.'
S'O'
tp1555
aa(lp1556
(S'Slices'
g5
S'O'
tp1557
a(S'are'
g595
S'O'
tp1558
a(S'very'
g84
S'O'
tp1559
a(S'good'
g44
S'O'
tp1560
a(S'sized'
g75
S'O'
tp1561
a(S','
S','
S'O'
tp1562
a(S'served'
g12
S'O'
tp1563
a(S'hot'
g44
S'O'
tp1564
a(S'and'
g42
S'O'
tp1565
a(S'taste'
g10
S'O'
tp1566
a(S'great'
g59
S'O'
tp1567
a(S'.'
S'.'
S'O'
tp1568
aa(lp1569
(S'did'
g1339
S'O'
tp1570
a(S'i'
g204
S'O'
tp1571
a(S'mention'
g10
S'O'
tp1572
a(S"there's"
g10
S'O'
tp1573
a(S'meat'
S'NN'
S'FOOD'
tp1574
a(S'here'
g900
S'O'
tp1575
a(S'?'
S'.'
S'O'
tp1576
aa(lp1577
(S'Rumble'
g44
g16
tp1578
a(S'Fish'
g10
g16
tp1579
a(S'is'
g103
S'O'
tp1580
a(S'my'
g8
S'O'
tp1581
a(S'favorite'
g44
S'O'
tp1582
a(S'Japanese'
g44
S'O'
tp1583
a(S'restaurant'
g10
S'O'
tp1584
a(S'in'
g54
S'O'
tp1585
a(S'the'
g14
S'O'
tp1586
a(S'city'
S'NN'
S'O'
tp1587
a(S'.'
S'.'
S'O'
tp1588
aa(lp1589
(S'One'
g30
S'O'
tp1590
a(S'order'
g36
S'O'
tp1591
a(S'is'
g103
S'O'
tp1592
a(S'enough'
g44
S'O'
tp1593
a(S'for'
g419
S'O'
tp1594
a(S'two'
S'CD'
p1595
S'O'
tp1596
a(S'to'
g71
S'O'
tp1597
a(S'share'
g521
S'O'
tp1598
a(S','
S','
S'O'
tp1599
a(S'unless'
S'IN'
S'O'
tp1600
a(S"you're"
g44
S'O'
tp1601
a(S'one'
g30
S'O'
tp1602
a(S'of'
g24
S'O'
tp1603
a(S'those'
g1189
S'O'
tp1604
a(S'who'
g372
S'O'
tp1605
a(S'has'
g785
S'O'
tp1606
a(S'a'
g21
S'O'
tp1607
a(S'major'
S'JJ'
S'O'
tp1608
a(S'sweet'
g44
S'O'
tp1609
a(S'tooth'
g10
S'O'
tp1610
a(S'.'
S'.'
S'O'
tp1611
aa(lp1612
(S'The'
g140
S'O'
tp1613
a(S'naan'
g44
g16
tp1614
a(S'bread'
g10
g16
tp1615
a(S','
S','
S'O'
tp1616
a(S'two'
g1595
S'O'
tp1617
a(S'times'
g5
S'O'
tp1618
a(S'the'
g14
S'O'
tp1619
a(S'size'
S'NN'
S'O'
tp1620
a(S'of'
g24
S'O'
tp1621
a(S'my'
g8
S'O'
tp1622
a(S'face'
g10
S'O'
tp1623
a(S','
S','
S'O'
tp1624
a(S'was'
g12
S'O'
tp1625
a(S'fresh'
g44
S'O'
tp1626
a(S'from'
g359
S'O'
tp1627
a(S'the'
g14
S'O'
tp1628
a(S'oven'
g10
S'O'
tp1629
a(S'and'
g42
S'O'
tp1630
a(S'served'
g12
S'O'
tp1631
a(S'as'
g77
S'O'
tp1632
a(S'the'
g14
S'O'
tp1633
a(S'perfect'
g44
S'O'
tp1634
a(S'delivery'
S'NN'
S'O'
tp1635
a(S'vessel'
g10
S'O'
tp1636
a(S'for'
g419
S'O'
tp1637
a(S'the'
g14
S'O'
tp1638
a(S'curry'
g10
g16
tp1639
a(S'from'
g359
S'O'
tp1640
a(S'bowl'
g10
S'O'
tp1641
a(S'to'
g71
S'O'
tp1642
a(S'mouth'
g204
S'O'
tp1643
a(S'.'
S'.'
S'O'
tp1644
aa(lp1645
(S'I'
g34
S'O'
tp1646
a(S'must'
g506
S'O'
tp1647
a(S'have'
g204
S'O'
tp1648
a(S'looked'
g75
S'O'
tp1649
a(S'like'
g77
S'O'
tp1650
a(S'a'
g21
S'O'
tp1651
a(S'newbie'
g10
S'O'
tp1652
a(S'as'
g77
S'O'
tp1653
a(S'the'
g14
S'O'
tp1654
a(S'man'
S'NN'
p1655
S'O'
tp1656
a(S'making'
g363
S'O'
tp1657
a(S'the'
g14
S'O'
tp1658
a(S'pizza'
g10
g16
tp1659
a(S'told'
g12
S'O'
tp1660
a(S'me'
g1343
S'O'
tp1661
a(S'to'
g71
S'O'
tp1662
a(S'go'
g204
S'O'
tp1663
a(S'with'
g19
S'O'
tp1664
a(S'the'
g14
S'O'
tp1665
a(S'plain'
g10
g16
tp1666
a(S'cheese'
g10
g16
tp1667
a(S'for'
g419
S'O'
tp1668
a(S'the'
g14
S'O'
tp1669
a(S'first'
g44
S'O'
tp1670
a(S'time'
g32
S'O'
tp1671
a(S'.'
S'.'
S'O'
tp1672
aa(lp1673
(S'They'
g201
S'O'
tp1674
a(S'were'
g318
S'O'
tp1675
a(S'playing'
g363
S'O'
tp1676
a(S'music'
S'NN'
S'O'
tp1677
a(S'in'
g54
S'O'
tp1678
a(S'Spanish'
g44
S'O'
tp1679
a(S'and'
g42
S'O'
tp1680
a(S'I'
g34
S'O'
tp1681
a(S'was'
g12
S'O'
tp1682
a(S'all'
g79
S'O'
tp1683
a(S'over'
g77
S'O'
tp1684
a(S'that'
g79
S'O'
tp1685
a(S'.'
S'.'
S'O'
tp1686
aa(lp1687
(S'2'
g533
S'O'
tp1688
a(S'.'
S'.'
S'O'
tp1689
a(S'95'
g30
S'O'
tp1690
a(S'for'
g419
S'O'
tp1691
a(S'a'
g21
S'O'
tp1692
a(S'large'
g938
S'O'
tp1693
a(S'turkey'
g10
g16
tp1694
a(S'sausage'
g10
g16
tp1695
a(S'gumbo'
g10
g16
tp1696
a(S'at'
g309
S'O'
tp1697
a(S'10'
S'CD'
S'O'
tp1698
a(S'am'
g177
S'O'
tp1699
a(S'.'
S'.'
S'O'
tp1700
aa(lp1701
(S'I'
g34
S'O'
tp1702
a(S'think'
g172
S'O'
tp1703
a(S'I'
g34
S'O'
tp1704
a(S'got'
g12
S'O'
tp1705
a(S'the'
g14
S'O'
tp1706
a(S'pepperoni'
g44
g16
tp1707
a(S'slice'
g10
g16
tp1708
a(S'but'
g63
S'O'
tp1709
a(S'there'
g662
S'O'
tp1710
a(S'was'
g12
S'O'
tp1711
a(S'something'
g69
S'O'
tp1712
a(S'special'
g44
S'O'
tp1713
a(S'about'
g77
S'O'
tp1714
a(S'that'
g79
S'O'
tp1715
a(S'pizza'
g10
g16
tp1716
a(S'.'
S'.'
S'O'
tp1717
aa(lp1718
(S"It's"
g125
S'O'
tp1719
a(S'spacious'
g44
S'O'
tp1720
a(S','
S','
S'O'
tp1721
a(S'quiet'
g44
S'O'
tp1722
a(S','
S','
S'O'
tp1723
a(S'not'
g111
S'O'
tp1724
a(S'over'
g77
S'O'
tp1725
a(S'crowded'
g75
S'O'
tp1726
a(S','
S','
S'O'
tp1727
a(S'and'
g42
S'O'
tp1728
a(S'has'
g785
S'O'
tp1729
a(S'heat'
g10
S'O'
tp1730
a(S'lamps'
g5
S'O'
tp1731
a(S'!'
S'.'
S'O'
tp1732
aa(lp1733
(S'And'
S'CC'
S'O'
tp1734
a(S'the'
g14
S'O'
tp1735
a(S'pork'
g10
g16
tp1736
a(S'chop'
g10
g16
tp1737
a(S'was'
g12
S'O'
tp1738
a(S'heavenly'
g84
S'O'
tp1739
a(S'.'
S'.'
S'O'
tp1740
aa(lp1741
(S'Arinell'
g125
S'O'
tp1742
a(S'has'
g785
S'O'
tp1743
a(S'ruined'
g75
S'O'
tp1744
a(S'me'
g1343
S'O'
tp1745
a(S','
S','
S'O'
tp1746
a(S'now'
S'RB'
p1747
S'O'
tp1748
a(S'I'
g34
S'O'
tp1749
a(S'am'
g177
S'O'
tp1750
a(S'a'
g21
S'O'
tp1751
a(S'closet'
g10
S'O'
tp1752
a(S'pizza'
g10
g16
tp1753
a(S'snob'
g10
S'O'
tp1754
a(S'.'
S'.'
S'O'
tp1755
aa(lp1756
(S'I'
g34
S'O'
tp1757
a(S'grabbed'
g12
S'O'
tp1758
a(S'a'
g21
S'O'
tp1759
a(S'soy'
g44
g16
tp1760
a(S'milk'
g10
g16
tp1761
a(S'('
S'('
S'O'
tp1762
a(S'which'
g101
S'O'
tp1763
a(S'was'
g12
S'O'
tp1764
a(S'cheaper'
g164
S'O'
tp1765
a(S'here'
g900
S'O'
tp1766
a(S'than'
g560
S'O'
tp1767
a(S'at'
g309
S'O'
tp1768
a(S'another'
S'DT'
S'O'
tp1769
a(S'store'
g10
S'O'
tp1770
a(S'3'
g30
S'O'
tp1771
a(S'blocks'
g5
S'O'
tp1772
a(S'away'
g84
S'O'
tp1773
a(S')'
S')'
S'O'
tp1774
a(S'and'
g42
S'O'
tp1775
a(S'the'
g14
S'O'
tp1776
a(S'man'
g1655
S'O'
tp1777
a(S'who'
g372
S'O'
tp1778
a(S'I'
g34
S'O'
tp1779
a(S'assumed'
g12
S'O'
tp1780
a(S'was'
g12
S'O'
tp1781
a(S'John'
S'NNP'
S'O'
tp1782
a(S'seemed'
g12
S'O'
tp1783
a(S'really'
g46
S'O'
tp1784
a(S'nice'
g44
S'O'
tp1785
a(S'.'
S'.'
S'O'
tp1786
aa(lp1787
(S'you'
g414
S'O'
tp1788
a(S'want'
g172
S'O'
tp1789
a(S'Hunan'
g44
g16
tp1790
a(S'spicy'
g10
g16
tp1791
a(S'.'
S'.'
S'O'
tp1792
aa(lp1793
(S'We'
g229
S'O'
tp1794
a(S'also'
g236
S'O'
tp1795
a(S'ordered'
g12
S'O'
tp1796
a(S'tuna'
g44
g16
tp1797
a(S'tartar'
g10
g16
tp1798
a(S','
S','
S'O'
tp1799
a(S'asparagus'
g10
g16
tp1800
a(S','
S','
S'O'
tp1801
a(S'fried'
g12
g16
tp1802
a(S'artichoke'
g10
g16
tp1803
a(S'hearts'
g5
g16
tp1804
a(S','
S','
S'O'
tp1805
a(S'pesto'
g10
g16
tp1806
a(S'pizzette'
g10
g16
tp1807
a(S','
S','
S'O'
tp1808
a(S'beef'
g10
g16
tp1809
a(S'sliders'
g5
g16
tp1810
a(S','
S','
S'O'
tp1811
a(S'lamb'
g10
g16
tp1812
a(S'meatballs'
g5
g16
tp1813
a(S'and'
g42
S'O'
tp1814
a(S'bread'
g44
g16
tp1815
a(S'pudding'
g10
g16
tp1816
a(S'.'
S'.'
S'O'
tp1817
aa(lp1818
(S'We'
g229
S'O'
tp1819
a(S'roast'
g172
S'O'
tp1820
a(S'our'
S'PRP$'
p1821
S'O'
tp1822
a(S'own'
g44
S'O'
tp1823
a(S'beans'
g5
g16
tp1824
a(S'and'
g42
S'O'
tp1825
a(S'go'
g204
S'O'
tp1826
a(S'to'
g71
S'O'
tp1827
a(S'great'
g59
S'O'
tp1828
a(S'lengths'
g5
S'O'
tp1829
a(S'to'
g71
S'O'
tp1830
a(S'make'
g204
S'O'
tp1831
a(S'the'
g14
S'O'
tp1832
a(S'perfect'
g44
S'O'
tp1833
a(S'coffee'
g10
S'O'
tp1834
a(S'so'
g84
S'O'
tp1835
a(S'finding'
g363
S'O'
tp1836
a(S'a'
g21
S'O'
tp1837
a(S'cafe'
g10
S'O'
tp1838
a(S'that'
g101
S'O'
tp1839
a(S'meets'
g98
S'O'
tp1840
a(S'our'
g1821
S'O'
tp1841
a(S'expectations'
S'NNS'
S'O'
tp1842
a(S'is'
g103
S'O'
tp1843
a(S'rare'
g44
S'O'
tp1844
a(S'.'
S'.'
S'O'
tp1845
aa(lp1846
(S'Now'
S'RB'
S'O'
tp1847
a(S','
S','
S'O'
tp1848
a(S'there'
g662
S'O'
tp1849
a(S'is'
g103
S'O'
tp1850
a(S'this'
g182
S'O'
tp1851
a(S'debate'
g10
S'O'
tp1852
a(S'over'
g77
S'O'
tp1853
a(S'Greens'
g125
S'O'
tp1854
a(S'vs'
g44
S'O'
tp1855
a(S'Millennium'
g125
S'O'
tp1856
a(S','
S','
S'O'
tp1857
a(S'and'
g42
S'O'
tp1858
a(S'now'
g1747
S'O'
tp1859
a(S'having'
g260
S'O'
tp1860
a(S'tried'
g75
S'O'
tp1861
a(S'both'
g79
S'O'
tp1862
a(S','
S','
S'O'
tp1863
a(S'Millennium'
g125
S'O'
tp1864
a(S'blows'
g98
S'O'
tp1865
a(S'Greens'
g98
S'O'
tp1866
a(S'out'
g77
S'O'
tp1867
a(S'of'
g24
S'O'
tp1868
a(S'the'
g14
S'O'
tp1869
a(S'water'
g547
S'O'
tp1870
a(S'.'
S'.'
S'O'
tp1871
aa(lp1872
(S'My'
g469
S'O'
tp1873
a(S'BF'
g125
S'O'
tp1874
a(S'had'
g12
S'O'
tp1875
a(S'the'
g14
S'O'
tp1876
a(S'rice'
g10
g16
tp1877
a(S'pudding'
g10
g16
tp1878
a(S'and'
g42
S'O'
tp1879
a(S'glazed'
g75
g16
tp1880
a(S'peach'
g10
g16
tp1881
a(S'which'
g101
S'O'
tp1882
a(S'was'
g12
S'O'
tp1883
a(S'the'
g14
S'O'
tp1884
a(S'perfect'
g44
S'O'
tp1885
a(S'dessert'
g10
S'O'
tp1886
a(S'to'
g71
S'O'
tp1887
a(S'have'
g204
S'O'
tp1888
a(S'along'
g44
S'O'
tp1889
a(S'side'
g10
S'O'
tp1890
a(S'the'
g14
S'O'
tp1891
a(S'chocolate'
g10
g16
tp1892
a(S'cake'
g10
g16
tp1893
a(S'.'
S'.'
S'O'
tp1894
aa(lp1895
(S'You'
S'PRP'
S'O'
tp1896
a(S'can'
S'MD'
p1897
S'O'
tp1898
a(S'also'
g236
S'O'
tp1899
a(S'use'
g204
S'O'
tp1900
a(S'them'
g330
S'O'
tp1901
a(S'for'
g419
S'O'
tp1902
a(S'soup'
g10
g16
tp1903
a(S'noodles'
g5
g16
tp1904
a(S'.'
S'.'
S'O'
tp1905
aa(lp1906
(S'Our'
S'PRP$'
S'O'
tp1907
a(S'waitress'
g10
S'O'
tp1908
a(S'offered'
g75
S'O'
tp1909
a(S'to'
g71
S'O'
tp1910
a(S'move'
g204
S'O'
tp1911
a(S'us'
g375
S'O'
tp1912
a(S','
S','
S'O'
tp1913
a(S'but'
g63
S'O'
tp1914
a(S'I'
g34
S'O'
tp1915
a(S'think'
g172
S'O'
tp1916
a(S'management'
S'NN'
S'O'
tp1917
a(S'should'
g687
S'O'
tp1918
a(S'step'
g204
S'O'
tp1919
a(S'in'
g54
S'O'
tp1920
a(S'and'
g42
S'O'
tp1921
a(S'at'
g309
S'O'
tp1922
a(S'least'
g106
S'O'
tp1923
a(S'attempt'
g10
S'O'
tp1924
a(S'to'
g71
S'O'
tp1925
a(S"'calm'"
g204
S'O'
tp1926
a(S'the'
g14
S'O'
tp1927
a(S'boors'
g5
S'O'
tp1928
a(S'who'
g372
S'O'
tp1929
a(S'would'
g1175
S'O'
tp1930
a(S'be'
g73
S'O'
tp1931
a(S'seen'
g355
S'O'
tp1932
a(S'as'
g77
S'O'
tp1933
a(S'disruptive'
g44
S'O'
tp1934
a(S'at'
g309
S'O'
tp1935
a(S'Chuck'
g125
S'O'
tp1936
a(S'E'
g125
S'O'
tp1937
a(S'.'
S'.'
S'O'
tp1938
a(S'Cheese'
g125
S'O'
tp1939
a(S'.'
S'.'
S'O'
tp1940
aa(lp1941
(S'The'
g140
S'O'
tp1942
a(S'food'
g191
S'O'
tp1943
a(S'is'
g103
S'O'
tp1944
a(S'divine'
g44
S'O'
tp1945
a(S','
S','
S'O'
tp1946
a(S'fresh'
g44
g16
tp1947
a(S'.'
S'.'
S'O'
tp1948
a(S'.'
S'.'
S'O'
tp1949
a(S'.'
S'.'
S'O'
tp1950
a(S'literally'
g84
S'O'
tp1951
a(S'every'
S'DT'
S'O'
tp1952
a(S'single'
S'JJ'
S'O'
tp1953
a(S'thing'
S'NN'
S'O'
tp1954
a(S"I've"
g125
S'O'
tp1955
a(S'eaten'
g1435
S'O'
tp1956
a(S'there'
g84
S'O'
tp1957
a(S','
S','
S'O'
tp1958
a(S'and'
g42
S'O'
tp1959
a(S"I've"
g125
S'O'
tp1960
a(S'been'
g897
S'O'
tp1961
a(S'a'
g21
S'O'
tp1962
a(S'bunch'
g10
S'O'
tp1963
a(S'of'
g24
S'O'
tp1964
a(S'times'
g5
S'O'
tp1965
a(S'.'
S'.'
S'O'
tp1966
aa(lp1967
(S'We'
g229
S'O'
tp1968
a(S'arrived'
g12
S'O'
tp1969
a(S'early'
g84
S'O'
tp1970
a(S'enough'
g44
S'O'
tp1971
a(S'to'
g71
S'O'
tp1972
a(S'take'
g204
S'O'
tp1973
a(S'over'
g195
S'O'
tp1974
a(S'the'
g14
S'O'
tp1975
a(S'downstairs'
g5
S'O'
tp1976
a(S'lounge'
g172
S'O'
tp1977
a(S'area'
S'NN'
S'O'
tp1978
a(S'complete'
g44
S'O'
tp1979
a(S'with'
g19
S'O'
tp1980
a(S'comfortable'
g44
S'O'
tp1981
a(S'couches'
g5
S'O'
tp1982
a(S'.'
S'.'
S'O'
tp1983
aa(lp1984
(S'Years'
g5
S'O'
tp1985
a(S'ago'
g84
S'O'
tp1986
a(S','
S','
S'O'
tp1987
a(S'my'
g8
S'O'
tp1988
a(S'friend'
g10
S'O'
tp1989
a(S'first'
g84
S'O'
tp1990
a(S'introduced'
g12
S'O'
tp1991
a(S'me'
g1343
S'O'
tp1992
a(S'to'
g71
S'O'
tp1993
a(S'this'
g182
S'O'
tp1994
a(S'delicious'
g44
S'O'
tp1995
a(S'GAI'
S'NNP'
S'FOOD'
tp1996
a(S'BAO'
g125
g16
tp1997
a(S'('
S'('
S'O'
tp1998
a(S'filled'
g75
S'O'
tp1999
a(S'with'
g19
S'O'
tp2000
a(S'chicken'
g10
g16
tp2001
a(S','
S','
S'O'
tp2002
a(S'shiitake'
g10
g16
tp2003
a(S'mushroom'
g10
g16
tp2004
a(S','
S','
S'O'
tp2005
a(S'amp'
g10
S'O'
tp2006
a(S';'
S':'
S'O'
tp2007
a(S'egg'
g1435
g16
tp2008
a(S'amp'
g172
S'O'
tp2009
a(S';'
S':'
S'O'
tp2010
a(S'THEY'
g125
S'O'
tp2011
a(S'ARE'
g172
S'O'
tp2012
a(S'HUGE'
g125
S'O'
tp2013
a(S'!'
S'.'
S'O'
tp2014
a(S')'
S')'
S'O'
tp2015
aa(lp2016
(S'Service'
S'NNP'
S'O'
tp2017
a(S'took'
S'VBD'
S'O'
tp2018
a(S'a'
g21
S'O'
tp2019
a(S'little'
g44
S'O'
tp2020
a(S'long'
g44
S'O'
tp2021
a(S','
S','
S'O'
tp2022
a(S'but'
g63
S'O'
tp2023
a(S'that'
g77
S'O'
tp2024
a(S'might'
S'MD'
S'O'
tp2025
a(S'have'
g204
S'O'
tp2026
a(S'been'
g897
S'O'
tp2027
a(S'because'
g77
S'O'
tp2028
a(S'they'
g685
S'O'
tp2029
a(S'were'
g318
S'O'
tp2030
a(S'waiting'
g363
S'O'
tp2031
a(S'on'
g197
S'O'
tp2032
a(S'my'
g8
S'O'
tp2033
a(S"friend's"
g44
S'O'
tp2034
a(S'dish'
g10
S'O'
tp2035
a(S'to'
g71
S'O'
tp2036
a(S'come'
g204
S'O'
tp2037
a(S'out'
g195
S'O'
tp2038
a(S'('
S'('
S'O'
tp2039
a(S'she'
S'PRP'
S'O'
tp2040
a(S'had'
g12
S'O'
tp2041
a(S'the'
g14
S'O'
tp2042
a(S'chicken'
g10
g16
tp2043
a(S'pot'
g10
g16
tp2044
a(S'pie'
g10
g16
tp2045
a(S')'
S')'
S'O'
tp2046
a(S'.'
S'.'
S'O'
tp2047
aa(lp2048
(S'A'
g79
S'O'
tp2049
a(S'splurge'
g10
S'O'
tp2050
a(S'but'
g63
S'O'
tp2051
a(S'this'
g182
S'O'
tp2052
a(S'cup'
g10
S'O'
tp2053
a(S'of'
g24
S'O'
tp2054
a(S'joe'
g10
S'O'
tp2055
a(S'is'
g103
S'O'
tp2056
a(S'one'
g30
S'O'
tp2057
a(S'of'
g24
S'O'
tp2058
a(S"life's"
g10
S'O'
tp2059
a(S'simple'
g10
S'O'
tp2060
a(S'pleasures'
g5
S'O'
tp2061
a(S'my'
g8
S'O'
tp2062
a(S"life's"
g44
S'O'
tp2063
a(S'pleasure'
g10
S'O'
tp2064
a(S'.'
S'.'
S'O'
tp2065
aa(lp2066
(S'They'
g201
S'O'
tp2067
a(S'have'
g172
S'O'
tp2068
a(S'their'
g553
S'O'
tp2069
a(S'own'
g44
S'O'
tp2070
a(S'versions'
g5
S'O'
tp2071
a(S'of'
g24
S'O'
tp2072
a(S'onion'
g10
g16
tp2073
a(S'rings'
g5
g16
tp2074
a(S'so'
g77
S'O'
tp2075
a(S'we'
g351
S'O'
tp2076
a(S'had'
g12
S'O'
tp2077
a(S'to'
g71
S'O'
tp2078
a(S'try'
g204
S'O'
tp2079
a(S'em'
g10
S'O'
tp2080
a(S'and'
g42
S'O'
tp2081
a(S'they'
g685
S'O'
tp2082
a(S'were'
g318
S'O'
tp2083
a(S'really'
g46
S'O'
tp2084
a(S'yummy'
g44
S'O'
tp2085
a(S'!'
S'.'
S'O'
tp2086
aa(lp2087
(S'We'
g229
S'O'
tp2088
a(S'drove'
g12
S'O'
tp2089
a(S'in'
g54
S'O'
tp2090
a(S'circles'
g5
S'O'
tp2091
a(S'looking'
S'VBG'
p2092
S'O'
tp2093
a(S'for'
g419
S'O'
tp2094
a(S'parking'
g10
S'O'
tp2095
a(S'and'
g42
S'O'
tp2096
a(S'miraculously'
g84
S'O'
tp2097
a(S'found'
g12
S'O'
tp2098
a(S'a'
g21
S'O'
tp2099
a(S'place'
g10
S'O'
tp2100
a(S'directly'
S'RB'
S'O'
tp2101
a(S'across'
g77
S'O'
tp2102
a(S'the'
g14
S'O'
tp2103
a(S'street'
g10
S'O'
tp2104
a(S'from'
g359
S'O'
tp2105
a(S'Rumble'
g44
S'O'
tp2106
a(S'Fish'
g10
S'O'
tp2107
a(S'.'
S'.'
S'O'
tp2108
aa(lp2109
(S'Nice'
g44
S'O'
tp2110
a(S'touches'
g5
S'O'
tp2111
a(S'include'
g172
S'O'
tp2112
a(S'the'
g14
S'O'
tp2113
a(S'option'
S'NN'
S'O'
tp2114
a(S'to'
g71
S'O'
tp2115
a(S'add'
g204
S'O'
tp2116
a(S'a'
g21
S'O'
tp2117
a(S'foie'
g44
g16
tp2118
a(S'gras'
g44
g16
tp2119
a(S'dish'
g10
S'O'
tp2120
a(S'or'
g82
S'O'
tp2121
a(S'cheese'
g44
g16
tp2122
a(S'course'
g585
S'O'
tp2123
a(S'to'
g71
S'O'
tp2124
a(S'your'
g421
S'O'
tp2125
a(S'menu'
g10
S'O'
tp2126
a(S','
S','
S'O'
tp2127
a(S'and'
g42
S'O'
tp2128
a(S'the'
g14
S'O'
tp2129
a(S'cart'
g10
S'O'
tp2130
a(S'brought'
g12
S'O'
tp2131
a(S'to'
g71
S'O'
tp2132
a(S'your'
g421
S'O'
tp2133
a(S'table'
g44
S'O'
tp2134
a(S'afterward'
g10
S'O'
tp2135
a(S'for'
g419
S'O'
tp2136
a(S'a'
g21
S'O'
tp2137
a(S'selection'
g10
S'O'
tp2138
a(S'of'
g24
S'O'
tp2139
a(S'candies'
g5
g16
tp2140
a(S'and'
g42
S'O'
tp2141
a(S'truffles'
g5
g16
tp2142
a(S'.'
S'.'
S'O'
tp2143
aa(lp2144
(S'I'
g34
S'O'
tp2145
a(S'loved'
g12
S'O'
tp2146
a(S'everything'
S'NN'
S'O'
tp2147
a(S'about'
g77
S'O'
tp2148
a(S'this'
g182
S'O'
tp2149
a(S'place'
g10
S'O'
tp2150
a(S'.'
S'.'
S'O'
tp2151
a(S'.'
S'.'
S'O'
tp2152
a(S'First'
g125
S'O'
tp2153
a(S'they'
g685
S'O'
tp2154
a(S'had'
g12
S'O'
tp2155
a(S'my'
g8
S'O'
tp2156
a(S'favorite'
g44
S'O'
tp2157
a(S'Thanksgiving'
g125
S'O'
tp2158
a(S'dinner'
g10
S'O'
tp2159
a(S'.'
S'.'
S'O'
tp2160
a(S'.'
S'.'
S'O'
tp2161
a(S'Mash'
g125
g16
tp2162
a(S'potatoes'
g5
g16
tp2163
a(S','
S','
S'O'
tp2164
a(S'turkey'
g10
g16
tp2165
a(S'and'
g42
S'O'
tp2166
a(S'gravy'
g204
g16
tp2167
a(S'all'
g79
S'O'
tp2168
a(S'over'
g77
S'O'
tp2169
a(S'with'
g19
S'O'
tp2170
a(S'stuffing'
g10
g16
tp2171
a(S'.'
S'.'
S'O'
tp2172
aa(lp2173
(S'I'
g34
S'O'
tp2174
a(S'requested'
g12
S'O'
tp2175
a(S'the'
g14
S'O'
tp2176
a(S'tofu'
g10
g16
tp2177
a(S'extra'
g44
S'O'
tp2178
a(S'even'
g84
S'O'
tp2179
a(S'though'
g77
S'O'
tp2180
a(S'the'
g14
S'O'
tp2181
a(S'chicken'
g10
g16
tp2182
a(S'was'
g12
S'O'
tp2183
a(S'not'
g111
S'O'
tp2184
a(S'bad'
S'JJ'
S'O'
tp2185
a(S'.'
S'.'
S'O'
tp2186
aa(lp2187
(S'Yummiest'
g106
S'O'
tp2188
a(S'Dolsot'
g125
g16
tp2189
a(S'Bul'
g125
g16
tp2190
a(S'Go'
g125
g16
tp2191
a(S'Gi'
g125
g16
tp2192
a(S','
S','
S'O'
tp2193
a(S'Kimchi'
g125
g16
tp2194
a(S','
S','
S'O'
tp2195
a(S'seafood'
g10
g16
tp2196
a(S'amp'
g10
S'O'
tp2197
a(S';'
S':'
S'O'
tp2198
a(S'onion'
g10
g16
tp2199
a(S'pancake'
g10
g16
tp2200
a(S','
S','
S'O'
tp2201
a(S'Tofu'
g125
g16
tp2202
a(S'soup'
g10
g16
tp2203
a(S'('
S'('
S'O'
tp2204
a(S'complimentary'
g44
S'O'
tp2205
a(S')'
S')'
S'O'
tp2206
a(S'and'
g42
S'O'
tp2207
a(S'most'
S'RBS'
S'O'
tp2208
a(S'aromatic'
g44
S'O'
tp2209
a(S'and'
g42
S'O'
tp2210
a(S'delicious'
g44
S'O'
tp2211
a(S'tea'
g10
S'O'
tp2212
a(S'we'
g351
S'O'
tp2213
a(S'ever'
g1081
S'O'
tp2214
a(S'had'
g12
S'O'
tp2215
a(S'.'
S'.'
S'O'
tp2216
aa(lp2217
(S'So'
g84
S'O'
tp2218
a(S'here'
g900
S'O'
tp2219
a(S'it'
g66
S'O'
tp2220
a(S'is'
g103
S'O'
tp2221
a(S'6'
S'CD'
p2222
S'O'
tp2223
a(S'pieces'
g5
S'O'
tp2224
a(S'of'
g24
S'O'
tp2225
a(S'French'
g44
g16
tp2226
a(S'toast'
g10
g16
tp2227
a(S','
S','
S'O'
tp2228
a(S'2'
g533
S'O'
tp2229
a(S'poached'
g12
g16
tp2230
a(S','
S','
S'O'
tp2231
a(S'6'
g2222
S'O'
tp2232
a(S'huge'
g496
S'O'
tp2233
a(S'fried'
g75
g16
tp2234
a(S'chicken'
g10
g16
tp2235
a(S'wings'
g5
g16
tp2236
a(S'('
S'('
S'O'
tp2237
a(S"It's"
g125
S'O'
tp2238
a(S'the'
g14
S'O'
tp2239
a(S'real'
g119
S'O'
tp2240
a(S'deal'
g10
S'O'
tp2241
a(S','
S','
S'O'
tp2242
a(S'folks'
g5
S'O'
tp2243
a(S'!'
S'.'
S'O'
tp2244
a(S')'
S')'
S'O'
tp2245
aa(lp2246
(S"it's"
g5
S'O'
tp2247
a(S'like'
g77
S'O'
tp2248
a(S'a'
g21
S'O'
tp2249
a(S'clean'
g44
S'O'
tp2250
a(S'new'
g890
S'O'
tp2251
a(S'york'
g10
S'O'
tp2252
a(S'lounge'
g10
S'O'
tp2253
a(S'but'
g63
S'O'
tp2254
a(S'with'
g19
S'O'
tp2255
a(S'lots'
g5
S'O'
tp2256
a(S'of'
g24
S'O'
tp2257
a(S'space'
S'NN'
S'O'
tp2258
a(S'and'
g42
S'O'
tp2259
a(S'better'
g557
S'O'
tp2260
a(S'looking'
g2092
S'O'
tp2261
a(S'women'
S'NNS'
S'O'
tp2262
a(S'and'
g42
S'O'
tp2263
a(S'better'
g164
S'O'
tp2264
a(S'tasting'
g363
S'O'
tp2265
a(S'wine'
g10
S'O'
tp2266
a(S'and'
g42
S'O'
tp2267
a(S'frankly'
g10
S'O'
tp2268
a(S'is'
g103
S'O'
tp2269
a(S'more'
g164
S'O'
tp2270
a(S'fun'
g44
S'O'
tp2271
a(S'all'
g79
S'O'
tp2272
a(S'around'
g84
S'O'
tp2273
a(S'.'
S'.'
S'O'
tp2274
a(S'.'
S'.'
S'O'
tp2275
a(S'.'
S'.'
S'O'
tp2276
a(S'i'
g10
S'O'
tp2277
a(S'really'
g46
S'O'
tp2278
a(S'will'
S'MD'
S'O'
tp2279
a(S'come'
g204
S'O'
tp2280
a(S'back'
g84
S'O'
tp2281
a(S'here'
g900
S'O'
tp2282
a(S'soon'
S'RB'
S'O'
tp2283
a(S'so'
g84
S'O'
tp2284
a(S'i'
g44
S'O'
tp2285
a(S'can'
g1897
S'O'
tp2286
a(S'actually'
S'RB'
S'O'
tp2287
a(S'try'
g204
S'O'
tp2288
a(S'some'
S'DT'
S'O'
tp2289
a(S'food'
g191
S'O'
tp2290
a(S'and'
g42
S'O'
tp2291
a(S'write'
g204
S'O'
tp2292
a(S'a'
g21
S'O'
tp2293
a(S'more'
g557
S'O'
tp2294
a(S'worthy'
g44
S'O'
tp2295
a(S'review'
g10
S'O'
tp2296
a(S'.'
S'.'
S'O'
tp2297
a(S'.'
S'.'
S'O'
tp2298
a(S'.'
S'.'
S'O'
tp2299
a(S'consider'
g204
S'O'
tp2300
a(S'this'
g182
S'O'
tp2301
a(S'a'
g21
S'O'
tp2302
a(S'prologue'
g10
S'O'
tp2303
a(S'.'
S'.'
S'O'
tp2304
aa(lp2305
(S'Thick'
g125
S'O'
tp2306
a(S'flavorful'
g10
S'O'
tp2307
a(S'red'
g44
S'O'
tp2308
a(S'sauces'
g5
g16
tp2309
a(S','
S','
S'O'
tp2310
a(S'buttery'
g10
g16
tp2311
a(S'rich'
g44
g16
tp2312
a(S'piccata'
g10
g16
tp2313
a(S','
S','
S'O'
tp2314
a(S'thick'
g44
g16
tp2315
a(S'greasy'
g10
g16
tp2316
a(S'pizza'
g10
g16
tp2317
a(S'and'
g42
S'O'
tp2318
a(S'chianti'
g10
S'O'
tp2319
a(S'rule'
g10
S'O'
tp2320
a(S'this'
g182
S'O'
tp2321
a(S'roost'
g10
S'O'
tp2322
a(S'.'
S'.'
S'O'
tp2323
aa(lp2324
(S'Probably'
g84
S'O'
tp2325
a(S'the'
g14
S'O'
tp2326
a(S'best'
g106
S'O'
tp2327
a(S'attempt'
g10
S'O'
tp2328
a(S'at'
g309
S'O'
tp2329
a(S'NY'
g125
g16
tp2330
a(S'style'
g1072
S'O'
tp2331
a(S'pizza'
g10
g16
tp2332
a(S'in'
g54
S'O'
tp2333
a(S'San'
S'NNP'
S'O'
tp2334
a(S'Francisco'
S'NNP'
S'O'
tp2335
a(S'!'
S'.'
S'O'
tp2336
aa.