(lp1
(lp2
(S'The'
S'DT'
p3
S'O'
tp4
a(S'pineapple'
S'NN'
p5
S'FOOD'
p6
tp7
a(S'fried'
S'JJ'
p8
g6
tp9
a(S'rice'
g5
g6
tp10
a(S'is'
S'VBZ'
p11
S'O'
tp12
a(S'awesome'
g8
S'O'
tp13
a(S'and'
S'CC'
p14
S'O'
tp15
a(S'the'
S'DT'
p16
S'O'
tp17
a(S'girl'
g5
S'O'
tp18
a(S'behind'
S'IN'
p19
S'O'
tp20
a(S'the'
g16
S'O'
tp21
a(S'counter'
g5
S'O'
tp22
a(S'is'
g11
S'O'
tp23
a(S'so'
S'RB'
p24
S'O'
tp25
a(S'sweet'
g8
S'O'
tp26
a(S'.'
S'.'
S'O'
tp27
a(S'.'
S'.'
S'O'
tp28
a(S'.'
S'.'
S'O'
tp29
aa(lp30
(S'great'
S'JJ'
p31
S'O'
tp32
a(S'bar'
g5
S'O'
tp33
a(S'old'
S'JJ'
p34
S'O'
tp35
a(S'school'
S'NN'
p36
S'O'
tp37
a(S','
S','
S'O'
tp38
a(S'comfy'
S'VBP'
p39
S'O'
tp40
a(S'leather'
S'JJR'
p41
S'O'
tp42
a(S'banquet'
g5
S'O'
tp43
a(S'old'
g34
S'O'
tp44
a(S'school'
g36
S'O'
tp45
a(S'.'
S'.'
S'O'
tp46
a(S'.'
S'.'
S'O'
tp47
a(S'.'
S'.'
S'O'
tp48
a(S'everything'
S'NN'
p49
S'O'
tp50
a(S'down'
S'RP'
p51
S'O'
tp52
a(S'just'
S'RB'
p53
S'O'
tp54
a(S'right'
g24
S'O'
tp55
a(S'.'
S'.'
S'O'
tp56
a(S'.'
S'.'
S'O'
tp57
a(S'.'
S'.'
S'O'
tp58
a(S'nice'
g8
S'O'
tp59
a(S'martini'
g5
S'O'
tp60
a(S'to'
S'TO'
p61
S'O'
tp62
a(S'start'
S'VB'
p63
S'O'
tp64
a(S','
S','
S'O'
tp65
a(S'good'
g8
S'O'
tp66
a(S'wine'
g5
S'O'
tp67
a(S'list'
g5
S'O'
tp68
a(S','
S','
S'O'
tp69
a(S'great'
g31
S'O'
tp70
a(S'steak'
g5
g6
tp71
a(S'!'
S'.'
S'O'
tp72
aa(lp73
(S'My'
S'PRP$'
p74
S'O'
tp75
a(S'wife'
S'NN'
p76
S'O'
tp77
a(S'and'
g14
S'O'
tp78
a(S'I'
S'PRP'
p79
S'O'
tp80
a(S'came'
S'VBD'
p81
S'O'
tp82
a(S'across'
g19
S'O'
tp83
a(S'Gamines'
S'NNS'
p84
S'O'
tp85
a(S'after'
S'IN'
p86
S'O'
tp87
a(S'walking'
S'VBG'
p88
S'O'
tp89
a(S'into'
S'IN'
p90
S'O'
tp91
a(S'a'
S'DT'
p92
S'O'
tp93
a(S'store'
g5
S'O'
tp94
a(S'in'
S'IN'
p95
S'O'
tp96
a(S'the'
g16
S'O'
tp97
a(S'Cow'
S'NNP'
p98
S'O'
tp99
a(S'Hollow'
g98
S'O'
tp100
a(S'area'
S'NN'
p101
S'O'
tp102
a(S'on'
S'IN'
p103
S'O'
tp104
a(S'Union'
S'NNP'
p105
S'O'
tp106
a(S'Street'
S'NNP'
p107
S'O'
tp108
a(S'That'
S'WDT'
p109
S'O'
tp110
a(S'Takes'
S'VBZ'
p111
S'O'
tp112
a(S'the'
g16
S'O'
tp113
a(S'Cake'
g98
S'O'
tp114
a(S'.'
S'.'
S'O'
tp115
aa(lp116
(S'We'
S'PRP'
p117
S'O'
tp118
a(S'usually'
S'RB'
S'O'
tp119
a(S'come'
g39
S'O'
tp120
a(S'here'
S'RB'
p121
S'O'
tp122
a(S'before'
g19
S'O'
tp123
a(S'or'
S'CC'
p124
S'O'
tp125
a(S'after'
g86
S'O'
tp126
a(S'a'
g92
S'O'
tp127
a(S'movie'
S'NN'
S'O'
tp128
a(S'and'
g14
S'O'
tp129
a(S'get'
g63
S'O'
tp130
a(S'the'
g16
S'O'
tp131
a(S'corned'
g8
g6
tp132
a(S'beef'
g5
g6
tp133
a(S','
S','
S'O'
tp134
a(S'mashed'
S'VBD'
p135
g6
tp136
a(S'potatoes'
g84
g6
tp137
a(S'and'
g14
S'O'
tp138
a(S'one'
S'CD'
p139
g6
tp140
a(S'of'
S'IN'
p141
S'O'
tp142
a(S'the'
g16
S'O'
tp143
a(S'twenty'
g8
S'O'
tp144
a(S'bazillion'
g5
S'O'
tp145
a(S'beers'
g84
S'O'
tp146
a(S'they'
S'PRP'
p147
S'O'
tp148
a(S'have'
g39
S'O'
tp149
a(S'on'
g103
S'O'
tp150
a(S'the'
g16
S'O'
tp151
a(S'menu'
g5
S'O'
tp152
a(S'.'
S'.'
S'O'
tp153
aa(lp154
(S'('
S'('
S'O'
tp155
a(S'one'
g139
S'O'
tp156
a(S'end'
g5
S'O'
tp157
a(S'of'
g141
S'O'
tp158
a(S'year'
S'NN'
S'O'
tp159
a(S'Christmas'
g98
S'O'
tp160
a(S'time'
S'NN'
p161
S'O'
tp162
a(S'in'
g95
S'O'
tp163
a(S'the'
g16
S'O'
tp164
a(S'group'
S'NN'
p165
S'O'
tp166
a(S'dining'
g88
S'O'
tp167
a(S'area'
g101
S'O'
tp168
a(S','
S','
S'O'
tp169
a(S'and'
g14
S'O'
tp170
a(S'once'
g24
S'O'
tp171
a(S'near'
g19
S'O'
tp172
a(S'the'
g16
S'O'
tp173
a(S'kitchen'
g5
S'O'
tp174
a(S'area'
g101
S'O'
tp175
a(S'at'
S'IN'
p176
S'O'
tp177
a(S'a'
g92
S'O'
tp178
a(S'long'
g8
S'O'
tp179
a(S'table'
g5
S'O'
tp180
a(S')'
S')'
S'O'
tp181
a(S'The'
g3
S'O'
tp182
a(S'food'
S'NN'
p183
g6
tp184
a(S'is'
g11
S'O'
tp185
a(S'appealing'
g88
S'O'
tp186
a(S'to'
g61
S'O'
tp187
a(S'the'
g16
S'O'
tp188
a(S'eye'
S'NN'
S'O'
tp189
a(S','
S','
S'O'
tp190
a(S'fresh'
g8
S'O'
tp191
a(S'and'
g14
S'O'
tp192
a(S'plentiful'
g8
S'O'
tp193
a(S'in'
g95
S'O'
tp194
a(S'terms'
S'NNS'
S'O'
tp195
a(S'of'
g141
S'O'
tp196
a(S'group'
g165
S'O'
tp197
a(S'family'
S'NN'
p198
S'O'
tp199
a(S'style'
S'NN'
p200
S'O'
tp201
a(S'dining'
g5
S'O'
tp202
a(S'.'
S'.'
S'O'
tp203
aa(lp204
(S'Everywhere'
g24
S'O'
tp205
a(S'else'
g24
S'O'
tp206
a(S'I'
g79
S'O'
tp207
a(S'go'
g39
S'O'
tp208
a(S','
S','
S'O'
tp209
a(S"it's"
g8
S'O'
tp210
a(S'always'
S'RB'
p211
S'O'
tp212
a(S'just'
g53
S'O'
tp213
a(S'under'
S'IN'
S'O'
tp214
a(S'or'
g124
S'O'
tp215
a(S'just'
g53
S'O'
tp216
a(S'over'
g19
S'O'
tp217
a(S'where'
S'WRB'
p218
S'O'
tp219
a(S"I'd"
g98
S'O'
tp220
a(S'like'
g19
S'O'
tp221
a(S'my'
S'PRP$'
p222
S'O'
tp223
a(S'steak'
g5
g6
tp224
a(S'.'
S'.'
S'O'
tp225
aa(lp226
(S'I'
g79
S'O'
tp227
a(S'got'
g135
S'O'
tp228
a(S'the'
g16
S'O'
tp229
a(S'hot'
g8
g6
tp230
a(S'fudge'
g5
g6
tp231
a(S'with'
S'IN'
p232
g6
tp233
a(S'toasted'
g8
g6
tp234
a(S'almond'
g5
g6
tp235
a(S'ice'
g5
g6
tp236
a(S'cream'
g5
g6
tp237
a(S'and'
g14
S'O'
tp238
a(S'I'
g79
S'O'
tp239
a(S'was'
g135
S'O'
tp240
a(S'in'
g95
S'O'
tp241
a(S'heaven'
g5
S'O'
tp242
a(S'.'
S'.'
S'O'
tp243
aa(lp244
(S'The'
g3
S'O'
tp245
a(S'housemade'
g5
g6
tp246
a(S'soup'
g5
g6
tp247
a(S'noodles'
g84
g6
tp248
a(S','
S','
S'O'
tp249
a(S'however'
S'RB'
p250
S'O'
tp251
a(S','
S','
S'O'
tp252
a(S'were'
S'VBD'
p253
S'O'
tp254
a(S'really'
S'RB'
p255
S'O'
tp256
a(S'good'
g8
S'O'
tp257
a(S'!'
S'.'
S'O'
tp258
aa(lp259
(S'best'
S'JJS'
p260
S'O'
tp261
a(S'pizza'
g5
g6
tp262
a(S'in'
g95
S'O'
tp263
a(S'sf'
g5
S'O'
tp264
a(S'so'
g24
S'O'
tp265
a(S'far'
S'RB'
S'O'
tp266
a(S','
S','
S'O'
tp267
a(S'i'
g8
S'O'
tp268
a(S'love'
g39
S'O'
tp269
a(S'new'
S'JJ'
S'O'
tp270
a(S'york'
g5
S'O'
tp271
a(S'style'
g200
S'O'
tp272
a(S'pizza'
g5
g6
tp273
a(S','
S','
S'O'
tp274
a(S'also'
S'RB'
p275
S'O'
tp276
a(S'loving'
g88
S'O'
tp277
a(S'standing'
g88
S'O'
tp278
a(S'and'
g14
S'O'
tp279
a(S'eating'
g88
S'O'
tp280
a(S'them'
S'PRP'
S'O'
tp281
a(S','
S','
S'O'
tp282
a(S'nyc'
g8
S'O'
tp283
a(S'style'
g200
S'O'
tp284
a(S'yo'
g5
S'O'
tp285
a(S'.'
S'.'
S'O'
tp286
a(S'.'
S'.'
S'O'
tp287
a(S'.'
S'.'
S'O'
tp288
a(S'they'
g147
S'O'
tp289
a(S'add'
g39
S'O'
tp290
a(S'the'
g16
S'O'
tp291
a(S'toppings'
g84
g6
tp292
a(S'you'
S'PRP'
p293
S'O'
tp294
a(S'want'
g39
S'O'
tp295
a(S'to'
g61
S'O'
tp296
a(S'the'
g16
S'O'
tp297
a(S'pre'
g5
S'O'
tp298
a(S'baked'
g135
S'O'
tp299
a(S'plain'
g8
S'O'
tp300
a(S'pizza'
g5
g6
tp301
a(S'and'
g14
S'O'
tp302
a(S're'
g63
S'O'
tp303
a(S'bake'
g5
S'O'
tp304
a(S'to'
g61
S'O'
tp305
a(S'order'
S'NN'
p306
S'O'
tp307
a(S','
S','
S'O'
tp308
a(S'so'
g24
S'O'
tp309
a(S"it's"
g8
S'O'
tp310
a(S'always'
g211
S'O'
tp311
a(S'super'
g39
S'O'
tp312
a(S'fresh'
g8
S'O'
tp313
a(S'.'
S'.'
S'O'
tp314
aa(lp315
(S'However'
S'RB'
S'O'
tp316
a(S','
S','
S'O'
tp317
a(S'I'
g79
S'O'
tp318
a(S'was'
g135
S'O'
tp319
a(S'with'
g232
S'O'
tp320
a(S'my'
g222
S'O'
tp321
a(S'two'
S'CD'
p322
S'O'
tp323
a(S'girlfriends'
g84
S'O'
tp324
a(S'and'
g14
S'O'
tp325
a(S'we'
S'PRP'
p326
S'O'
tp327
a(S'were'
g253
S'O'
tp328
a(S'pretty'
g24
S'O'
tp329
a(S'engrossed'
S'VBN'
p330
S'O'
tp331
a(S'in'
g95
S'O'
tp332
a(S'our'
S'PRP$'
p333
S'O'
tp334
a(S'own'
g8
S'O'
tp335
a(S'conversation'
g5
S'O'
tp336
a(S','
S','
S'O'
tp337
a(S'even'
g24
S'O'
tp338
a(S'though'
g19
S'O'
tp339
a(S'I'
g79
S'O'
tp340
a(S'kept'
g135
S'O'
tp341
a(S'stealing'
g88
S'O'
tp342
a(S'glances'
g84
S'O'
tp343
a(S'over'
g19
S'O'
tp344
a(S'to'
g61
S'O'
tp345
a(S'the'
g16
S'O'
tp346
a(S'guy'
g5
S'O'
tp347
a(S'sitting'
g88
S'O'
tp348
a(S'next'
g8
S'O'
tp349
a(S'to'
g61
S'O'
tp350
a(S'me'
S'PRP'
p351
S'O'
tp352
a(S'.'
S'.'
S'O'
tp353
aa(lp354
(S'Great'
g98
S'O'
tp355
a(S'fresh'
g8
g6
tp356
a(S'turkey'
g5
g6
tp357
a(S'sandwich'
g5
g6
tp358
a(S'and'
g14
S'O'
tp359
a(S'open'
g8
g6
tp360
a(S'faced'
g135
g6
tp361
a(S'meatball'
g8
g6
tp362
a(S'sub'
g5
g6
tp363
a(S'.'
S'.'
S'O'
tp364
aa(lp365
(S'Btw'
g98
S'O'
tp366
a(S','
S','
S'O'
tp367
a(S'the'
g16
S'O'
tp368
a(S'2nd'
g139
S'O'
tp369
a(S'cheapest'
g260
S'O'
tp370
a(S'red'
g8
S'O'
tp371
a(S'wine'
g5
S'O'
tp372
a(S'was'
g135
S'O'
tp373
a(S'good'
g8
S'O'
tp374
a(S','
S','
S'O'
tp375
a(S'tasted'
g330
S'O'
tp376
a(S'like'
g19
S'O'
tp377
a(S'200'
S'CD'
S'O'
tp378
a(S'bucks'
g84
S'O'
tp379
a(S'.'
S'.'
S'O'
tp380
aa(lp381
(S'I'
g79
S'O'
tp382
a(S'got'
g135
S'O'
tp383
a(S'the'
g16
S'O'
tp384
a(S'thanksgiving'
g5
g6
tp385
a(S'dinner'
g5
g6
tp386
a(S'('
S'('
S'O'
tp387
a(S'turkey'
g5
g6
tp388
a(S','
S','
S'O'
tp389
a(S'mash'
g5
g6
tp390
a(S'potatoes'
g84
g6
tp391
a(S','
S','
S'O'
tp392
a(S'gravy'
g5
g6
tp393
a(S','
S','
S'O'
tp394
a(S'stuffing'
g88
g6
tp395
a(S')'
S')'
S'O'
tp396
a(S'and'
g14
S'O'
tp397
a(S'they'
g147
S'O'
tp398
a(S'were'
g253
S'O'
tp399
a(S'all'
S'DT'
p400
S'O'
tp401
a(S'so'
g24
S'O'
tp402
a(S'delicious'
g8
S'O'
tp403
a(S'!'
S'.'
S'O'
tp404
a(S'!'
S'.'
S'O'
tp405
a(S'!'
S'.'
S'O'
tp406
aa(lp407
(S'My'
g74
S'O'
tp408
a(S'favorite'
g8
S'O'
tp409
a(S'things'
S'NNS'
p410
S'O'
tp411
a(S'about'
g19
S'O'
tp412
a(S"Mama's"
g98
S'O'
tp413
a(S'.'
S'.'
S'O'
tp414
a(S'.'
S'.'
S'O'
tp415
a(S'.'
S'.'
S'O'
tp416
a(S'the'
g16
S'O'
tp417
a(S'fresh'
g8
S'O'
tp418
a(S'squeezed'
g8
S'O'
tp419
a(S'juice'
g5
S'O'
tp420
a(S','
S','
S'O'
tp421
a(S'strong'
S'JJ'
p422
S'O'
tp423
a(S','
S','
S'O'
tp424
a(S'hot'
g8
S'O'
tp425
a(S','
S','
S'O'
tp426
a(S'tasty'
g8
S'O'
tp427
a(S'coffee'
g5
S'O'
tp428
a(S'and'
g14
S'O'
tp429
a(S'this'
S'DT'
p430
S'O'
tp431
a(S'incredible'
g8
S'O'
tp432
a(S'homemade'
g5
S'O'
tp433
a(S'jelly'
g24
g6
tp434
a(S'!'
S'.'
S'O'
tp435
aa(lp436
(S'The'
g3
S'O'
tp437
a(S'sashimi'
g5
g6
tp438
a(S'are'
S'VBP'
p439
S'O'
tp440
a(S'always'
g211
S'O'
tp441
a(S'fresh'
g8
S'O'
tp442
a(S'.'
S'.'
S'O'
tp443
aa(lp444
(S"Didn't"
g98
S'O'
tp445
a(S'care'
g63
S'O'
tp446
a(S'that'
g19
S'O'
tp447
a(S'much'
g24
S'O'
tp448
a(S'for'
S'IN'
p449
S'O'
tp450
a(S'the'
g16
S'O'
tp451
a(S'Garlic'
g98
g6
tp452
a(S'Bread'
g98
g6
tp453
a(S','
S','
S'O'
tp454
a(S'but'
S'CC'
p455
S'O'
tp456
a(S'edible'
g8
S'O'
tp457
a(S'.'
S'.'
S'O'
tp458
aa(lp459
(S'This'
S'DT'
p460
S'O'
tp461
a(S'was'
g135
S'O'
tp462
a(S'my'
g222
S'O'
tp463
a(S'first'
g8
S'O'
tp464
a(S"Ruth's"
g98
S'O'
tp465
a(S'Chris'
g98
S'O'
tp466
a(S'Steak'
g98
g6
tp467
a(S'House'
S'NNP'
S'O'
tp468
a(S'experience'
g5
S'O'
tp469
a(S','
S','
S'O'
tp470
a(S'and'
g14
S'O'
tp471
a(S'I'
g79
S'O'
tp472
a(S'must'
S'MD'
S'O'
tp473
a(S'say'
g63
S'O'
tp474
a(S','
S','
S'O'
tp475
a(S'it'
S'PRP'
p476
S'O'
tp477
a(S'was'
g135
S'O'
tp478
a(S'lovely'
g24
S'O'
tp479
a(S'.'
S'.'
S'O'
tp480
aa(lp481
(S'Being'
g88
S'O'
tp482
a(S'a'
g92
S'O'
tp483
a(S'meat'
g5
g6
tp484
a(S'junkie'
g5
S'O'
tp485
a(S'carnivore'
g5
S'O'
tp486
a(S','
S','
S'O'
tp487
a(S'this'
g430
S'O'
tp488
a(S'place'
g5
S'O'
tp489
a(S'was'
g135
S'O'
tp490
a(S'a'
g92
S'O'
tp491
a(S'delight'
g5
S'O'
tp492
a(S'.'
S'.'
S'O'
tp493
aa(lp494
(S'First'
g98
S'O'
tp495
a(S'of'
g141
S'O'
tp496
a(S'all'
S'PDT'
p497
S'O'
tp498
a(S'the'
g16
S'O'
tp499
a(S'food'
g183
g6
tp500
a(S'is'
g11
S'O'
tp501
a(S'pretty'
g24
S'O'
tp502
a(S'damn'
g8
S'O'
tp503
a(S'amazing'
g8
S'O'
tp504
a(S','
S','
S'O'
tp505
a(S'and'
g14
S'O'
tp506
a(S'specifically'
g24
S'O'
tp507
a(S'I'
g79
S'O'
tp508
a(S'could'
S'MD'
p509
S'O'
tp510
a(S'live'
g63
S'O'
tp511
a(S'off'
g19
S'O'
tp512
a(S'of'
g141
S'O'
tp513
a(S'their'
S'PRP$'
p514
S'O'
tp515
a(S'hot'
g8
g6
tp516
a(S'chocolate'
g5
g6
tp517
a(S'with'
g232
g6
tp518
a(S'the'
g16
g6
tp519
a(S'lovely'
g8
g6
tp520
a(S'icey'
g5
g6
tp521
a(S'whipped'
g135
g6
tp522
a(S'cream'
g5
g6
tp523
a(S'for'
g449
S'O'
tp524
a(S'the'
g16
S'O'
tp525
a(S'rest'
g5
S'O'
tp526
a(S'of'
g141
S'O'
tp527
a(S'my'
g222
S'O'
tp528
a(S'life'
S'NN'
S'O'
tp529
a(S'.'
S'.'
S'O'
tp530
aa(lp531
(S'The'
g3
S'O'
tp532
a(S'shrimp'
g5
g6
tp533
a(S'were'
g253
S'O'
tp534
a(S'nothing'
S'NN'
S'O'
tp535
a(S'to'
g61
S'O'
tp536
a(S'write'
g63
S'O'
tp537
a(S'home'
g5
S'O'
tp538
a(S'about'
g19
S'O'
tp539
a(S'but'
g455
S'O'
tp540
a(S'this'
g430
S'O'
tp541
a(S'was'
g135
S'O'
tp542
a(S'one'
g139
S'O'
tp543
a(S'of'
g141
S'O'
tp544
a(S'the'
g16
S'O'
tp545
a(S'rare'
g8
S'O'
tp546
a(S'times'
g84
S'O'
tp547
a(S'I'
g79
S'O'
tp548
a(S'enjoyed'
g39
S'O'
tp549
a(S'('
S'('
S'O'
tp550
a(S'however'
g250
S'O'
tp551
a(S'limited'
g135
S'O'
tp552
a(S'a'
g92
S'O'
tp553
a(S'portion'
S'NN'
p554
S'O'
tp555
a(S'I'
g79
S'O'
tp556
a(S'ate'
g39
S'O'
tp557
a(S')'
S')'
S'O'
tp558
a(S'red'
g8
g6
tp559
a(S'peppers'
g84
g6
tp560
a(S'.'
S'.'
S'O'
tp561
aa(lp562
(S'A'
g400
S'O'
tp563
a(S'lil'
g8
S'O'
tp564
a(S'bite'
g5
S'O'
tp565
a(S'of'
g141
S'O'
tp566
a(S'what'
S'WP'
p567
S'O'
tp568
a(S'everyone'
S'NN'
S'O'
tp569
a(S'had'
g135
S'O'
tp570
a(S'to'
g61
S'O'
tp571
a(S'eat'
g63
S'O'
tp572
a(S'.'
S'.'
S'O'
tp573
a(S'.'
S'.'
S'O'
tp574
a(S'.'
S'.'
S'O'
tp575
a(S'.'
S'.'
S'O'
tp576
a(S'and'
g14
S'O'
tp577
a(S'I'
g79
S'O'
tp578
a(S'was'
g135
S'O'
tp579
a(S'in'
g95
S'O'
tp580
a(S'heaven'
g5
S'O'
tp581
a(S'.'
S'.'
S'O'
tp582
a(S'.'
S'.'
S'O'
tp583
a(S'.'
S'.'
S'O'
tp584
a(S'a'
g92
S'O'
tp585
a(S'lil'
g5
S'O'
tp586
a(S'chicken'
g5
g6
tp587
a(S'here'
g121
S'O'
tp588
a(S'.'
S'.'
S'O'
tp589
a(S'.'
S'.'
S'O'
tp590
a(S'.'
S'.'
S'O'
tp591
a(S'.'
S'.'
S'O'
tp592
a(S'a'
g92
S'O'
tp593
a(S'bit'
g5
S'O'
tp594
a(S'of'
g141
S'O'
tp595
a(S'feta'
g5
g6
tp596
a(S'there'
g24
S'O'
tp597
a(S'.'
S'.'
S'O'
tp598
a(S'.'
S'.'
S'O'
tp599
a(S'.'
S'.'
S'O'
tp600
a(S'.'
S'.'
S'O'
tp601
a(S'.'
S'.'
S'O'
tp602
a(S'.'
S'.'
S'O'
tp603
a(S'.'
S'.'
S'O'
tp604
a(S'sweet'
g8
S'O'
tp605
a(S'n'
g24
S'O'
tp606
a(S'glorious'
g8
S'O'
tp607
a(S'grilled'
g330
g6
tp608
a(S'mussels'
g84
g6
tp609
a(S'and'
g14
S'O'
tp610
a(S'shrimp'
g5
g6
tp611
a(S'.'
S'.'
S'O'
tp612
a(S'.'
S'.'
S'O'
tp613
a(S'.'
S'.'
S'O'
tp614
a(S'.'
S'.'
S'O'
tp615
a(S'.'
S'.'
S'O'
tp616
a(S'.'
S'.'
S'O'
tp617
a(S'and'
g14
S'O'
tp618
a(S"can't"
g8
S'O'
tp619
a(S'forget'
g63
S'O'
tp620
a(S'those'
S'DT'
p621
S'O'
tp622
a(S'lamb'
g8
g6
tp623
a(S'riblets'
g84
g6
tp624
a(S'.'
S'.'
S'O'
tp625
a(S'.'
S'.'
S'O'
tp626
a(S'.'
S'.'
S'O'
tp627
a(S'OMG'
S'UH'
p628
S'O'
tp629
a(S'!'
S'.'
S'O'
tp630
aa(lp631
(S'For'
S'IN'
p632
S'O'
tp633
a(S'a'
g92
S'O'
tp634
a(S'starter'
g5
S'O'
tp635
a(S','
S','
S'O'
tp636
a(S'we'
g326
S'O'
tp637
a(S'ordered'
g135
S'O'
tp638
a(S'the'
g16
S'O'
tp639
a(S'soup'
g5
g6
tp640
a(S'of'
g141
S'O'
tp641
a(S'the'
g16
S'O'
tp642
a(S'evening'
g88
S'O'
tp643
a(S'a'
g92
S'O'
tp644
a(S'roasted'
g8
g6
tp645
a(S'corn'
S'NN'
p646
g6
tp647
a(S'bisque'
g5
g6
tp648
a(S'and'
g14
S'O'
tp649
a(S'the'
g16
S'O'
tp650
a(S'risotto'
g5
g6
tp651
a(S'croquettes'
g84
g6
tp652
a(S'.'
S'.'
S'O'
tp653
aa(lp654
(S'They'
S'PRP'
p655
S'O'
tp656
a(S'have'
g39
S'O'
tp657
a(S'many'
S'JJ'
p658
S'O'
tp659
a(S'different'
S'JJ'
p660
S'O'
tp661
a(S'flavors'
g84
S'O'
tp662
a(S'of'
g141
S'O'
tp663
a(S'hot'
g8
g6
tp664
a(S'sauce'
g5
g6
tp665
a(S'line'
S'NN'
S'O'
tp666
a(S'up'
g19
S'O'
tp667
a(S'agains'
g84
S'O'
tp668
a(S'the'
g16
S'O'
tp669
a(S'wall'
g5
S'O'
tp670
a(S','
S','
S'O'
tp671
a(S'kinda'
g63
S'O'
tp672
a(S'cool'
g8
S'O'
tp673
a(S'decoration'
g5
S'O'
tp674
a(S'.'
S'.'
S'O'
tp675
aa(lp676
(S'Well'
g24
S'O'
tp677
a(S','
S','
S'O'
tp678
a(S'Im'
g98
S'O'
tp679
a(S'sure'
g135
S'O'
tp680
a(S'many'
g658
S'O'
tp681
a(S'of'
g141
S'O'
tp682
a(S'you'
g293
S'O'
tp683
a(S"wouldn't"
g39
S'O'
tp684
a(S'expect'
g63
S'O'
tp685
a(S'much'
g8
S'O'
tp686
a(S'from'
S'IN'
p687
S'O'
tp688
a(S'fried'
g8
g6
tp689
a(S'catfish'
g5
g6
tp690
a(S','
S','
S'O'
tp691
a(S'but'
g455
S'O'
tp692
a(S'these'
S'DT'
S'O'
tp693
a(S'little'
g8
S'O'
tp694
a(S'buggers'
g84
S'O'
tp695
a(S'were'
g253
S'O'
tp696
a(S'phenomenal'
g8
S'O'
tp697
a(S'.'
S'.'
S'O'
tp698
aa(lp699
(S'Love'
g63
S'O'
tp700
a(S'the'
g16
S'O'
tp701
a(S'chicken'
g5
g6
tp702
a(S'satay'
g5
g6
tp703
a(S','
S','
S'O'
tp704
a(S'MUST'
g98
S'O'
tp705
a(S'HAVE'
g39
S'O'
tp706
a(S'the'
g16
S'O'
tp707
a(S'pineapple'
g5
g6
tp708
a(S'rice'
g5
g6
tp709
a(S'('
S'('
S'O'
tp710
a(S'HEAVEN'
g98
S'O'
tp711
a(S')'
S')'
S'O'
tp712
a(S'we'
g326
S'O'
tp713
a(S'always'
g211
S'O'
tp714
a(S'order'
g306
S'O'
tp715
a(S'the'
g16
S'O'
tp716
a(S'fish'
g5
g6
tp717
a(S'.'
S'.'
S'O'
tp718
a(S'.'
S'.'
S'O'
tp719
a(S'.'
S'.'
S'O'
tp720
a(S'yummy'
g5
S'O'
tp721
a(S'!'
S'.'
S'O'
tp722
aa(lp723
(S'The'
g3
S'O'
tp724
a(S'Busto'
g98
g6
tp725
a(S'Salad'
g98
g6
tp726
a(S'is'
g11
S'O'
tp727
a(S'BOMB'
g98
S'O'
tp728
a(S'!'
S'.'
S'O'
tp729
a(S'!'
S'.'
S'O'
tp730
a(S'!'
S'.'
S'O'
tp731
a(S'!'
S'.'
S'O'
tp732
aa(lp733
(S'But'
S'CC'
p734
S'O'
tp735
a(S'its'
g74
S'O'
tp736
a(S'not'
S'RB'
p737
S'O'
tp738
a(S'just'
g53
S'O'
tp739
a(S'the'
g16
S'O'
tp740
a(S'pizza'
g5
g6
tp741
a(S'its'
g74
S'O'
tp742
a(S'the'
g16
S'O'
tp743
a(S'atmosphere'
g5
S'O'
tp744
a(S'in'
g95
S'O'
tp745
a(S'the'
g16
S'O'
tp746
a(S'place'
g5
S'O'
tp747
a(S'and'
g14
S'O'
tp748
a(S'the'
g16
S'O'
tp749
a(S'great'
g31
S'O'
tp750
a(S'staff'
S'NN'
S'O'
tp751
a(S'that'
g109
S'O'
tp752
a(S'made'
g135
S'O'
tp753
a(S'it'
g476
S'O'
tp754
a(S'all'
g400
S'O'
tp755
a(S'such'
g497
S'O'
tp756
a(S'a'
g92
S'O'
tp757
a(S'pleasant'
g5
S'O'
tp758
a(S'and'
g14
S'O'
tp759
a(S'satisfying'
g88
S'O'
tp760
a(S'experience'
g5
S'O'
tp761
a(S'every'
S'DT'
S'O'
tp762
a(S'time'
g161
S'O'
tp763
a(S'I'
g79
S'O'
tp764
a(S'eat'
g39
S'O'
tp765
a(S'there'
g24
S'O'
tp766
a(S'.'
S'.'
S'O'
tp767
aa(lp768
(S'I'
g79
S'O'
tp769
a(S'def'
g39
S'O'
tp770
a(S'will'
S'MD'
p771
S'O'
tp772
a(S'come'
g63
S'O'
tp773
a(S'back'
g24
S'O'
tp774
a(S'to'
g61
S'O'
tp775
a(S'satisfy'
g63
S'O'
tp776
a(S'my'
g222
S'O'
tp777
a(S'shrimp'
g8
g6
tp778
a(S'cravings'
g84
S'O'
tp779
a(S'and'
g14
S'O'
tp780
a(S'maybe'
g24
S'O'
tp781
a(S'ordered'
g135
S'O'
tp782
a(S'a'
g92
S'O'
tp783
a(S'bottle'
g8
S'O'
tp784
a(S'drink'
g5
S'O'
tp785
a(S'instead'
S'RB'
S'O'
tp786
a(S'!'
S'.'
S'O'
tp787
aa(lp788
(S'The'
g3
S'O'
tp789
a(S'corn'
g646
g6
tp790
a(S'beef'
g5
g6
tp791
a(S'is'
g11
S'O'
tp792
a(S'salty'
g5
S'O'
tp793
a(S','
S','
S'O'
tp794
a(S'but'
g455
S'O'
tp795
a(S'very'
g24
S'O'
tp796
a(S'good'
g8
S'O'
tp797
a(S'.'
S'.'
S'O'
tp798
aa(lp799
(S'Their'
g74
S'O'
tp800
a(S'focaccia'
g8
g6
tp801
a(S'style'
g200
S'O'
tp802
a(S'is'
g11
S'O'
tp803
a(S'not'
g737
S'O'
tp804
a(S'my'
g222
S'O'
tp805
a(S'favorite'
g8
S'O'
tp806
a(S','
S','
S'O'
tp807
a(S'more'
g41
S'O'
tp808
a(S'of'
g141
S'O'
tp809
a(S'a'
g92
S'O'
tp810
a(S'flatbread'
g5
g6
tp811
a(S','
S','
S'O'
tp812
a(S'but'
g455
S'O'
tp813
a(S'overall'
g8
S'O'
tp814
a(S'everything'
g49
S'O'
tp815
a(S'was'
g135
S'O'
tp816
a(S'great'
g31
S'O'
tp817
a(S'.'
S'.'
S'O'
tp818
aa(lp819
(S'One'
g139
S'O'
tp820
a(S'of'
g141
S'O'
tp821
a(S'my'
g222
S'O'
tp822
a(S'favorites'
g84
S'O'
tp823
a(S'is'
g11
S'O'
tp824
a(S'their'
g514
S'O'
tp825
a(S'special'
g8
S'O'
tp826
a(S'on'
g103
S'O'
tp827
a(S'the'
g16
S'O'
tp828
a(S'board'
S'NN'
S'O'
tp829
a(S'I'
g79
S'O'
tp830
a(S'think'
g39
S'O'
tp831
a(S"it's"
g24
S'O'
tp832
a(S'called'
g330
S'O'
tp833
a(S'the'
g16
S'O'
tp834
a(S'The'
g3
g6
tp835
a(S'Lady'
g98
g6
tp836
a(S'Monkey'
g98
g6
tp837
a(S'Roll'
g98
g6
tp838
a(S'.'
S'.'
S'O'
tp839
a(S'.'
S'.'
S'O'
tp840
a(S'.'
S'.'
S'O'
tp841
a(S'.'
S'.'
S'O'
tp842
a(S'.'
S'.'
S'O'
tp843
a(S'its'
g74
S'O'
tp844
a(S"banana's"
g5
g6
tp845
a(S'with'
g232
S'O'
tp846
a(S'cream'
g5
g6
tp847
a(S'cheese'
g5
g6
tp848
a(S'and'
g14
S'O'
tp849
a(S'fish'
g5
g6
tp850
a(S'.'
S'.'
S'O'
tp851
a(S'.'
S'.'
S'O'
tp852
a(S'.'
S'.'
S'O'
tp853
a(S'.'
S'.'
S'O'
tp854
a(S'.'
S'.'
S'O'
tp855
a(S'incredible'
g8
S'O'
tp856
a(S'!'
S'.'
S'O'
tp857
aa(lp858
(S'I'
g79
S'O'
tp859
a(S'have'
g39
S'O'
tp860
a(S'worked'
g330
S'O'
tp861
a(S'in'
g95
S'O'
tp862
a(S'the'
g16
S'O'
tp863
a(S'neighborhood'
g5
S'O'
tp864
a(S'for'
g449
S'O'
tp865
a(S'6'
S'CD'
S'O'
tp866
a(S'years'
S'NNS'
p867
S'O'
tp868
a(S'and'
g14
S'O'
tp869
a(S'miss'
g63
S'O'
tp870
a(S'the'
g16
S'O'
tp871
a(S'days'
S'NNS'
p872
S'O'
tp873
a(S'of'
g141
S'O'
tp874
a(S'5'
S'CD'
S'O'
tp875
a(S'thai'
g5
g6
tp876
a(S'or'
g124
S'O'
tp877
a(S'burrito'
g5
g6
tp878
a(S'.'
S'.'
S'O'
tp879
aa(lp880
(S'It'
S'PRP'
p881
S'O'
tp882
a(S'was'
g135
S'O'
tp883
a(S'definitely'
g24
S'O'
tp884
a(S'obvious'
g8
S'O'
tp885
a(S'that'
g19
S'O'
tp886
a(S'this'
g430
S'O'
tp887
a(S'fish'
g5
g6
tp888
a(S'was'
g135
S'O'
tp889
a(S'fresh'
g8
S'O'
tp890
a(S','
S','
S'O'
tp891
a(S'and'
g14
S'O'
tp892
a(S'not'
g737
S'O'
tp893
a(S'all'
g400
S'O'
tp894
a(S'fishy'
g84
S'O'
tp895
a(S'like'
g19
S'O'
tp896
a(S'some'
S'DT'
p897
S'O'
tp898
a(S'places'
g84
S'O'
tp899
a(S'('
S'('
S'O'
tp900
a(S'I'
g79
S'O'
tp901
a(S"won't"
g39
S'O'
tp902
a(S'name'
g24
S'O'
tp903
a(S'any'
S'DT'
S'O'
tp904
a(S'names'
g84
S'O'
tp905
a(S')'
S')'
S'O'
tp906
a(S'.'
S'.'
S'O'
tp907
aa(lp908
(S'The'
g3
S'O'
tp909
a(S'dishes'
g84
S'O'
tp910
a(S'are'
g439
S'O'
tp911
a(S'wonderful'
g8
S'O'
tp912
a(S'The'
g3
S'O'
tp913
a(S'San'
S'NNP'
p914
g6
tp915
a(S'Marino'
g98
g6
tp916
a(S'yummy'
g98
S'O'
tp917
a(S'risotto'
g135
g6
tp918
a(S'dish'
g8
g6
tp919
a(S'with'
g232
g6
tp920
a(S'shrimp'
g5
g6
tp921
a(S'.'
S'.'
S'O'
tp922
aa(lp923
(S'It'
g881
S'O'
tp924
a(S'was'
g135
S'O'
tp925
a(S'truly'
g24
S'O'
tp926
a(S'made'
g330
S'O'
tp927
a(S'by'
S'IN'
p928
S'O'
tp929
a(S'the'
g16
S'O'
tp930
a(S'spicy'
g5
g6
tp931
a(S'housemade'
g5
g6
tp932
a(S'sambal'
g5
g6
tp933
a(S';'
S':'
S'O'
tp934
a(S'the'
g16
S'O'
tp935
a(S'sauce'
g5
g6
tp936
a(S'was'
g135
S'O'
tp937
a(S'so'
g24
S'O'
tp938
a(S'delicious'
g8
S'O'
tp939
a(S'and'
g14
S'O'
tp940
a(S'flavorful'
g8
S'O'
tp941
a(S'!'
S'.'
S'O'
tp942
aa(lp943
(S'I'
g79
S'O'
tp944
a(S'am'
S'VBP'
p945
S'O'
tp946
a(S'happy'
g8
S'O'
tp947
a(S'to'
g61
S'O'
tp948
a(S'the'
g16
S'O'
tp949
a(S'point'
g5
S'O'
tp950
a(S'of'
g141
S'O'
tp951
a(S'ecstasy'
g5
S'O'
tp952
a(S'when'
S'WRB'
S'O'
tp953
a(S'I'
g79
S'O'
tp954
a(S'think'
g39
S'O'
tp955
a(S'about'
g19
S'O'
tp956
a(S'Korean'
g98
g6
tp957
a(S'BBQ'
g98
g6
tp958
a(S'and'
g14
S'O'
tp959
a(S'late'
g8
S'O'
tp960
a(S'night'
S'NN'
S'O'
tp961
a(S'eating'
g5
S'O'
tp962
a(S'.'
S'.'
S'O'
tp963
aa(lp964
(S'Its'
S'PRP$'
S'O'
tp965
a(S'worth'
g5
S'O'
tp966
a(S'making'
g88
S'O'
tp967
a(S'a'
g92
S'O'
tp968
a(S'trip'
S'NN'
S'O'
tp969
a(S'to'
g61
S'O'
tp970
a(S'the'
g16
S'O'
tp971
a(S'city'
S'NN'
p972
S'O'
tp973
a(S'just'
g53
S'O'
tp974
a(S'to'
g61
S'O'
tp975
a(S'have'
g63
S'O'
tp976
a(S'a'
g92
S'O'
tp977
a(S'bowl'
g5
g6
tp978
a(S'of'
g141
g6
tp979
a(S'the'
g16
g6
tp980
a(S'soup'
g5
g6
tp981
a(S'!'
S'.'
S'O'
tp982
aa(lp983
(S'The'
g3
S'O'
tp984
a(S'desserts'
g84
S'O'
tp985
a(S'here'
g121
S'O'
tp986
a(S'are'
g439
S'O'
tp987
a(S'out'
g19
S'O'
tp988
a(S'of'
g141
S'O'
tp989
a(S'control'
g5
S'O'
tp990
a(S','
S','
S'O'
tp991
a(S'the'
g16
S'O'
tp992
a(S'display'
g5
S'O'
tp993
a(S'case'
S'NN'
S'O'
tp994
a(S'is'
g11
S'O'
tp995
a(S'packed'
g330
S'O'
tp996
a(S'with'
g232
S'O'
tp997
a(S'house'
S'NN'
g6
tp998
a(S'made'
g330
g6
tp999
a(S'chocolates'
g84
g6
tp1000
a(S','
S','
S'O'
tp1001
a(S'cakes'
g84
g6
tp1002
a(S'and'
g14
S'O'
tp1003
a(S'other'
S'JJ'
S'O'
tp1004
a(S'tasty'
g8
S'O'
tp1005
a(S'treats'
g84
S'O'
tp1006
a(S'.'
S'.'
S'O'
tp1007
aa(lp1008
(S'i'
g5
S'O'
tp1009
a(S'asked'
g135
S'O'
tp1010
a(S'for'
g449
S'O'
tp1011
a(S'medium'
g5
S'O'
tp1012
a(S'rare'
g8
S'O'
tp1013
a(S'but'
g455
S'O'
tp1014
a(S'i'
g8
S'O'
tp1015
a(S'think'
g39
S'O'
tp1016
a(S'it'
g476
S'O'
tp1017
a(S'came'
g81
S'O'
tp1018
a(S'out'
g51
S'O'
tp1019
a(S'kind'
S'NN'
S'O'
tp1020
a(S'of'
g141
S'O'
tp1021
a(S'medium'
g5
S'O'
tp1022
a(S'.'
S'.'
S'O'
tp1023
aa(lp1024
(S'I'
g79
S'O'
tp1025
a(S'got'
g135
S'O'
tp1026
a(S'my'
g222
S'O'
tp1027
a(S'cheese'
g5
g6
tp1028
a(S'and'
g14
S'O'
tp1029
a(S'my'
g222
S'O'
tp1030
a(S'meats'
g84
g6
tp1031
a(S'and'
g14
S'O'
tp1032
a(S'sidled'
g135
S'O'
tp1033
a(S'over'
g24
S'O'
tp1034
a(S'to'
g61
S'O'
tp1035
a(S'the'
g16
S'O'
tp1036
a(S'register'
g5
S'O'
tp1037
a(S'where'
g218
S'O'
tp1038
a(S'the'
g16
S'O'
tp1039
a(S'lady'
g5
S'O'
tp1040
a(S'behind'
g19
S'O'
tp1041
a(S'it'
g476
S'O'
tp1042
a(S'remarked'
g135
S'O'
tp1043
a(S'on'
g103
S'O'
tp1044
a(S'how'
S'WRB'
p1045
S'O'
tp1046
a(S'great'
g31
S'O'
tp1047
a(S'my'
g222
S'O'
tp1048
a(S'choices'
g84
S'O'
tp1049
a(S'were'
g253
S'O'
tp1050
a(S'.'
S'.'
S'O'
tp1051
aa(lp1052
(S'ordered'
g330
S'O'
tp1053
a(S'beef'
g5
g6
tp1054
a(S'salad'
g111
g6
tp1055
a(S'a'
g92
S'O'
tp1056
a(S'little'
g8
S'O'
tp1057
a(S'on'
g103
S'O'
tp1058
a(S'the'
g16
S'O'
tp1059
a(S'small'
S'JJ'
p1060
S'O'
tp1061
a(S'side'
g5
S'O'
tp1062
a(S'but'
g455
S'O'
tp1063
a(S'SO'
g98
S'O'
tp1064
a(S'DELISH'
g98
S'O'
tp1065
a(S'FRESH'
g98
S'O'
tp1066
a(S'FLAVORFUL'
g98
S'O'
tp1067
a(S'.'
S'.'
S'O'
tp1068
aa(lp1069
(S'Love'
g63
S'O'
tp1070
a(S'its'
g74
S'O'
tp1071
a(S'appetizers'
g84
S'O'
tp1072
a(S'and'
g14
S'O'
tp1073
a(S'flavorful'
g8
S'O'
tp1074
a(S'lamb'
g5
g6
tp1075
a(S'.'
S'.'
S'O'
tp1076
aa(lp1077
(S'I'
g79
S'O'
tp1078
a(S'prefer'
g39
S'O'
tp1079
a(S"Ruth's"
g98
S'O'
tp1080
a(S'over'
g19
S'O'
tp1081
a(S"Harris'"
g98
S'O'
tp1082
a(S'and'
g14
S'O'
tp1083
a(S'even'
g24
S'O'
tp1084
a(S'HOPR'
g98
S'O'
tp1085
a(S'.'
S'.'
S'O'
tp1086
aa(lp1087
(S'I'
g79
S'O'
tp1088
a(S'had'
g135
S'O'
tp1089
a(S'a'
g92
S'O'
tp1090
a(S'Chicken'
g98
g6
tp1091
a(S'ceaser'
g5
g6
tp1092
a(S'salad'
g5
g6
tp1093
a(S'which'
g109
S'O'
tp1094
a(S'was'
g135
S'O'
tp1095
a(S'pretty'
g24
S'O'
tp1096
a(S'heavy'
g8
S'O'
tp1097
a(S'on'
g103
S'O'
tp1098
a(S'the'
g16
S'O'
tp1099
a(S'chicken'
g5
g6
tp1100
a(S','
S','
S'O'
tp1101
a(S'I'
g79
S'O'
tp1102
a(S"couldn't"
g39
S'O'
tp1103
a(S'finish'
g63
S'O'
tp1104
a(S'it'
g476
S'O'
tp1105
a(S'.'
S'.'
S'O'
tp1106
aa(lp1107
(S'It'
g881
S'O'
tp1108
a(S'has'
S'VBZ'
S'O'
tp1109
a(S'been'
S'VBN'
p1110
S'O'
tp1111
a(S'fairly'
S'RB'
S'O'
tp1112
a(S'regular'
g8
S'O'
tp1113
a(S'with'
g232
S'O'
tp1114
a(S"it's"
g5
S'O'
tp1115
a(S'fare'
g5
S'O'
tp1116
a(S'.'
S'.'
S'O'
tp1117
aa(lp1118
(S'I'
g79
S'O'
tp1119
a(S'am'
g945
S'O'
tp1120
a(S'a'
g92
S'O'
tp1121
a(S'BIG'
g98
S'O'
tp1122
a(S'fan'
g5
S'O'
tp1123
a(S'of'
g141
S'O'
tp1124
a(S'good'
g8
S'O'
tp1125
a(S'ice'
g5
S'O'
tp1126
a(S'.'
S'.'
S'O'
tp1127
aa(lp1128
(S'For'
g632
S'O'
tp1129
a(S'my'
g222
S'O'
tp1130
a(S'fellow'
g8
S'O'
tp1131
a(S'vegetarians'
g84
S'O'
tp1132
a(S','
S','
S'O'
tp1133
a(S'there'
S'EX'
S'O'
tp1134
a(S'is'
g11
S'O'
tp1135
a(S'also'
g275
S'O'
tp1136
a(S'a'
g92
S'O'
tp1137
a(S'good'
g8
S'O'
tp1138
a(S'selection'
g5
S'O'
tp1139
a(S'of'
g141
S'O'
tp1140
a(S'fish'
g8
g6
tp1141
a(S'and'
g14
S'O'
tp1142
a(S'salads'
g84
g6
tp1143
a(S'.'
S'.'
S'O'
tp1144
aa(lp1145
(S'A'
g400
S'O'
tp1146
a(S'little'
g8
S'O'
tp1147
a(S'salty'
g5
S'O'
tp1148
a(S'for'
g449
S'O'
tp1149
a(S'my'
g222
S'O'
tp1150
a(S'taste'
g5
S'O'
tp1151
a(S'but'
g455
S'O'
tp1152
a(S'perfect'
g8
S'O'
tp1153
a(S'portion'
g554
S'O'
tp1154
a(S'and'
g14
S'O'
tp1155
a(S'vegetables'
g84
g6
tp1156
a(S'still'
S'RB'
p1157
S'O'
tp1158
a(S'firm'
g39
S'O'
tp1159
a(S'.'
S'.'
S'O'
tp1160
aa(lp1161
(S'More'
S'RBR'
p1162
S'O'
tp1163
a(S'o'
g8
S'O'
tp1164
a(S'v'
g5
S'O'
tp1165
a(S'e'
g5
S'O'
tp1166
a(S'r'
g5
S'O'
tp1167
a(S','
S','
S'O'
tp1168
a(S'my'
g222
S'O'
tp1169
a(S'r'
g5
S'O'
tp1170
a(S'e'
g5
S'O'
tp1171
a(S'v'
g5
S'O'
tp1172
a(S'ie'
g8
S'O'
tp1173
a(S'w'
g5
S'O'
tp1174
a(S'of'
g141
S'O'
tp1175
a(S'th'
g5
S'O'
tp1176
a(S'is'
g11
S'O'
tp1177
a(S'place'
g5
S'O'
tp1178
a(S'had'
g135
S'O'
tp1179
a(S'been'
g1110
S'O'
tp1180
a(S'd'
g8
S'O'
tp1181
a(S'e'
g5
S'O'
tp1182
a(S'tled'
g135
S'O'
tp1183
a(S't'
g8
S'O'
tp1184
a(S'w'
g5
S'O'
tp1185
a(S'ice'
g5
S'O'
tp1186
a(S'.'
S'.'
S'O'
tp1187
aa(lp1188
(S'Chow'
g98
g6
tp1189
a(S'mein'
g5
g6
tp1190
a(S'is'
g11
S'O'
tp1191
a(S'probably'
S'RB'
p1192
S'O'
tp1193
a(S'the'
g16
S'O'
tp1194
a(S'least'
g260
S'O'
tp1195
a(S'oh'
g8
S'O'
tp1196
a(S'my'
g222
S'O'
tp1197
a(S'it'
g476
S'O'
tp1198
a(S'is'
g11
S'O'
tp1199
a(S'how'
g1045
S'O'
tp1200
a(S'much'
g8
S'O'
tp1201
a(S'again'
S'RB'
S'O'
tp1202
a(S'item'
g5
S'O'
tp1203
a(S'on'
g103
S'O'
tp1204
a(S'the'
g16
S'O'
tp1205
a(S'menu'
g5
S'O'
tp1206
a(S'.'
S'.'
S'O'
tp1207
aa.