(lp1
(lp2
(S'We'
S'PRP'
p3
S'O'
tp4
a(S'started'
S'VBD'
p5
S'O'
tp6
a(S'with'
S'IN'
p7
S'O'
tp8
a(S'the'
S'DT'
p9
S'O'
tp10
a(S'cold'
S'JJ'
p11
S'FOOD'
p12
tp13
a(S'shrimp'
S'NN'
p14
g12
tp15
a(S'and'
S'CC'
p16
S'O'
tp17
a(S'sweet'
g11
g12
tp18
a(S'fruit'
g14
g12
tp19
a(S'lettuce'
g14
g12
tp20
a(S'platter'
g14
g12
tp21
a(S','
S','
S'O'
tp22
a(S'very'
S'RB'
p23
S'O'
tp24
a(S'refreshing'
S'VBG'
p25
S'O'
tp26
a(S'.'
S'.'
S'O'
tp27
aa(lp28
(S'Everything'
g14
S'O'
tp29
a(S'we'
S'PRP'
p30
S'O'
tp31
a(S'ordered'
g5
S'O'
tp32
a(S'came'
S'VBD'
p33
S'O'
tp34
a(S'to'
S'TO'
p35
S'O'
tp36
a(S'the'
g9
S'O'
tp37
a(S'table'
g11
S'O'
tp38
a(S'piping'
g14
S'O'
tp39
a(S'hot'
g11
S'O'
tp40
a(S'and'
g16
S'O'
tp41
a(S'in'
S'IN'
p42
S'O'
tp43
a(S'generous'
g11
S'O'
tp44
a(S'portions'
S'NNS'
p45
S'O'
tp46
a(S'that'
S'WDT'
p47
S'O'
tp48
a(S'were'
S'VBD'
p49
S'O'
tp50
a(S'well'
g23
S'O'
tp51
a(S'worth'
S'IN'
p52
S'O'
tp53
a(S'the'
g9
S'O'
tp54
a(S'low'
g11
S'O'
tp55
a(S'menu'
g14
S'O'
tp56
a(S'prices'
S'NNS'
S'O'
tp57
a(S'.'
S'.'
S'O'
tp58
aa(lp59
(S'Read'
S'VB'
p60
S'O'
tp61
a(S'other'
S'JJ'
p62
S'O'
tp63
a(S'reviews'
g45
S'O'
tp64
a(S'for'
S'IN'
p65
S'O'
tp66
a(S'a'
S'DT'
p67
S'O'
tp68
a(S'full'
S'JJ'
p69
S'O'
tp70
a(S'description'
g14
S'O'
tp71
a(S','
S','
S'O'
tp72
a(S'I'
S'PRP'
p73
S'O'
tp74
a(S'had'
g5
S'O'
tp75
a(S'the'
g9
S'O'
tp76
a(S'quail'
g14
g12
tp77
a(S'egg'
g14
g12
tp78
a(S'uni'
g11
g12
tp79
a(S'spoon'
g14
g12
tp80
a(S'and'
g16
S'O'
tp81
a(S'all'
S'DT'
p82
S'O'
tp83
a(S'I'
g73
S'O'
tp84
a(S'can'
S'MD'
p85
S'O'
tp86
a(S'say'
g60
S'O'
tp87
a(S'is'
S'VBZ'
p88
S'O'
tp89
a(S'that'
g52
S'O'
tp90
a(S'it'
S'PRP'
p91
S'O'
tp92
a(S'was'
g5
S'O'
tp93
a(S'truffle'
g11
g12
tp94
a(S'oil'
S'NN'
g12
tp95
a(S'heaven'
g14
S'O'
tp96
a(S'.'
S'.'
S'O'
tp97
aa(lp98
(S'The'
S'DT'
p99
S'O'
tp100
a(S'Skate'
S'NNP'
p101
g12
tp102
a(S'fish'
g14
g12
tp103
a(S'was'
g5
S'O'
tp104
a(S'perfect'
g11
S'O'
tp105
a(S'on'
S'IN'
p106
S'O'
tp107
a(S'its'
S'PRP$'
p108
S'O'
tp109
a(S'own'
g11
S'O'
tp110
a(S'.'
S'.'
S'O'
tp111
aa(lp112
(S'The'
g99
S'O'
tp113
a(S'first'
g11
S'O'
tp114
a(S'time'
S'NN'
p115
S'O'
tp116
a(S','
S','
S'O'
tp117
a(S'I'
g73
S'O'
tp118
a(S'had'
g5
S'O'
tp119
a(S'the'
g9
S'O'
tp120
a(S'Mozarella'
g101
g12
tp121
a(S','
S','
S'O'
tp122
a(S'basil'
g14
g12
tp123
a(S'tomato'
g14
g12
tp124
a(S'omelette'
g14
g12
tp125
a(S'.'
S'.'
S'O'
tp126
aa(lp127
(S'Crowded'
S'VBN'
p128
S'O'
tp129
a(S','
S','
S'O'
tp130
a(S'loud'
g11
S'O'
tp131
a(S','
S','
S'O'
tp132
a(S'family'
S'NN'
p133
S'O'
tp134
a(S'style'
S'NN'
p135
S'O'
tp136
a(S'eating'
g14
S'O'
tp137
a(S'.'
S'.'
S'O'
tp138
aa(lp139
(S'I'
g73
S'O'
tp140
a(S'ordered'
g5
S'O'
tp141
a(S'the'
g9
S'O'
tp142
a(S'pork'
g14
g12
tp143
a(S'belly'
g23
g12
tp144
a(S'appetizer'
g23
S'O'
tp145
a(S'.'
S'.'
S'O'
tp146
aa(lp147
(S'Best'
S'JJS'
p148
S'O'
tp149
a(S'pizza'
g14
g12
tp150
a(S'in'
g42
S'O'
tp151
a(S'The'
g99
S'O'
tp152
a(S'City'
S'NNP'
S'O'
tp153
a(S'.'
S'.'
S'O'
tp154
aa(lp155
(S'We'
g3
S'O'
tp156
a(S'also'
S'RB'
p157
S'O'
tp158
a(S'had'
g5
S'O'
tp159
a(S'the'
g9
S'O'
tp160
a(S'lamb'
g14
g12
tp161
a(S'meatballs'
g45
g12
tp162
a(S','
S','
S'O'
tp163
a(S'which'
g47
S'O'
tp164
a(S'were'
g49
S'O'
tp165
a(S'good'
g11
S'O'
tp166
a(S'and'
g16
S'O'
tp167
a(S'plentiful'
g11
S'O'
tp168
a(S','
S','
S'O'
tp169
a(S'but'
S'CC'
p170
S'O'
tp171
a(S'I'
g73
S'O'
tp172
a(S'think'
S'VBP'
p173
S'O'
tp174
a(S'I'
g73
S'O'
tp175
a(S'was'
g5
S'O'
tp176
a(S'full'
g69
S'O'
tp177
a(S'off'
g52
S'O'
tp178
a(S'the'
g9
S'O'
tp179
a(S'fondue'
g11
g12
tp180
a(S'and'
g16
S'O'
tp181
a(S'bread'
g14
g12
tp182
a(S'.'
S'.'
S'O'
tp183
aa(lp184
(S'I'
g73
S'O'
tp185
a(S'probably'
S'RB'
S'O'
tp186
a(S'should'
S'MD'
S'O'
tp187
a(S'not'
S'RB'
p188
S'O'
tp189
a(S'tell'
g60
S'O'
tp190
a(S'you'
S'PRP'
p191
S'O'
tp192
a(S'this'
S'DT'
p193
S'O'
tp194
a(S'because'
g52
S'O'
tp195
a(S'they'
S'PRP'
p196
S'O'
tp197
a(S'run'
g173
S'O'
tp198
a(S'out'
g52
S'O'
tp199
a(S'of'
S'IN'
p200
S'O'
tp201
a(S'them'
S'PRP'
p202
S'O'
tp203
a(S'unless'
S'IN'
p204
S'O'
tp205
a(S'you'
g191
S'O'
tp206
a(S'get'
g173
S'O'
tp207
a(S'there'
g23
S'O'
tp208
a(S'early'
g23
S'O'
tp209
a(S','
S','
S'O'
tp210
a(S'but'
g170
S'O'
tp211
a(S'seeing'
g25
S'O'
tp212
a(S'as'
g52
S'O'
tp213
a(S"I'm"
g101
S'O'
tp214
a(S'feeling'
g25
S'O'
tp215
a(S'generous'
g11
S'O'
tp216
a(S'today'
S'NN'
S'O'
tp217
a(S','
S','
S'O'
tp218
a(S"I'll"
g101
S'O'
tp219
a(S'let'
g14
S'O'
tp220
a(S'you'
g191
S'O'
tp221
a(S'in'
g42
S'O'
tp222
a(S'on'
g106
S'O'
tp223
a(S'a'
g67
S'O'
tp224
a(S'little'
g11
S'O'
tp225
a(S'secret'
g11
S'O'
tp226
a(S'the'
g9
S'O'
tp227
a(S'ham'
g14
g12
tp228
a(S'amp'
g14
S'O'
tp229
a(S';'
S':'
S'O'
tp230
a(S'cheese'
g11
g12
tp231
a(S'croissant'
g14
g12
tp232
a(S'from'
S'IN'
p233
S'O'
tp234
a(S'Cafe'
g101
S'O'
tp235
a(S'Madeleine'
g101
S'O'
tp236
a(S'is'
g88
S'O'
tp237
a(S'like'
g52
S'O'
tp238
a(S'a'
g67
S'O'
tp239
a(S'little'
g11
S'O'
tp240
a(S'piece'
g14
S'O'
tp241
a(S'of'
g200
S'O'
tp242
a(S'heaven'
g14
S'O'
tp243
a(S'.'
S'.'
S'O'
tp244
aa(lp245
(S'They'
S'PRP'
p246
S'O'
tp247
a(S'made'
g5
S'O'
tp248
a(S'a'
g67
S'O'
tp249
a(S'mistake'
g14
S'O'
tp250
a(S'on'
g106
S'O'
tp251
a(S'our'
S'PRP$'
S'O'
tp252
a(S'order'
S'NN'
p253
S'O'
tp254
a(S'and'
g16
S'O'
tp255
a(S'accidentally'
g23
S'O'
tp256
a(S'brought'
g5
S'O'
tp257
a(S'out'
S'RP'
p258
S'O'
tp259
a(S'chicken'
S'NN'
S'FOOD'
tp260
a(S'tikka'
g14
g12
tp261
a(S'masala'
g14
g12
tp262
a(S'but'
g170
S'O'
tp263
a(S'we'
g30
S'O'
tp264
a(S'ate'
g173
S'O'
tp265
a(S'without'
S'IN'
S'O'
tp266
a(S'realizing'
g25
S'O'
tp267
a(S'they'
g196
S'O'
tp268
a(S'got'
g5
S'O'
tp269
a(S'it'
g91
S'O'
tp270
a(S'wrong'
g11
S'O'
tp271
a(S'.'
S'.'
S'O'
tp272
aa(lp273
(S'This'
S'DT'
S'O'
tp274
a(S"ain't"
S'VBZ'
p275
S'O'
tp276
a(S'your'
S'PRP$'
p277
S'O'
tp278
a(S"granny's"
g14
S'O'
tp279
a(S'salad'
g11
g12
tp280
a(S'bar'
g14
g12
tp281
a(S'.'
S'.'
S'O'
tp282
aa(lp283
(S'I'
g73
S'O'
tp284
a(S'mean'
g173
S'O'
tp285
a(S','
S','
S'O'
tp286
a(S'you'
g191
S'O'
tp287
a(S'order'
g253
S'O'
tp288
a(S'saag'
g45
g12
tp289
a(S'paneer'
g14
g12
tp290
a(S','
S','
S'O'
tp291
a(S'it'
g91
S'O'
tp292
a(S'tastes'
g275
S'O'
tp293
a(S'like'
g52
S'O'
tp294
a(S'spinach'
g14
g12
tp295
a(S','
S','
S'O'
tp296
a(S'which'
g47
S'O'
tp297
a(S"doesn't"
g173
S'O'
tp298
a(S'really'
S'RB'
p299
S'O'
tp300
a(S'happen'
g60
S'O'
tp301
a(S'most'
g148
S'O'
tp302
a(S'everywhere'
g23
S'O'
tp303
a(S'else'
g23
S'O'
tp304
a(S'.'
S'.'
S'O'
tp305
aa(lp306
(S'On'
S'IN'
S'O'
tp307
a(S'the'
g9
S'O'
tp308
a(S'way'
S'NN'
p309
S'O'
tp310
a(S'back'
g23
S'O'
tp311
a(S'home'
g14
S'O'
tp312
a(S'from'
g233
S'O'
tp313
a(S'work'
g14
S'O'
tp314
a(S','
S','
S'O'
tp315
a(S'my'
S'PRP$'
p316
S'O'
tp317
a(S'parents'
g45
S'O'
tp318
a(S'had'
g5
S'O'
tp319
a(S'the'
g9
S'O'
tp320
a(S'most'
S'RBS'
S'O'
tp321
a(S'awesome'
g11
S'O'
tp322
a(S'whim'
g14
S'O'
tp323
a(S'to'
g35
S'O'
tp324
a(S'have'
g60
S'O'
tp325
a(S'steak'
g14
g12
tp326
a(S'for'
g65
S'O'
tp327
a(S'dinner'
g14
S'O'
tp328
a(S'b'
g45
S'O'
tp329
a(S'c'
g173
S'O'
tp330
a(S'they'
g196
S'O'
tp331
a(S'were'
g49
S'O'
tp332
a(S'too'
S'RB'
p333
S'O'
tp334
a(S'tired'
g128
S'O'
tp335
a(S'to'
g35
S'O'
tp336
a(S'cook'
g60
S'O'
tp337
a(S'.'
S'.'
S'O'
tp338
a(S'.'
S'.'
S'O'
tp339
a(S'.'
S'.'
S'O'
tp340
a(S'and'
g16
S'O'
tp341
a(S'within'
S'IN'
p342
S'O'
tp343
a(S'minutes'
S'NNS'
S'O'
tp344
a(S'we'
g30
S'O'
tp345
a(S'found'
g5
S'O'
tp346
a(S'ourselves'
g91
S'O'
tp347
a(S'at'
S'IN'
p348
S'O'
tp349
a(S"Harris'"
g101
S'O'
tp350
a(S'XD'
g101
S'O'
tp351
a(S'Simple'
g101
S'O'
tp352
a(S','
S','
S'O'
tp353
a(S'Clean'
g101
S'O'
tp354
a(S','
S','
S'O'
tp355
a(S'Classic'
g101
S'O'
tp356
a(S'these'
S'DT'
p357
S'O'
tp358
a(S'words'
S'NNS'
S'O'
tp359
a(S'immediately'
S'RB'
S'O'
tp360
a(S'came'
g33
S'O'
tp361
a(S'to'
g35
S'O'
tp362
a(S'mind'
g60
S'O'
tp363
a(S'as'
g52
S'O'
tp364
a(S'I'
g73
S'O'
tp365
a(S'walked'
g5
S'O'
tp366
a(S'into'
S'IN'
p367
S'O'
tp368
a(S'the'
g9
S'O'
tp369
a(S'place'
g14
S'O'
tp370
a(S'and'
g16
S'O'
tp371
a(S'we'
g30
S'O'
tp372
a(S'were'
g49
S'O'
tp373
a(S'seated'
g128
S'O'
tp374
a(S'right'
g23
S'O'
tp375
a(S'away'
g23
S'O'
tp376
a(S'in'
g42
S'O'
tp377
a(S'the'
g9
S'O'
tp378
a(S'piano'
g14
S'O'
tp379
a(S'lounge'
g14
S'O'
tp380
a(S'with'
g7
S'O'
tp381
a(S'live'
g11
S'O'
tp382
a(S'jazz'
g14
S'O'
tp383
a(S'playing'
g14
S'O'
tp384
a(S'.'
S'.'
S'O'
tp385
aa(lp386
(S'Very'
g23
S'O'
tp387
a(S'casual'
g11
S'O'
tp388
a(S'and'
g16
S'O'
tp389
a(S'eccletic'
g11
S'O'
tp390
a(S'decor'
g14
S'O'
tp391
a(S','
S','
S'O'
tp392
a(S'but'
g170
S'O'
tp393
a(S'very'
g23
S'O'
tp394
a(S'cozy'
g23
S'O'
tp395
a(S';'
S':'
S'O'
tp396
a(S'the'
g9
S'O'
tp397
a(S'kind'
S'NN'
S'O'
tp398
a(S'of'
g200
S'O'
tp399
a(S'place'
g14
S'O'
tp400
a(S'where'
S'WRB'
p401
S'O'
tp402
a(S'you'
g191
S'O'
tp403
a(S'want'
g173
S'O'
tp404
a(S'to'
g35
S'O'
tp405
a(S'hand'
S'NN'
p406
S'O'
tp407
a(S'out'
g258
S'O'
tp408
a(S'with'
g7
S'O'
tp409
a(S'a'
g67
S'O'
tp410
a(S'good'
g11
S'O'
tp411
a(S'friend'
g14
S'O'
tp412
a(S'over'
g52
S'O'
tp413
a(S'a'
g67
S'O'
tp414
a(S'nice'
g11
S'O'
tp415
a(S'glass'
g14
S'O'
tp416
a(S'of'
g200
S'O'
tp417
a(S'wine'
g14
S'O'
tp418
a(S'.'
S'.'
S'O'
tp419
aa(lp420
(S'for'
g65
S'O'
tp421
a(S'dessert'
g14
S'O'
tp422
a(S','
S','
S'O'
tp423
a(S'the'
g9
S'O'
tp424
a(S'chocolate'
g14
g12
tp425
a(S'cake'
g14
g12
tp426
a(S'with'
g7
g12
tp427
a(S'creme'
g11
g12
tp428
a(S'fraiche'
g14
g12
tp429
a(S'.'
S'.'
S'O'
tp430
aa(lp431
(S'We'
g3
S'O'
tp432
a(S'were'
g49
S'O'
tp433
a(S'really'
g299
S'O'
tp434
a(S'appealed'
g128
S'O'
tp435
a(S'by'
S'IN'
p436
S'O'
tp437
a(S'the'
g9
S'O'
tp438
a(S'name'
g14
S'O'
tp439
a(S'of'
g200
S'O'
tp440
a(S'the'
g9
S'O'
tp441
a(S'roll'
S'NN'
S'FOOD'
tp442
a(S'so'
g52
S'O'
tp443
a(S'we'
g30
S'O'
tp444
a(S'decided'
g5
S'O'
tp445
a(S'to'
g35
S'O'
tp446
a(S'order'
g253
S'O'
tp447
a(S'it'
g91
S'O'
tp448
a(S'.'
S'.'
S'O'
tp449
aa(lp450
(S"It's"
g101
S'O'
tp451
a(S'basically'
g23
S'O'
tp452
a(S'stacked'
g5
g12
tp453
a(S','
S','
g12
tp454
a(S'boneless'
g14
g12
tp455
a(S'pork'
g14
g12
tp456
a(S'chops'
g45
g12
tp457
a(S'on'
g106
g12
tp458
a(S'a'
g67
g12
tp459
a(S'sourdough'
g11
g12
tp460
a(S'roll'
g14
g12
tp461
a(S'.'
S'.'
S'O'
tp462
aa(lp463
(S'THE'
g82
S'O'
tp464
a(S'STEAK'
g14
g12
tp465
a(S'!'
S'.'
S'O'
tp466
a(S'!'
S'.'
S'O'
tp467
a(S'!'
S'.'
S'O'
tp468
a(S'!'
S'.'
S'O'
tp469
aa(lp470
(S'Also'
S'RB'
S'O'
tp471
a(S','
S','
S'O'
tp472
a(S'it'
g91
S'O'
tp473
a(S'is'
g88
S'O'
tp474
a(S'a'
g67
S'O'
tp475
a(S'bit'
g14
S'O'
tp476
a(S'messy'
g11
S'O'
tp477
a(S'my'
g316
S'O'
tp478
a(S'wrap'
g14
g12
tp479
a(S'dissolved'
g5
S'O'
tp480
a(S'into'
g367
S'O'
tp481
a(S'a'
g67
S'O'
tp482
a(S'platter'
g14
S'O'
tp483
a(S'of'
g200
S'O'
tp484
a(S'beef'
g14
g12
tp485
a(S','
S','
S'O'
tp486
a(S'lettuce'
g14
g12
tp487
a(S','
S','
S'O'
tp488
a(S'and'
g16
S'O'
tp489
a(S'wrap'
g60
g12
tp490
a(S'very'
g23
S'O'
tp491
a(S'quickly'
S'RB'
S'O'
tp492
a(S'('
S'('
S'O'
tp493
a(S'and'
g16
S'O'
tp494
a(S'despite'
S'IN'
S'O'
tp495
a(S'the'
g9
S'O'
tp496
a(S'weird'
g11
S'O'
tp497
a(S'looks'
g275
S'O'
tp498
a(S'I'
g73
S'O'
tp499
a(S'got'
g5
S'O'
tp500
a(S'from'
g233
S'O'
tp501
a(S"passerby's"
g14
S'O'
tp502
a(S','
S','
S'O'
tp503
a(S'it'
g91
S'O'
tp504
a(S'was'
g5
S'O'
tp505
a(S'still'
S'RB'
p506
S'O'
tp507
a(S'delicious'
g11
S'O'
tp508
a(S')'
S')'
S'O'
tp509
a(S'.'
S'.'
S'O'
tp510
aa(lp511
(S'so'
g23
S'O'
tp512
a(S'real'
S'JJ'
S'O'
tp513
a(S','
S','
S'O'
tp514
a(S'so'
g23
S'O'
tp515
a(S'fresh'
g11
S'O'
tp516
a(S'.'
S'.'
S'O'
tp517
a(S'.'
S'.'
S'O'
tp518
a(S'.'
S'.'
S'O'
tp519
a(S'and'
g16
S'O'
tp520
a(S'so'
g23
S'O'
tp521
a(S'clean'
g11
S'O'
tp522
a(S'clean'
g14
S'O'
tp523
a(S'!'
S'.'
S'O'
tp524
aa(lp525
(S'My'
g108
S'O'
tp526
a(S'boyfriend'
g14
S'O'
tp527
a(S'got'
g5
S'O'
tp528
a(S'the'
g9
S'O'
tp529
a(S'best'
g148
S'O'
tp530
a(S'portobello'
g14
g12
tp531
a(S'mushroom'
g14
g12
tp532
a(S'I'
g73
S'O'
tp533
a(S'have'
g173
S'O'
tp534
a(S'ever'
S'RB'
p535
S'O'
tp536
a(S'tasted'
g128
S'O'
tp537
a(S'in'
g42
S'O'
tp538
a(S'my'
g316
S'O'
tp539
a(S'life'
S'NN'
p540
S'O'
tp541
a(S'.'
S'.'
S'O'
tp542
aa(lp543
(S'My'
g108
S'O'
tp544
a(S'favorite'
g11
S'O'
tp545
a(S"'must"
S'POS'
S'O'
tp546
a(S'past'
g52
S'O'
tp547
a(S'the'
g9
S'O'
tp548
a(S"test'"
g14
S'O'
tp549
a(S'dish'
g14
S'O'
tp550
a(S'in'
g42
S'O'
tp551
a(S'any'
S'DT'
S'O'
tp552
a(S'Italian'
g11
S'O'
tp553
a(S'restaurant'
g14
S'O'
tp554
a(S'is'
g88
S'O'
tp555
a(S'the'
g9
S'O'
tp556
a(S'Chicken'
g101
g12
tp557
a(S'Parmigiana'
g101
g12
tp558
a(S'.'
S'.'
S'O'
tp559
aa(lp560
(S'I'
g73
S'O'
tp561
a(S'recommend'
g173
S'O'
tp562
a(S'the'
g9
S'O'
tp563
a(S'braised'
g11
g12
tp564
a(S'green'
g11
g12
tp565
a(S'beans'
g45
g12
tp566
a(S'.'
S'.'
S'O'
tp567
aa(lp568
(S'The'
g99
S'O'
tp569
a(S'steak'
g14
g12
tp570
a(S'tartar'
g14
g12
tp571
a(S'is'
g88
S'O'
tp572
a(S'one'
S'CD'
p573
S'O'
tp574
a(S'of'
g200
S'O'
tp575
a(S'my'
g316
S'O'
tp576
a(S'favorite'
g11
S'O'
tp577
a(S'appetizers'
g45
S'O'
tp578
a(S'and'
g16
S'O'
tp579
a(S'I'
g73
S'O'
tp580
a(S'recently'
S'RB'
S'O'
tp581
a(S'tried'
g5
S'O'
tp582
a(S'the'
g9
S'O'
tp583
a(S'steamed'
g128
g12
tp584
a(S'clams'
g45
g12
tp585
a(S'which'
g47
S'O'
tp586
a(S'was'
g5
S'O'
tp587
a(S'quite'
g23
S'O'
tp588
a(S'good'
g11
S'O'
tp589
a(S'!'
S'.'
S'O'
tp590
aa(lp591
(S'The'
g99
S'O'
tp592
a(S'horchata'
g14
g12
tp593
a(S'was'
g5
S'O'
tp594
a(S'different'
S'JJ'
S'O'
tp595
a(S'because'
g52
S'O'
tp596
a(S'its'
g108
S'O'
tp597
a(S'dark'
g14
S'O'
tp598
a(S'like'
g52
S'O'
tp599
a(S'chocolate'
g14
g12
tp600
a(S'and'
g16
S'O'
tp601
a(S'I'
g73
S'O'
tp602
a(S'was'
g5
S'O'
tp603
a(S'expecting'
g25
S'O'
tp604
a(S'it'
g91
S'O'
tp605
a(S'to'
g35
S'O'
tp606
a(S'be'
S'VB'
p607
S'O'
tp608
a(S'white'
S'JJ'
p609
S'O'
tp610
a(S'.'
S'.'
S'O'
tp611
aa(lp612
(S'I'
g73
S'O'
tp613
a(S'love'
g173
S'O'
tp614
a(S','
S','
S'O'
tp615
a(S'love'
g173
S'O'
tp616
a(S','
S','
S'O'
tp617
a(S'love'
g173
S'O'
tp618
a(S'when'
S'WRB'
p619
S'O'
tp620
a(S'the'
g9
S'O'
tp621
a(S'food'
S'NN'
p622
S'O'
tp623
a(S'still'
g506
S'O'
tp624
a(S'tastes'
g275
S'O'
tp625
a(S'good'
g11
S'O'
tp626
a(S'all'
g82
S'O'
tp627
a(S'mixed'
g11
S'O'
tp628
a(S'together'
g23
S'O'
tp629
a(S'at'
g348
S'O'
tp630
a(S'the'
g9
S'O'
tp631
a(S'end'
g14
S'O'
tp632
a(S'of'
g200
S'O'
tp633
a(S'the'
g9
S'O'
tp634
a(S'meal'
g14
S'O'
tp635
a(S'and'
g16
S'O'
tp636
a(S'these'
g357
S'O'
tp637
a(S'dishes'
g45
S'O'
tp638
a(S'did'
S'VBD'
S'O'
tp639
a(S'not'
g188
S'O'
tp640
a(S'disappoint'
g14
S'O'
tp641
a(S'.'
S'.'
S'O'
tp642
aa(lp643
(S'The'
g99
S'O'
tp644
a(S'kids'
g45
S'O'
tp645
a(S'had'
g5
S'O'
tp646
a(S'a'
g67
S'O'
tp647
a(S'grilled'
g128
g12
tp648
a(S'cheese'
g14
g12
tp649
a(S'to'
g35
S'O'
tp650
a(S'share'
S'NN'
S'O'
tp651
a(S'.'
S'.'
S'O'
tp652
aa(lp653
(S'and'
g16
S'O'
tp654
a(S'the'
g9
S'O'
tp655
a(S'ambiance'
g14
S'O'
tp656
a(S'made'
g5
S'O'
tp657
a(S'me'
S'PRP'
p658
S'O'
tp659
a(S'feel'
g60
S'O'
tp660
a(S'like'
g52
S'O'
tp661
a(S'I'
g73
S'O'
tp662
a(S'was'
g5
S'O'
tp663
a(S'at'
g348
S'O'
tp664
a(S'a'
g67
S'O'
tp665
a(S'feast'
g14
S'O'
tp666
a(S'set'
g14
S'O'
tp667
a(S'for'
g65
S'O'
tp668
a(S'a'
g67
S'O'
tp669
a(S'king'
g14
S'O'
tp670
a(S'('
S'('
S'O'
tp671
a(S'with'
g7
S'O'
tp672
a(S'a'
g67
S'O'
tp673
a(S'big'
S'JJ'
S'O'
tp674
a(S'tofu'
g14
g12
tp675
a(S'pig'
g14
g12
tp676
a(S'with'
g7
S'O'
tp677
a(S'an'
g82
S'O'
tp678
a(S'apple'
S'NN'
g12
tp679
a(S'in'
g42
S'O'
tp680
a(S'its'
g108
S'O'
tp681
a(S'mouth'
g14
S'O'
tp682
a(S')'
S')'
S'O'
tp683
a(S'.'
S'.'
S'O'
tp684
aa(lp685
(S'The'
g99
S'O'
tp686
a(S'dough'
g14
g12
tp687
a(S'kiiiiiiiinda'
g14
S'O'
tp688
a(S'reminds'
g275
S'O'
tp689
a(S'me'
g658
S'O'
tp690
a(S'of'
g200
S'O'
tp691
a(S'Arizmendi'
g101
g12
tp692
a(S'pizza'
g14
g12
tp693
a(S'chewy'
g14
S'O'
tp694
a(S'.'
S'.'
S'O'
tp695
a(S'.'
S'.'
S'O'
tp696
a(S'but'
g170
S'O'
tp697
a(S'not'
g188
S'O'
tp698
a(S'exactly'
g23
S'O'
tp699
a(S'.'
S'.'
S'O'
tp700
aa(lp701
(S'It'
S'PRP'
p702
S'O'
tp703
a(S'tasted'
g5
S'O'
tp704
a(S'like'
g52
S'O'
tp705
a(S'a'
g67
S'O'
tp706
a(S'pizza'
g14
g12
tp707
a(S'made'
g128
S'O'
tp708
a(S'out'
g52
S'O'
tp709
a(S'of'
g200
S'O'
tp710
a(S'eggs'
g45
g12
tp711
a(S'.'
S'.'
S'O'
tp712
aa(lp713
(S'It'
g702
S'O'
tp714
a(S'was'
g5
S'O'
tp715
a(S'all'
g82
S'O'
tp716
a(S'really'
g299
S'O'
tp717
a(S'tasty'
g11
S'O'
tp718
a(S'but'
g170
S'O'
tp719
a(S'I'
g73
S'O'
tp720
a(S'think'
g173
S'O'
tp721
a(S'the'
g9
S'O'
tp722
a(S'stand'
g14
S'O'
tp723
a(S'out'
g258
S'O'
tp724
a(S'dish'
g14
S'O'
tp725
a(S'here'
S'RB'
S'O'
tp726
a(S'was'
g5
S'O'
tp727
a(S'the'
g9
S'O'
tp728
a(S'beef'
g14
g12
tp729
a(S','
S','
S'O'
tp730
a(S'fasho'
g14
S'O'
tp731
a(S'!'
S'.'
S'O'
tp732
aa(lp733
(S')'
S')'
S'O'
tp734
a(S','
S','
S'O'
tp735
a(S'two'
S'CD'
p736
S'O'
tp737
a(S'Thai'
g101
S'O'
tp738
a(S'Iced'
g101
S'O'
tp739
a(S'Teas'
g101
S'O'
tp740
a(S','
S','
S'O'
tp741
a(S'white'
g609
g12
tp742
a(S'rice'
g14
g12
tp743
a(S'for'
g65
S'O'
tp744
a(S'four'
S'CD'
S'O'
tp745
a(S','
S','
S'O'
tp746
a(S'and'
g16
S'O'
tp747
a(S'on'
g106
S'O'
tp748
a(S'nights'
g45
S'O'
tp749
a(S'when'
g619
S'O'
tp750
a(S"we're"
g14
S'O'
tp751
a(S'feeling'
g25
S'O'
tp752
a(S'expecially'
g23
S'O'
tp753
a(S'crazy'
g60
S'O'
tp754
a(S'the'
g9
S'O'
tp755
a(S'FBI'
g101
g12
tp756
a(S'.'
S'.'
S'O'
tp757
aa(lp758
(S'Super'
g101
S'O'
tp759
a(S'fresh'
g14
S'O'
tp760
a(S'and'
g16
S'O'
tp761
a(S'delish'
g14
S'O'
tp762
a(S'!'
S'.'
S'O'
tp763
aa(lp764
(S'If'
S'IN'
p765
S'O'
tp766
a(S'you'
g191
S'O'
tp767
a(S'like'
g173
S'O'
tp768
a(S'new'
S'JJ'
S'O'
tp769
a(S'things'
S'NNS'
S'O'
tp770
a(S','
S','
S'O'
tp771
a(S'try'
g60
S'O'
tp772
a(S'the'
g9
S'O'
tp773
a(S'stone'
g14
S'O'
tp774
a(S'filtered'
g5
S'O'
tp775
a(S'coffee'
g14
S'O'
tp776
a(S';'
S':'
S'O'
tp777
a(S"it's"
S'CC'
S'O'
tp778
a(S'extremely'
S'RB'
S'O'
tp779
a(S'strong'
S'JJ'
p780
S'O'
tp781
a(S','
S','
S'O'
tp782
a(S'though'
g23
S'O'
tp783
a(S','
S','
S'O'
tp784
a(S'so'
g23
S'O'
tp785
a(S'unless'
g204
S'O'
tp786
a(S"you've"
g14
S'O'
tp787
a(S'had'
g5
S'O'
tp788
a(S'it'
g91
S'O'
tp789
a(S'before'
g52
S'O'
tp790
a(S','
S','
S'O'
tp791
a(S'try'
g60
S'O'
tp792
a(S'the'
g9
S'O'
tp793
a(S'sweetened'
g11
S'O'
tp794
a(S'version'
S'NN'
S'O'
tp795
a(S'.'
S'.'
S'O'
tp796
aa(lp797
(S'The'
g99
S'O'
tp798
a(S'sizzling'
g14
g12
tp799
a(S'rice'
g14
g12
tp800
a(S'soup'
g14
g12
tp801
a(S'is'
g88
S'O'
tp802
a(S'also'
g157
S'O'
tp803
a(S'a'
g67
S'O'
tp804
a(S'winner'
g14
S'O'
tp805
a(S'.'
S'.'
S'O'
tp806
aa(lp807
(S'Tip'
g14
S'O'
tp808
a(S'If'
g765
S'O'
tp809
a(S'you'
g191
S'O'
tp810
a(S'do'
g173
S'O'
tp811
a(S'not'
g188
S'O'
tp812
a(S'like'
g52
S'O'
tp813
a(S'a'
g67
S'O'
tp814
a(S'lot'
g14
S'O'
tp815
a(S'of'
g200
S'O'
tp816
a(S'dressing'
g25
g12
tp817
a(S','
S','
S'O'
tp818
a(S'ask'
g14
S'O'
tp819
a(S'for'
g65
S'O'
tp820
a(S'half'
g14
S'O'
tp821
a(S'dressing'
g25
g12
tp822
a(S'since'
S'IN'
S'O'
tp823
a(S"they're"
g14
S'O'
tp824
a(S'pretty'
g23
S'O'
tp825
a(S'generous'
g11
S'O'
tp826
a(S'with'
g7
S'O'
tp827
a(S'it'
g91
S'O'
tp828
a(S'.'
S'.'
S'O'
tp829
aa(lp830
(S'The'
g99
S'O'
tp831
a(S'tender'
g14
g12
tp832
a(S'buffalo'
g14
g12
tp833
a(S'strip'
g14
g12
tp834
a(S'was'
g5
S'O'
tp835
a(S'cooked'
g128
S'O'
tp836
a(S'to'
g35
S'O'
tp837
a(S'a'
g67
S'O'
tp838
a(S'perfect'
g11
S'O'
tp839
a(S'medium'
g14
S'O'
tp840
a(S'rare'
g14
S'O'
tp841
a(S'but'
g170
S'O'
tp842
a(S'my'
g316
S'O'
tp843
a(S'tastebuds'
g45
S'O'
tp844
a(S'tried'
g128
S'O'
tp845
a(S'their'
S'PRP$'
p846
S'O'
tp847
a(S'hardest'
g14
S'O'
tp848
a(S'('
S'('
S'O'
tp849
a(S'and'
g16
S'O'
tp850
a(S'failed'
g5
S'O'
tp851
a(S')'
S')'
S'O'
tp852
a(S'to'
g35
S'O'
tp853
a(S'find'
g60
S'O'
tp854
a(S'the'
g9
S'O'
tp855
a(S'lemongrass'
g14
g12
tp856
a(S'and'
g16
S'O'
tp857
a(S'ginger'
g14
g12
tp858
a(S'that'
g47
S'O'
tp859
a(S'were'
g49
S'O'
tp860
a(S'supposedly'
g23
S'O'
tp861
a(S'in'
g42
S'O'
tp862
a(S'the'
g9
S'O'
tp863
a(S'sauce'
g14
g12
tp864
a(S'.'
S'.'
S'O'
tp865
aa(lp866
(S'I'
g73
S'O'
tp867
a(S'always'
S'RB'
p868
S'O'
tp869
a(S'get'
g173
S'O'
tp870
a(S'the'
g9
S'O'
tp871
a(S'egg'
g14
g12
tp872
a(S'puffs'
g45
g12
tp873
a(S'.'
S'.'
S'O'
tp874
aa(lp875
(S'Ginger'
g101
g12
tp876
a(S'steamed'
g5
g12
tp877
a(S'chicken'
g128
g12
tp878
a(S'breast'
g23
g12
tp879
a(S'atop'
g11
g12
tp880
a(S'rice'
g14
g12
tp881
a(S'noodles'
g45
g12
tp882
a(S','
S','
S'O'
tp883
a(S'flavorful'
g11
S'O'
tp884
a(S'chicken'
g14
g12
tp885
a(S'stock'
S'NN'
g12
tp886
a(S'.'
S'.'
S'O'
tp887
aa(lp888
(S'we'
g30
S'O'
tp889
a(S'had'
g5
S'O'
tp890
a(S'the'
g9
S'O'
tp891
a(S'french'
g11
g12
tp892
a(S'toast'
g14
g12
tp893
a(S','
S','
S'O'
tp894
a(S'the'
g9
S'O'
tp895
a(S'sorbets'
g45
g12
tp896
a(S','
S','
S'O'
tp897
a(S'and'
g16
S'O'
tp898
a(S'the'
g9
S'O'
tp899
a(S'chocolate'
g14
g12
tp900
a(S'cake'
g14
g12
tp901
a(S'with'
g7
g12
tp902
a(S'coconut'
g14
g12
tp903
a(S'sorbet'
g14
g12
tp904
a(S'.'
S'.'
S'O'
tp905
aa(lp906
(S'But'
S'CC'
p907
S'O'
tp908
a(S'they'
g196
S'O'
tp909
a(S'are'
S'VBP'
p910
S'O'
tp911
a(S'very'
g23
S'O'
tp912
a(S'friendly'
g11
S'O'
tp913
a(S'and'
g16
S'O'
tp914
a(S'helpful'
g11
S'O'
tp915
a(S'and'
g16
S'O'
tp916
a(S"it's"
g60
S'O'
tp917
a(S'a'
g67
S'O'
tp918
a(S'great'
S'JJ'
p919
S'O'
tp920
a(S'place'
g14
S'O'
tp921
a(S'to'
g35
S'O'
tp922
a(S'get'
g60
S'O'
tp923
a(S'a'
g67
S'O'
tp924
a(S'perfectly'
g23
S'O'
tp925
a(S'lunch'
g14
S'O'
tp926
a(S'or'
S'CC'
p927
S'O'
tp928
a(S'snack'
g14
g12
tp929
a(S'sized'
g128
g12
tp930
a(S'roll'
g14
g12
tp931
a(S'of'
g200
g12
tp932
a(S'kim'
g14
g12
tp933
a(S'bap'
g14
g12
tp934
a(S'for'
g65
S'O'
tp935
a(S'about'
g23
S'O'
tp936
a(S'3'
g573
S'O'
tp937
a(S'.'
S'.'
S'O'
tp938
a(S'25'
S'CD'
S'O'
tp939
a(S'.'
S'.'
S'O'
tp940
aa(lp941
(S'It'
g702
S'O'
tp942
a(S'made'
g5
S'O'
tp943
a(S'me'
g658
S'O'
tp944
a(S'calculate'
g60
S'O'
tp945
a(S'how'
S'WRB'
p946
S'O'
tp947
a(S'little'
g11
S'O'
tp948
a(S'it'
g91
S'O'
tp949
a(S'cost'
g14
S'O'
tp950
a(S'in'
g42
S'O'
tp951
a(S'ingredients'
g45
S'O'
tp952
a(S'('
S'('
S'O'
tp953
a(S'2'
S'CD'
S'O'
tp954
a(S'roma'
g14
g12
tp955
a(S'tomatos'
g14
g12
tp956
a(S'and'
g16
S'O'
tp957
a(S'half'
S'PDT'
p958
S'O'
tp959
a(S'a'
g67
S'O'
tp960
a(S'chinese'
g11
g12
tp961
a(S'eggplant'
g14
g12
tp962
a(S'.'
S'.'
S'O'
tp963
a(S'.'
S'.'
S'O'
tp964
a(S'.'
S'.'
S'O'
tp965
a(S'some'
S'DT'
p966
S'O'
tp967
a(S'steam'
g14
S'O'
tp968
a(S'.'
S'.'
S'O'
tp969
a(S'.'
S'.'
S'O'
tp970
a(S'.'
S'.'
S'O'
tp971
a(S')'
S')'
S'O'
tp972
a(S'3'
g573
S'O'
tp973
a(S'5'
S'CD'
p974
S'O'
tp975
a(S','
S','
S'O'
tp976
a(S'for'
g65
S'O'
tp977
a(S'the'
g9
S'O'
tp978
a(S'eggplant'
g14
g12
tp979
a(S'!'
S'.'
S'O'
tp980
aa(lp981
(S'what'
S'WP'
S'O'
tp982
a(S'we'
g30
S'O'
tp983
a(S'loved'
g5
S'O'
tp984
a(S'even'
g23
S'O'
tp985
a(S'more'
S'RBR'
S'O'
tp986
a(S'was'
g5
S'O'
tp987
a(S'the'
g9
S'O'
tp988
a(S'bbq'
g14
g12
tp989
a(S'turkey'
g14
g12
tp990
a(S'sloppy'
g11
g12
tp991
a(S'joe'
g14
g12
tp992
a(S'.'
S'.'
S'O'
tp993
aa(lp994
(S'What'
S'WP'
S'O'
tp995
a(S'Cha'
g101
S'O'
tp996
a(S'Ya'
g101
S'O'
tp997
a(S'DOES'
g101
S'O'
tp998
a(S'serve'
g60
S'O'
tp999
a(S'are'
g910
S'O'
tp1000
a(S'some'
g966
S'O'
tp1001
a(S'bomb'
g14
S'O'
tp1002
a(S'veggie'
g14
g12
tp1003
a(S'rolls'
g45
g12
tp1004
a(S'made'
g128
S'O'
tp1005
a(S'with'
g7
S'O'
tp1006
a(S'the'
g9
S'O'
tp1007
a(S'freshest'
g148
S'O'
tp1008
a(S'veggies'
g45
g12
tp1009
a(S'I'
g73
S'O'
tp1010
a(S'have'
g173
S'O'
tp1011
a(S'ever'
g535
S'O'
tp1012
a(S'tasted'
g128
S'O'
tp1013
a(S'.'
S'.'
S'O'
tp1014
aa(lp1015
(S'Comes'
g45
S'O'
tp1016
a(S'with'
g7
S'O'
tp1017
a(S'salad'
g14
g12
tp1018
a(S'or'
g927
S'O'
tp1019
a(S'potatoes'
g45
g12
tp1020
a(S'.'
S'.'
S'O'
tp1021
aa(lp1022
(S'The'
g99
S'O'
tp1023
a(S'owner'
S'NN'
S'O'
tp1024
a(S'of'
g200
S'O'
tp1025
a(S"Hazel's"
g101
S'O'
tp1026
a(S'forgot'
g5
S'O'
tp1027
a(S'my'
g316
S'O'
tp1028
a(S'add'
g14
S'O'
tp1029
a(S'on'
g106
S'O'
tp1030
a(S'bacon'
g14
g12
tp1031
a(S','
S','
S'O'
tp1032
a(S'and'
g16
S'O'
tp1033
a(S'gave'
S'VBD'
p1034
S'O'
tp1035
a(S'me'
g658
S'O'
tp1036
a(S'a'
g67
S'O'
tp1037
a(S'FREE'
g101
S'O'
tp1038
a(S'sandwich'
g14
g12
tp1039
a(S'the'
g9
S'O'
tp1040
a(S'next'
g11
S'O'
tp1041
a(S'time'
g115
S'O'
tp1042
a(S'.'
S'.'
S'O'
tp1043
aa(lp1044
(S'this'
g193
S'O'
tp1045
a(S'is'
g88
S'O'
tp1046
a(S'the'
g9
S'O'
tp1047
a(S'restaurant'
g14
S'O'
tp1048
a(S'where'
g401
S'O'
tp1049
a(S'I'
g73
S'O'
tp1050
a(S'first'
g23
S'O'
tp1051
a(S'realized'
g5
S'O'
tp1052
a(S'that'
g52
S'O'
tp1053
a(S'if'
S'IN'
p1054
S'O'
tp1055
a(S'you'
g191
S'O'
tp1056
a(S'add'
g173
S'O'
tp1057
a(S'enough'
g11
S'O'
tp1058
a(S'butter'
g14
g12
tp1059
a(S'and'
g16
S'O'
tp1060
a(S'cream'
g14
g12
tp1061
a(S'to'
g35
S'O'
tp1062
a(S'anything'
S'NN'
S'O'
tp1063
a(S'it'
g91
S'O'
tp1064
a(S'will'
S'MD'
S'O'
tp1065
a(S'taste'
g60
S'O'
tp1066
a(S'amazing'
g14
S'O'
tp1067
a(S'.'
S'.'
S'O'
tp1068
aa(lp1069
(S'The'
g99
S'O'
tp1070
a(S'menu'
g14
S'O'
tp1071
a(S'changes'
g45
S'O'
tp1072
a(S'often'
S'RB'
S'O'
tp1073
a(S','
S','
S'O'
tp1074
a(S'using'
S'VBG'
S'O'
tp1075
a(S"what's"
g11
S'O'
tp1076
a(S'local'
S'JJ'
S'O'
tp1077
a(S'and'
g16
S'O'
tp1078
a(S'fresh'
g11
S'O'
tp1079
a(S'.'
S'.'
S'O'
tp1080
aa(lp1081
(S'Found'
g128
S'O'
tp1082
a(S'off'
g52
S'O'
tp1083
a(S'the'
g9
S'O'
tp1084
a(S'lobby'
g14
S'O'
tp1085
a(S'of'
g200
S'O'
tp1086
a(S'the'
g9
S'O'
tp1087
a(S'Omni'
g101
S'O'
tp1088
a(S'hotel'
g14
S'O'
tp1089
a(S','
S','
S'O'
tp1090
a(S'this'
g193
S'O'
tp1091
a(S'place'
g14
S'O'
tp1092
a(S'is'
g88
S'O'
tp1093
a(S'one'
g573
S'O'
tp1094
a(S'of'
g200
S'O'
tp1095
a(S'the'
g9
S'O'
tp1096
a(S'top'
g11
S'O'
tp1097
a(S'ranked'
g5
S'O'
tp1098
a(S'steak'
g11
g12
tp1099
a(S'places'
g45
S'O'
tp1100
a(S'in'
g42
S'O'
tp1101
a(S'the'
g9
S'O'
tp1102
a(S'nation'
S'NN'
S'O'
tp1103
a(S'.'
S'.'
S'O'
tp1104
aa(lp1105
(S'We'
g3
S'O'
tp1106
a(S'also'
g157
S'O'
tp1107
a(S'went'
S'VBD'
S'O'
tp1108
a(S'with'
g7
S'O'
tp1109
a(S'the'
g9
S'O'
tp1110
a(S'smashed'
g14
g12
tp1111
a(S'potatoes'
g45
g12
tp1112
a(S'which'
g47
S'O'
tp1113
a(S'was'
g5
S'O'
tp1114
a(S'a'
g67
S'O'
tp1115
a(S'hard'
S'JJ'
S'O'
tp1116
a(S'choice'
S'NN'
S'O'
tp1117
a(S'over'
g52
S'O'
tp1118
a(S'the'
g9
S'O'
tp1119
a(S'baked'
g11
g12
tp1120
a(S'potato'
g14
g12
tp1121
a(S'and'
g16
g12
tp1122
a(S'the'
g9
g12
tp1123
a(S'creamed'
g128
g12
tp1124
a(S'spinach'
g14
g12
tp1125
a(S'which'
g47
S'O'
tp1126
a(S'I'
g73
S'O'
tp1127
a(S'would'
S'MD'
p1128
S'O'
tp1129
a(S'have'
g60
S'O'
tp1130
a(S'to'
g35
S'O'
tp1131
a(S'say'
g60
S'O'
tp1132
a(S'was'
g5
S'O'
tp1133
a(S'my'
g316
S'O'
tp1134
a(S'least'
g148
S'O'
tp1135
a(S'favorite'
g11
S'O'
tp1136
a(S'thing'
S'NN'
p1137
S'O'
tp1138
a(S'of'
g200
S'O'
tp1139
a(S'the'
g9
S'O'
tp1140
a(S'meal'
g14
S'O'
tp1141
a(S'.'
S'.'
S'O'
tp1142
aa(lp1143
(S'We'
g3
S'O'
tp1144
a(S'also'
g157
S'O'
tp1145
a(S'ordered'
g5
S'O'
tp1146
a(S'a'
g67
S'O'
tp1147
a(S'hot'
g11
S'O'
tp1148
a(S'toddy'
g14
S'O'
tp1149
a(S'which'
g47
S'O'
tp1150
a(S'they'
g196
S'O'
tp1151
a(S'made'
g5
S'O'
tp1152
a(S'SUPER'
g101
S'O'
tp1153
a(S'strong'
g780
S'O'
tp1154
a(S'.'
S'.'
S'O'
tp1155
aa(lp1156
(S'Served'
g128
S'O'
tp1157
a(S'with'
g7
S'O'
tp1158
a(S'kiwi'
g14
g12
tp1159
a(S'fruit'
g14
g12
tp1160
a(S'sauce'
g14
g12
tp1161
a(S';'
S':'
S'O'
tp1162
a(S'Not'
S'RB'
S'O'
tp1163
a(S'usually'
S'RB'
S'O'
tp1164
a(S'a'
g67
S'O'
tp1165
a(S'fan'
g14
S'O'
tp1166
a(S'of'
g200
S'O'
tp1167
a(S'sweet'
g11
S'O'
tp1168
a(S'dipping'
g14
S'O'
tp1169
a(S'sauces'
g45
g12
tp1170
a(S','
S','
S'O'
tp1171
a(S'I'
g73
S'O'
tp1172
a(S'found'
g5
S'O'
tp1173
a(S'that'
g52
S'O'
tp1174
a(S'the'
g9
S'O'
tp1175
a(S'kiwi'
g14
S'O'
tp1176
a(S'fruit'
g14
g12
tp1177
a(S'sauce'
g14
g12
tp1178
a(S'worked'
g5
S'O'
tp1179
a(S'very'
g23
S'O'
tp1180
a(S'well'
g23
S'O'
tp1181
a(S'with'
g7
S'O'
tp1182
a(S'this'
g193
S'O'
tp1183
a(S'dish'
g14
S'O'
tp1184
a(S'.'
S'.'
S'O'
tp1185
aa(lp1186
(S'To'
S'TO'
S'O'
tp1187
a(S'sustain'
g60
S'O'
tp1188
a(S'consistantly'
g23
S'O'
tp1189
a(S'fresh'
g11
S'O'
tp1190
a(S'food'
g622
S'O'
tp1191
a(S'and'
g16
S'O'
tp1192
a(S'friendly'
g11
S'O'
tp1193
a(S'servers'
g45
S'O'
tp1194
a(S'for'
g65
S'O'
tp1195
a(S'more'
S'JJR'
p1196
S'O'
tp1197
a(S'than'
S'IN'
S'O'
tp1198
a(S'three'
S'CD'
S'O'
tp1199
a(S'decades'
g45
S'O'
tp1200
a(S'is'
g88
S'O'
tp1201
a(S'no'
g82
S'O'
tp1202
a(S'minor'
g11
S'O'
tp1203
a(S'accomplishment'
g14
S'O'
tp1204
a(S'.'
S'.'
S'O'
tp1205
aa(lp1206
(S'If'
g765
S'O'
tp1207
a(S'you'
g191
S'O'
tp1208
a(S'want'
g173
S'O'
tp1209
a(S'to'
g35
S'O'
tp1210
a(S'get'
g60
S'O'
tp1211
a(S'so'
g23
S'O'
tp1212
a(S'full'
g69
S'O'
tp1213
a(S'at'
g348
S'O'
tp1214
a(S'lunch'
g14
S'O'
tp1215
a(S'that'
g52
S'O'
tp1216
a(S'you'
g191
S'O'
tp1217
a(S'still'
g506
S'O'
tp1218
a(S'are'
g910
S'O'
tp1219
a(S'full'
g69
S'O'
tp1220
a(S'at'
g348
S'O'
tp1221
a(S'dinner'
g14
S'O'
tp1222
a(S'for'
g65
S'O'
tp1223
a(S'5'
g974
S'O'
tp1224
a(S'.'
S'.'
S'O'
tp1225
a(S'50'
S'CD'
S'O'
tp1226
a(S','
S','
S'O'
tp1227
a(S'get'
g60
S'O'
tp1228
a(S'the'
g9
S'O'
tp1229
a(S'prima'
g14
g12
tp1230
a(S'facie'
g14
g12
tp1231
a(S'sandwich'
g14
g12
tp1232
a(S'.'
S'.'
S'O'
tp1233
aa(lp1234
(S'They'
g246
S'O'
tp1235
a(S'may'
S'MD'
S'O'
tp1236
a(S'not'
g188
S'O'
tp1237
a(S'be'
g607
S'O'
tp1238
a(S'the'
g9
S'O'
tp1239
a(S'greatest'
g148
S'O'
tp1240
a(S'rolls'
g45
g12
tp1241
a(S'in'
g42
S'O'
tp1242
a(S'town'
S'NN'
p1243
S'O'
tp1244
a(S','
S','
S'O'
tp1245
a(S'but'
g170
S'O'
tp1246
a(S"they're"
g11
S'O'
tp1247
a(S'cheap'
g11
S'O'
tp1248
a(S'and'
g16
S'O'
tp1249
a(S'fresh'
g11
g12
tp1250
a(S'and'
g16
S'O'
tp1251
a(S'that'
g82
S'O'
tp1252
a(S'puts'
g275
S'O'
tp1253
a(S'it'
g91
S'O'
tp1254
a(S'ahead'
S'RB'
S'O'
tp1255
a(S'of'
g200
S'O'
tp1256
a(S'98'
g573
S'O'
tp1257
a(S'of'
g200
S'O'
tp1258
a(S'the'
g9
S'O'
tp1259
a(S'sushi'
g14
g12
tp1260
a(S'joints'
g45
S'O'
tp1261
a(S'in'
g42
S'O'
tp1262
a(S'town'
g1243
S'O'
tp1263
a(S'.'
S'.'
S'O'
tp1264
aa(lp1265
(S'Then'
S'RB'
S'O'
tp1266
a(S'I'
g73
S'O'
tp1267
a(S'finally'
S'RB'
S'O'
tp1268
a(S'tried'
g5
S'O'
tp1269
a(S'a'
g67
S'O'
tp1270
a(S'pizza'
g14
g12
tp1271
a(S','
S','
S'O'
tp1272
a(S'which'
g47
S'O'
tp1273
a(S'had'
g5
S'O'
tp1274
a(S'pesto'
g14
g12
tp1275
a(S','
S','
S'O'
tp1276
a(S'shrimp'
g14
g12
tp1277
a(S','
S','
S'O'
tp1278
a(S'zucchini'
g14
g12
tp1279
a(S','
S','
S'O'
tp1280
a(S'tomatoes'
g45
g12
tp1281
a(S'and'
g16
S'O'
tp1282
a(S'cheese'
g14
g12
tp1283
a(S','
S','
S'O'
tp1284
a(S'and'
g16
S'O'
tp1285
a(S'it'
g91
S'O'
tp1286
a(S'was'
g5
S'O'
tp1287
a(S'phenomenal'
g11
S'O'
tp1288
a(S','
S','
S'O'
tp1289
a(S'just'
S'RB'
S'O'
tp1290
a(S'out'
g52
S'O'
tp1291
a(S'of'
g200
S'O'
tp1292
a(S'this'
g193
S'O'
tp1293
a(S'world'
S'NN'
S'O'
tp1294
a(S'good'
g14
S'O'
tp1295
a(S','
S','
S'O'
tp1296
a(S'and'
g16
S'O'
tp1297
a(S'a'
g67
S'O'
tp1298
a(S'great'
g919
S'O'
tp1299
a(S'combination'
g14
S'O'
tp1300
a(S'I'
g73
S'O'
tp1301
a(S'would'
g1128
S'O'
tp1302
a(S'never'
S'RB'
p1303
S'O'
tp1304
a(S'have'
g60
S'O'
tp1305
a(S'thought'
g128
S'O'
tp1306
a(S'of'
g200
S'O'
tp1307
a(S'.'
S'.'
S'O'
tp1308
aa(lp1309
(S'We'
g3
S'O'
tp1310
a(S'ordered'
g5
S'O'
tp1311
a(S'the'
g9
S'O'
tp1312
a(S'black'
S'JJ'
g12
tp1313
a(S'forest'
g148
g12
tp1314
a(S'cake'
g14
g12
tp1315
a(S'thing'
g1137
S'O'
tp1316
a(S'which'
g47
S'O'
tp1317
a(S'was'
g5
S'O'
tp1318
a(S'to'
g35
S'O'
tp1319
a(S'die'
g60
S'O'
tp1320
a(S'for'
g65
S'O'
tp1321
a(S'.'
S'.'
S'O'
tp1322
aa(lp1323
(S"I'm"
g101
S'O'
tp1324
a(S'in'
g42
S'O'
tp1325
a(S'between'
S'IN'
S'O'
tp1326
a(S'3'
g573
S'O'
tp1327
a(S'and'
g16
S'O'
tp1328
a(S'4'
S'CD'
p1329
S'O'
tp1330
a(S'stars'
g45
S'O'
tp1331
a(S'right'
g23
S'O'
tp1332
a(S'now'
S'RB'
S'O'
tp1333
a(S'because'
g52
S'O'
tp1334
a(S'the'
g9
S'O'
tp1335
a(S'rotisserie'
g14
g12
tp1336
a(S'lamb'
g173
g12
tp1337
a(S"didn't"
g14
S'O'
tp1338
a(S'really'
g299
S'O'
tp1339
a(S'wow'
g60
S'O'
tp1340
a(S'me'
g658
S'O'
tp1341
a(S'.'
S'.'
S'O'
tp1342
aa(lp1343
(S'Small'
g14
S'O'
tp1344
a(S','
S','
S'O'
tp1345
a(S'cozy'
g14
S'O'
tp1346
a(S','
S','
S'O'
tp1347
a(S'family'
g133
S'O'
tp1348
a(S'run'
g14
S'O'
tp1349
a(S','
S','
S'O'
tp1350
a(S'and'
g16
S'O'
tp1351
a(S'delicious'
g11
S'O'
tp1352
a(S'food'
g622
g12
tp1353
a(S'.'
S'.'
S'O'
tp1354
aa(lp1355
(S'I'
g73
S'O'
tp1356
a(S"couldn't"
g173
S'O'
tp1357
a(S'believe'
g60
S'O'
tp1358
a(S'how'
g946
S'O'
tp1359
a(S'large'
S'JJ'
p1360
S'O'
tp1361
a(S'it'
g91
S'O'
tp1362
a(S'was'
g5
S'O'
tp1363
a(S'inside'
g23
S'O'
tp1364
a(S'after'
S'IN'
p1365
S'O'
tp1366
a(S'I'
g73
S'O'
tp1367
a(S'had'
g5
S'O'
tp1368
a(S'walked'
g128
S'O'
tp1369
a(S'by'
g436
S'O'
tp1370
a(S'it'
g91
S'O'
tp1371
a(S'a'
g67
S'O'
tp1372
a(S'million'
S'CD'
S'O'
tp1373
a(S'times'
g45
S'O'
tp1374
a(S'.'
S'.'
S'O'
tp1375
aa(lp1376
(S'I'
g73
S'O'
tp1377
a(S'gave'
g1034
S'O'
tp1378
a(S'a'
g67
S'O'
tp1379
a(S'bonus'
g14
S'O'
tp1380
a(S'in'
g42
S'O'
tp1381
a(S'the'
g9
S'O'
tp1382
a(S'rating'
S'NN'
S'O'
tp1383
a(S'for'
g65
S'O'
tp1384
a(S'them'
g202
S'O'
tp1385
a(S'providing'
g25
S'O'
tp1386
a(S'two'
g736
S'O'
tp1387
a(S'maguro'
g14
g12
tp1388
a(S'('
S'('
S'O'
tp1389
a(S'tuna'
g14
g12
tp1390
a(S')'
S')'
S'O'
tp1391
a(S'nigiri'
g14
g12
tp1392
a(S'sushi'
g14
g12
tp1393
a(S'pieces'
g45
g12
tp1394
a(S'on'
g106
S'O'
tp1395
a(S'tge'
g14
S'O'
tp1396
a(S'house'
S'NN'
p1397
S'O'
tp1398
a(S'.'
S'.'
S'O'
tp1399
aa(lp1400
(S'But'
g907
S'O'
tp1401
a(S'the'
g9
S'O'
tp1402
a(S'duck'
g14
g12
tp1403
a(S'sounded'
g5
S'O'
tp1404
a(S'so'
g23
S'O'
tp1405
a(S'yummy'
g23
S'O'
tp1406
a(S'too'
g333
S'O'
tp1407
a(S','
S','
S'O'
tp1408
a(S'maybe'
g23
S'O'
tp1409
a(S'next'
g11
S'O'
tp1410
a(S'time'
g115
S'O'
tp1411
a(S'try'
g14
S'O'
tp1412
a(S'that'
g47
S'O'
tp1413
a(S'!'
S'.'
S'O'
tp1414
aa(lp1415
(S'I'
g73
S'O'
tp1416
a(S'have'
g173
S'O'
tp1417
a(S'taken'
S'VBN'
S'O'
tp1418
a(S'every'
S'DT'
S'O'
tp1419
a(S'one'
g573
S'O'
tp1420
a(S'of'
g200
S'O'
tp1421
a(S'my'
g316
S'O'
tp1422
a(S'friends'
g45
S'O'
tp1423
a(S'for'
g65
S'O'
tp1424
a(S'the'
g9
S'O'
tp1425
a(S'shrimp'
g14
g12
tp1426
a(S'cakes'
g45
g12
tp1427
a(S'.'
S'.'
S'O'
tp1428
aa(lp1429
(S'The'
g99
S'O'
tp1430
a(S'wild'
g11
S'O'
tp1431
a(S'card'
g14
S'O'
tp1432
a(S'after'
g1365
S'O'
tp1433
a(S'that'
g82
S'O'
tp1434
a(S'is'
g88
S'O'
tp1435
a(S'the'
g9
S'O'
tp1436
a(S'sandwich'
g14
g12
tp1437
a(S'maker'
S'NN'
g12
tp1438
a(S'.'
S'.'
S'O'
tp1439
aa(lp1440
(S'Add'
g60
S'O'
tp1441
a(S'a'
g67
S'O'
tp1442
a(S'variety'
g14
S'O'
tp1443
a(S'of'
g200
S'O'
tp1444
a(S'tacos'
g14
g12
tp1445
a(S','
S','
S'O'
tp1446
a(S'some'
g966
S'O'
tp1447
a(S'quesadillas'
g45
g12
tp1448
a(S','
S','
S'O'
tp1449
a(S'house'
g1397
g12
tp1450
a(S'made'
g5
g12
tp1451
a(S'chips'
S'NNS'
g12
tp1452
a(S'and'
g16
S'O'
tp1453
a(S'a'
g67
S'O'
tp1454
a(S'side'
g14
g12
tp1455
a(S'of'
g200
S'O'
tp1456
a(S'their'
g846
S'O'
tp1457
a(S'guac'
g14
g12
tp1458
a(S'and'
g16
S'O'
tp1459
a(S'you'
g191
S'O'
tp1460
a(S'got'
g5
S'O'
tp1461
a(S'yourself'
g91
S'O'
tp1462
a(S'a'
g67
S'O'
tp1463
a(S'cheap'
g11
S'O'
tp1464
a(S','
S','
S'O'
tp1465
a(S'fast'
g23
S'O'
tp1466
a(S','
S','
S'O'
tp1467
a(S'delicious'
g11
S'O'
tp1468
a(S'meal'
g14
S'O'
tp1469
a(S'.'
S'.'
S'O'
tp1470
aa(lp1471
(S'You'
S'PRP'
S'O'
tp1472
a(S"don't"
g173
S'O'
tp1473
a(S'have'
g60
S'O'
tp1474
a(S'to'
g35
S'O'
tp1475
a(S'deal'
g60
S'O'
tp1476
a(S'with'
g7
S'O'
tp1477
a(S'a'
g67
S'O'
tp1478
a(S'long'
g11
S'O'
tp1479
a(S'wait'
g14
S'O'
tp1480
a(S'even'
g23
S'O'
tp1481
a(S'if'
g1054
S'O'
tp1482
a(S'you'
g191
S'O'
tp1483
a(S'have'
g173
S'O'
tp1484
a(S'reservations'
g45
S'O'
tp1485
a(S'or'
g927
S'O'
tp1486
a(S'be'
g607
S'O'
tp1487
a(S'within'
g342
S'O'
tp1488
a(S'earshot'
g14
S'O'
tp1489
a(S'of'
g200
S'O'
tp1490
a(S'loud'
g11
S'O'
tp1491
a(S'obnoxious'
g11
S'O'
tp1492
a(S'people'
S'NNS'
S'O'
tp1493
a(S'as'
g52
S'O'
tp1494
a(S'I'
g73
S'O'
tp1495
a(S'have'
g173
S'O'
tp1496
a(S'experienced'
g128
S'O'
tp1497
a(S'many'
S'JJ'
S'O'
tp1498
a(S'times'
g45
S'O'
tp1499
a(S'at'
g348
S'O'
tp1500
a(S'House'
S'NNP'
S'O'
tp1501
a(S'of'
g200
S'O'
tp1502
a(S'Prime'
S'NNP'
g12
tp1503
a(S'Rib'
g101
g12
tp1504
a(S'.'
S'.'
S'O'
tp1505
aa(lp1506
(S'It'
g702
S'O'
tp1507
a(S'was'
g5
S'O'
tp1508
a(S'warm'
g11
S'O'
tp1509
a(S','
S','
S'O'
tp1510
a(S'sweet'
g11
S'O'
tp1511
a(S'and'
g16
S'O'
tp1512
a(S'moist'
g14
S'O'
tp1513
a(S'.'
S'.'
S'O'
tp1514
a(S'.'
S'.'
S'O'
tp1515
a(S'.'
S'.'
S'O'
tp1516
a(S'.'
S'.'
S'O'
tp1517
a(S'perfecto'
g14
S'O'
tp1518
a(S'!'
S'.'
S'O'
tp1519
aa(lp1520
(S'medium'
g14
S'O'
tp1521
a(S'rare'
g14
S'O'
tp1522
a(S'is'
g88
S'O'
tp1523
a(S'the'
g9
S'O'
tp1524
a(S'way'
g309
S'O'
tp1525
a(S'to'
g35
S'O'
tp1526
a(S'go'
g60
S'O'
tp1527
a(S','
S','
S'O'
tp1528
a(S'you'
g191
S'O'
tp1529
a(S'can'
g85
S'O'
tp1530
a(S'really'
g299
S'O'
tp1531
a(S'taste'
g60
S'O'
tp1532
a(S'the'
g9
S'O'
tp1533
a(S'fresh'
g11
g12
tp1534
a(S'ground'
g14
g12
tp1535
a(S'beef'
g14
g12
tp1536
a(S'.'
S'.'
S'O'
tp1537
aa(lp1538
(S'The'
g99
S'O'
tp1539
a(S'cobb'
g14
g12
tp1540
a(S'salad'
g14
g12
tp1541
a(S'looked'
g5
S'O'
tp1542
a(S'great'
g919
S'O'
tp1543
a(S'they'
g196
S'O'
tp1544
a(S"didn't"
g173
S'O'
tp1545
a(S'skimp'
g60
S'O'
tp1546
a(S'on'
g106
S'O'
tp1547
a(S'the'
g9
S'O'
tp1548
a(S'high'
g11
S'O'
tp1549
a(S'test'
g14
S'O'
tp1550
a(S'ingredients'
g45
S'O'
tp1551
a(S'at'
g348
S'O'
tp1552
a(S'all'
g82
S'O'
tp1553
a(S'.'
S'.'
S'O'
tp1554
aa(lp1555
(S'Customer'
g101
S'O'
tp1556
a(S'Service'
S'NNP'
S'O'
tp1557
a(S'('
S'('
S'O'
tp1558
a(S'5'
g974
S'O'
tp1559
a(S'stars'
g45
S'O'
tp1560
a(S')'
S')'
S'O'
tp1561
a(S'Good'
g101
S'O'
tp1562
a(S'quick'
g11
S'O'
tp1563
a(S'service'
g14
S'O'
tp1564
a(S'and'
g16
S'O'
tp1565
a(S'hot'
g11
S'O'
tp1566
a(S'food'
g622
S'O'
tp1567
a(S'served'
g5
S'O'
tp1568
a(S'on'
g106
S'O'
tp1569
a(S'the'
g9
S'O'
tp1570
a(S'fly'
g14
S'O'
tp1571
a(S'.'
S'.'
S'O'
tp1572
aa(lp1573
(S'I'
g73
S'O'
tp1574
a(S'always'
g868
S'O'
tp1575
a(S'order'
g253
S'O'
tp1576
a(S'the'
g9
S'O'
tp1577
a(S'usual'
g11
S'O'
tp1578
a(S','
S','
S'O'
tp1579
a(S'Baby'
g101
g12
tp1580
a(S'shrimp'
g275
g12
tp1581
a(S'with'
g7
g12
tp1582
a(S'hot'
g11
g12
tp1583
a(S'pepper'
g14
g12
tp1584
a(S'sauce'
g14
g12
tp1585
a(S'amp'
g14
S'O'
tp1586
a(S';'
S':'
S'O'
tp1587
a(S'Dry'
g101
g12
tp1588
a(S'Fried'
g101
g12
tp1589
a(S'Beef'
g101
g12
tp1590
a(S'.'
S'.'
S'O'
tp1591
aa(lp1592
(S'I'
g73
S'O'
tp1593
a(S'happened'
g5
S'O'
tp1594
a(S'by'
g436
S'O'
tp1595
a(S'at'
g348
S'O'
tp1596
a(S'around'
g52
S'O'
tp1597
a(S'530pm'
g573
S'O'
tp1598
a(S','
S','
S'O'
tp1599
a(S'during'
S'IN'
S'O'
tp1600
a(S'their'
g846
S'O'
tp1601
a(S'happy'
g11
S'O'
tp1602
a(S'hour'
S'NN'
S'O'
tp1603
a(S','
S','
S'O'
tp1604
a(S'and'
g16
S'O'
tp1605
a(S'started'
g5
S'O'
tp1606
a(S'with'
g7
S'O'
tp1607
a(S'a'
g67
S'O'
tp1608
a(S'3'
g573
S'O'
tp1609
a(S'draft'
g14
S'O'
tp1610
a(S'Kirin'
g101
S'O'
tp1611
a(S'and'
g16
S'O'
tp1612
a(S'a'
g67
S'O'
tp1613
a(S'4'
g1329
S'O'
tp1614
a(S'tuna'
g14
g12
tp1615
a(S'hand'
g406
g12
tp1616
a(S'roll'
g14
g12
tp1617
a(S'that'
g47
S'O'
tp1618
a(S'was'
g5
S'O'
tp1619
a(S'large'
g1360
S'O'
tp1620
a(S','
S','
S'O'
tp1621
a(S'generous'
g11
S'O'
tp1622
a(S','
S','
S'O'
tp1623
a(S'and'
g16
S'O'
tp1624
a(S'delicious'
g11
S'O'
tp1625
a(S'.'
S'.'
S'O'
tp1626
aa(lp1627
(S'My'
g108
S'O'
tp1628
a(S'bf'
g14
S'O'
tp1629
a(S'ordered'
g5
S'O'
tp1630
a(S'the'
g9
S'O'
tp1631
a(S'grilled'
g11
g12
tp1632
a(S'lamb'
g14
g12
tp1633
a(S'chops'
g45
g12
tp1634
a(S'best'
g23
S'O'
tp1635
a(S'lamb'
g14
g12
tp1636
a(S'chops'
g45
g12
tp1637
a(S'ever'
g535
S'O'
tp1638
a(S'.'
S'.'
S'O'
tp1639
aa(lp1640
(S'Sooo'
g101
S'O'
tp1641
a(S'small'
S'JJ'
p1642
S'O'
tp1643
a(S'.'
S'.'
S'O'
tp1644
aa(lp1645
(S'The'
g99
S'O'
tp1646
a(S'toasted'
g11
g12
tp1647
a(S'garlic'
g11
g12
tp1648
a(S'bread'
g14
g12
tp1649
a(S'was'
g5
S'O'
tp1650
a(S'definitely'
g23
S'O'
tp1651
a(S'a'
g67
S'O'
tp1652
a(S'good'
g11
S'O'
tp1653
a(S'way'
g309
S'O'
tp1654
a(S'to'
g35
S'O'
tp1655
a(S'sop'
g60
S'O'
tp1656
a(S'up'
g258
S'O'
tp1657
a(S'the'
g9
S'O'
tp1658
a(S'natural'
S'JJ'
S'O'
tp1659
a(S'sweetness'
g14
S'O'
tp1660
a(S'of'
g200
S'O'
tp1661
a(S'the'
g9
S'O'
tp1662
a(S'shellfish'
g11
g12
tp1663
a(S'broth'
g14
g12
tp1664
a(S'.'
S'.'
S'O'
tp1665
aa(lp1666
(S'Very'
g23
S'O'
tp1667
a(S'cafeteria'
g11
S'O'
tp1668
a(S'communal'
g11
S'O'
tp1669
a(S'style'
g135
S'O'
tp1670
a(S'eating'
g14
S'O'
tp1671
a(S','
S','
S'O'
tp1672
a(S'or'
g927
S'O'
tp1673
a(S'you'
g191
S'O'
tp1674
a(S'can'
g85
S'O'
tp1675
a(S'have'
g60
S'O'
tp1676
a(S'your'
g277
S'O'
tp1677
a(S'own'
g11
S'O'
tp1678
a(S'booth'
g14
S'O'
tp1679
a(S'either'
g82
S'O'
tp1680
a(S'way'
g309
S'O'
tp1681
a(S'you'
g191
S'O'
tp1682
a(S'stand'
g173
S'O'
tp1683
a(S'in'
g42
S'O'
tp1684
a(S'line'
S'NN'
S'O'
tp1685
a(S'to'
g35
S'O'
tp1686
a(S'go'
g60
S'O'
tp1687
a(S'by'
g436
S'O'
tp1688
a(S'the'
g9
S'O'
tp1689
a(S'counter'
g14
S'O'
tp1690
a(S'and'
g16
S'O'
tp1691
a(S'they'
g196
S'O'
tp1692
a(S'serve'
g173
S'O'
tp1693
a(S'up'
g258
S'O'
tp1694
a(S'the'
g9
S'O'
tp1695
a(S'food'
g622
g12
tp1696
a(S'right'
g14
S'O'
tp1697
a(S'on'
g106
S'O'
tp1698
a(S'the'
g9
S'O'
tp1699
a(S'spot'
g14
S'O'
tp1700
a(S'.'
S'.'
S'O'
tp1701
aa(lp1702
(S'He'
S'PRP'
S'O'
tp1703
a(S'had'
g5
S'O'
tp1704
a(S'never'
g1303
S'O'
tp1705
a(S'eaten'
g128
S'O'
tp1706
a(S'crab'
g14
g12
tp1707
a(S'before'
g52
S'O'
tp1708
a(S'because'
g52
S'O'
tp1709
a(S'his'
S'PRP$'
S'O'
tp1710
a(S'country'
S'NN'
S'O'
tp1711
a(S'is'
g88
S'O'
tp1712
a(S'deprived'
g128
S'O'
tp1713
a(S'of'
g200
S'O'
tp1714
a(S'this'
g193
S'O'
tp1715
a(S'glorious'
g11
S'O'
tp1716
a(S'seafood'
g14
g12
tp1717
a(S','
S','
S'O'
tp1718
a(S'but'
g170
S'O'
tp1719
a(S'wanted'
g5
S'O'
tp1720
a(S'to'
g35
S'O'
tp1721
a(S'get'
g60
S'O'
tp1722
a(S'a'
g67
S'O'
tp1723
a(S'taste'
g14
S'O'
tp1724
a(S'of'
g200
S'O'
tp1725
a(S'it'
g91
S'O'
tp1726
a(S'.'
S'.'
S'O'
tp1727
aa(lp1728
(S'Super'
g101
g12
tp1729
a(S'Tonkatsu'
g101
g12
tp1730
a(S'('
S'('
S'O'
tp1731
a(S'fried'
g128
g12
tp1732
a(S'breaded'
g128
g12
tp1733
a(S'pork'
g14
g12
tp1734
a(S'cutlet'
g14
g12
tp1735
a(S')'
S')'
S'O'
tp1736
a(S','
S','
S'O'
tp1737
a(S'Spicy'
g101
g12
tp1738
a(S'Burdock'
g101
g12
tp1739
a(S'and'
g16
g12
tp1740
a(S'lotus'
g11
g12
tp1741
a(S'root'
g14
g12
tp1742
a(S'salad'
g14
g12
tp1743
a(S','
S','
S'O'
tp1744
a(S'Green'
g11
g12
tp1745
a(S'Bean'
g101
g12
tp1746
a(S'with'
g7
g12
tp1747
a(S'sesame'
g14
g12
tp1748
a(S'dressing'
g14
g12
tp1749
a(S','
S','
S'O'
tp1750
a(S'Tofu'
g101
g12
tp1751
a(S'and'
g16
g12
tp1752
a(S'Hijiki'
g101
g12
tp1753
a(S'Patty'
g101
g12
tp1754
a(S','
S','
S'O'
tp1755
a(S'Shrimp'
g101
g12
tp1756
a(S'Cakes'
g101
g12
tp1757
a(S','
S','
S'O'
tp1758
a(S'Delicious'
g101
S'O'
tp1759
a(S'mushroom'
g14
g12
tp1760
a(S'miso'
g14
g12
tp1761
a(S'.'
S'.'
S'O'
tp1762
aa(lp1763
(S"It's"
g101
S'O'
tp1764
a(S'not'
g188
S'O'
tp1765
a(S'the'
g9
S'O'
tp1766
a(S'usual'
g11
S'O'
tp1767
a(S','
S','
S'O'
tp1768
a(S'over'
g52
S'O'
tp1769
a(S'the'
g9
S'O'
tp1770
a(S'top'
g11
S'O'
tp1771
a(S'Japanese'
g11
S'O'
tp1772
a(S'decor'
g14
S'O'
tp1773
a(S'that'
g47
S'O'
tp1774
a(S'Californians'
S'NNPS'
S'O'
tp1775
a(S'bask'
g173
S'O'
tp1776
a(S'in'
g42
S'O'
tp1777
a(S'rather'
S'RB'
S'O'
tp1778
a(S'it'
g91
S'O'
tp1779
a(S'has'
S'VBZ'
p1780
S'O'
tp1781
a(S'more'
g1196
S'O'
tp1782
a(S'of'
g200
S'O'
tp1783
a(S'a'
g67
S'O'
tp1784
a(S"mom's"
g14
S'O'
tp1785
a(S'cooking'
g25
S'O'
tp1786
a(S'decor'
g14
S'O'
tp1787
a(S'to'
g35
S'O'
tp1788
a(S'it'
g91
S'O'
tp1789
a(S'.'
S'.'
S'O'
tp1790
aa(lp1791
(S'Steak'
g101
g12
tp1792
a(S'.'
S'.'
S'O'
tp1793
aa(lp1794
(S'The'
g99
S'O'
tp1795
a(S'restaurant'
g14
S'O'
tp1796
a(S'is'
g88
S'O'
tp1797
a(S'large'
g1360
S'O'
tp1798
a(S'and'
g16
S'O'
tp1799
a(S'has'
g1780
S'O'
tp1800
a(S'3'
g573
S'O'
tp1801
a(S'sections'
g45
S'O'
tp1802
a(S'.'
S'.'
S'O'
tp1803
aa(lp1804
(S'I'
g73
S'O'
tp1805
a(S'love'
g173
S'O'
tp1806
a(S'burgers'
g45
g12
tp1807
a(S'amp'
g173
S'O'
tp1808
a(S';'
S':'
S'O'
tp1809
a(S'I'
g73
S'O'
tp1810
a(S'definitely'
g23
S'O'
tp1811
a(S'LOVE'
g101
S'O'
tp1812
a(S'bistro'
g14
S'O'
tp1813
a(S'burger'
g14
g12
tp1814
a(S'for'
g65
S'O'
tp1815
a(S'lunch'
g14
S'O'
tp1816
a(S'!'
S'.'
S'O'
tp1817
aa(lp1818
(S'The'
g99
S'O'
tp1819
a(S'meat'
g14
g12
tp1820
a(S'is'
g88
S'O'
tp1821
a(S'top'
g11
S'O'
tp1822
a(S'quality'
g14
S'O'
tp1823
a(S'with'
g7
S'O'
tp1824
a(S'service'
g14
S'O'
tp1825
a(S'to'
g35
S'O'
tp1826
a(S'match'
g60
S'O'
tp1827
a(S'.'
S'.'
S'O'
tp1828
aa(lp1829
(S'The'
g99
S'O'
tp1830
a(S'sauce'
g14
g12
tp1831
a(S'and'
g16
S'O'
tp1832
a(S'cheese'
g14
g12
tp1833
a(S'are'
g910
S'O'
tp1834
a(S'thinly'
g23
S'O'
tp1835
a(S'smeared'
g128
S'O'
tp1836
a(S'on'
g106
S'O'
tp1837
a(S'.'
S'.'
S'O'
tp1838
aa(lp1839
(S'THE'
g82
S'O'
tp1840
a(S'BEST'
g101
S'O'
tp1841
a(S'steak'
g14
g12
tp1842
a(S"I've"
g101
S'O'
tp1843
a(S'ever'
g535
S'O'
tp1844
a(S'had'
g5
S'O'
tp1845
a(S'in'
g42
S'O'
tp1846
a(S'my'
g316
S'O'
tp1847
a(S'entire'
S'JJ'
S'O'
tp1848
a(S'life'
g540
S'O'
tp1849
a(S'.'
S'.'
S'O'
tp1850
aa(lp1851
(S'The'
g99
S'O'
tp1852
a(S'crab'
g14
g12
tp1853
a(S'was'
g5
S'O'
tp1854
a(S'fresh'
g11
S'O'
tp1855
a(S'but'
g170
S'O'
tp1856
a(S"who's"
g11
S'O'
tp1857
a(S'brite'
g14
S'O'
tp1858
a(S'idea'
S'NN'
S'O'
tp1859
a(S'was'
g5
S'O'
tp1860
a(S'it'
g91
S'O'
tp1861
a(S'to'
g35
S'O'
tp1862
a(S'use'
g60
S'O'
tp1863
a(S'such'
g958
S'O'
tp1864
a(S'a'
g67
S'O'
tp1865
a(S'strong'
g780
S'O'
tp1866
a(S'acidic'
g11
S'O'
tp1867
a(S'vinaigrette'
g14
g12
tp1868
a(S'on'
g106
S'O'
tp1869
a(S'such'
g958
S'O'
tp1870
a(S'a'
g67
S'O'
tp1871
a(S'delicate'
g11
S'O'
tp1872
a(S'piece'
g14
S'O'
tp1873
a(S'of'
g200
S'O'
tp1874
a(S'meat'
g14
g12
tp1875
a(S'?'
S'.'
S'O'
tp1876
aa(lp1877
(S'While'
S'IN'
S'O'
tp1878
a(S'I'
g73
S'O'
tp1879
a(S"can't"
g173
S'O'
tp1880
a(S'compare'
g60
S'O'
tp1881
a(S'it'
g91
S'O'
tp1882
a(S'to'
g35
S'O'
tp1883
a(S'other'
g62
S'O'
tp1884
a(S'Thai'
g101
S'O'
tp1885
a(S'places'
g45
S'O'
tp1886
a(S'in'
g42
S'O'
tp1887
a(S'SF'
g101
S'O'
tp1888
a(S','
S','
S'O'
tp1889
a(S'it'
g91
S'O'
tp1890
a(S'was'
g5
S'O'
tp1891
a(S'a'
g67
S'O'
tp1892
a(S'great'
g919
S'O'
tp1893
a(S'option'
S'NN'
S'O'
tp1894
a(S'within'
g342
S'O'
tp1895
a(S'walking'
g25
S'O'
tp1896
a(S'distance'
g14
S'O'
tp1897
a(S'of'
g200
S'O'
tp1898
a(S'Union'
S'NNP'
S'O'
tp1899
a(S'Square'
g101
S'O'
tp1900
a(S'one'
g14
S'O'
tp1901
a(S'that'
g47
S'O'
tp1902
a(S'was'
g5
S'O'
tp1903
a(S'wheelchair'
g11
S'O'
tp1904
a(S'friendly'
g23
S'O'
tp1905
a(S'.'
S'.'
S'O'
tp1906
aa(lp1907
(S'By'
S'IN'
S'O'
tp1908
a(S'the'
g9
S'O'
tp1909
a(S'end'
g14
S'O'
tp1910
a(S'of'
g200
S'O'
tp1911
a(S'the'
g9
S'O'
tp1912
a(S'evening'
g14
S'O'
tp1913
a(S','
S','
S'O'
tp1914
a(S'I'
g73
S'O'
tp1915
a(S'was'
g5
S'O'
tp1916
a(S'stuffed'
g128
S'O'
tp1917
a(S'which'
g47
S'O'
tp1918
a(S'is'
g88
S'O'
tp1919
a(S'no'
g82
S'O'
tp1920
a(S'small'
g1642
S'O'
tp1921
a(S'feat'
g14
S'O'
tp1922
a(S'I'
g73
S'O'
tp1923
a(S'eat'
g173
S'O'
tp1924
a(S'like'
g52
S'O'
tp1925
a(S'a'
g67
S'O'
tp1926
a(S'mofo'
g14
S'O'
tp1927
a(S'!'
S'.'
S'O'
tp1928
aa(lp1929
(S'The'
g99
S'O'
tp1930
a(S'lamb'
g14
g12
tp1931
a(S'was'
g5
S'O'
tp1932
a(S'seasoned'
g128
S'O'
tp1933
a(S'beautifully'
g23
S'O'
tp1934
a(S','
S','
S'O'
tp1935
a(S'with'
g7
S'O'
tp1936
a(S'the'
g9
S'O'
tp1937
a(S'typical'
g11
S'O'
tp1938
a(S'turnips'
g45
g12
tp1939
a(S'inside'
g52
S'O'
tp1940
a(S'.'
S'.'
S'O'
tp1941
aa(lp1942
(S'Medium'
g101
S'O'
tp1943
a(S'rare'
g14
S'O'
tp1944
a(S','
S','
S'O'
tp1945
a(S'please'
g14
S'O'
tp1946
a(S'.'
S'.'
S'O'
tp1947
aa(lp1948
(S'The'
g99
S'O'
tp1949
a(S'salmon'
g14
g12
tp1950
a(S'was'
g5
S'O'
tp1951
a(S'perfectly'
g23
S'O'
tp1952
a(S'cooked'
g128
S'O'
tp1953
a(S'and'
g16
S'O'
tp1954
a(S'the'
g9
S'O'
tp1955
a(S'assortment'
g14
S'O'
tp1956
a(S'of'
g200
S'O'
tp1957
a(S'asparagus'
g14
g12
tp1958
a(S'and'
g16
S'O'
tp1959
a(S'tomatoes'
g45
g12
tp1960
a(S'that'
g47
S'O'
tp1961
a(S'accompanied'
g5
S'O'
tp1962
a(S'it'
g91
S'O'
tp1963
a(S'were'
g49
S'O'
tp1964
a(S'cooked'
g128
S'O'
tp1965
a(S'and'
g16
S'O'
tp1966
a(S'seasoned'
g128
S'O'
tp1967
a(S'perfectly'
g23
S'O'
tp1968
a(S'.'
S'.'
S'O'
tp1969
aa(lp1970
(S'Last'
S'JJ'
S'O'
tp1971
a(S'time'
g115
S'O'
tp1972
a(S'I'
g73
S'O'
tp1973
a(S'was'
g5
S'O'
tp1974
a(S'there'
S'EX'
S'O'
tp1975
a(S'I'
g73
S'O'
tp1976
a(S'ordered'
g5
S'O'
tp1977
a(S'a'
g67
S'O'
tp1978
a(S'chicken'
g14
g12
tp1979
a(S'shawarma'
g14
g12
tp1980
a(S'('
S'('
S'O'
tp1981
a(S'spicy'
g14
S'O'
tp1982
a(S'of'
g200
S'O'
tp1983
a(S'course'
S'NN'
S'O'
tp1984
a(S')'
S')'
S'O'
tp1985
a(S'and'
g16
S'O'
tp1986
a(S'walked'
g5
S'O'
tp1987
a(S'out'
g258
S'O'
tp1988
a(S'to'
g35
S'O'
tp1989
a(S'run'
g60
S'O'
tp1990
a(S'an'
g82
S'O'
tp1991
a(S'errand'
g14
S'O'
tp1992
a(S'while'
g52
S'O'
tp1993
a(S'it'
g91
S'O'
tp1994
a(S'was'
g5
S'O'
tp1995
a(S'made'
g128
S'O'
tp1996
a(S'.'
S'.'
S'O'
tp1997
aa(lp1998
(S'I'
g73
S'O'
tp1999
a(S'like'
g173
S'O'
tp2000
a(S'the'
g9
S'O'
tp2001
a(S'juices'
g45
S'O'
tp2002
a(S','
S','
S'O'
tp2003
a(S'but'
g170
S'O'
tp2004
a(S'last'
S'JJ'
S'O'
tp2005
a(S'time'
g115
S'O'
tp2006
a(S'I'
g73
S'O'
tp2007
a(S'got'
g5
S'O'
tp2008
a(S'the'
g9
S'O'
tp2009
a(S'shake'
g14
S'O'
tp2010
a(S'and'
g16
S'O'
tp2011
a(S'it'
g91
S'O'
tp2012
a(S'tasted'
g5
S'O'
tp2013
a(S'like'
g52
S'O'
tp2014
a(S'frothy'
g11
S'O'
tp2015
a(S'milk'
g14
S'O'
tp2016
a(S'and'
g16
S'O'
tp2017
a(S'sugar'
g14
S'O'
tp2018
a(S'I'
g73
S'O'
tp2019
a(S'could'
S'MD'
S'O'
tp2020
a(S'barely'
g23
S'O'
tp2021
a(S'taste'
g60
S'O'
tp2022
a(S'the'
g9
S'O'
tp2023
a(S'fruit'
g14
g12
tp2024
a(S'at'
g348
S'O'
tp2025
a(S'all'
g82
S'O'
tp2026
a(S','
S','
S'O'
tp2027
a(S'which'
g47
S'O'
tp2028
a(S'was'
g5
S'O'
tp2029
a(S'weird'
g14
S'O'
tp2030
a(S'.'
S'.'
S'O'
tp2031
aa(lp2032
(S'I'
g73
S'O'
tp2033
a(S'love'
g173
S'O'
tp2034
a(S'the'
g9
S'O'
tp2035
a(S'garlic'
g11
g12
tp2036
a(S'prawns'
g45
g12
tp2037
a(S','
S','
S'O'
tp2038
a(S'they'
g196
S'O'
tp2039
a(S'are'
g910
S'O'
tp2040
a(S'delicious'
g11
S'O'
tp2041
a(S'.'
S'.'
S'O'
tp2042
aa(lp2043
(S'Even'
g23
S'O'
tp2044
a(S'though'
g52
S'O'
tp2045
a(S'the'
g9
S'O'
tp2046
a(S'lamb'
g14
g12
tp2047
a(S'provided'
g5
S'O'
tp2048
a(S'a'
g67
S'O'
tp2049
a(S'slight'
g11
S'O'
tp2050
a(S'disappointment'
g14
S'O'
tp2051
a(S','
S','
S'O'
tp2052
a(S'the'
g9
S'O'
tp2053
a(S'evening'
g25
S'O'
tp2054
a(S'overall'
g14
S'O'
tp2055
a(S'was'
g5
S'O'
tp2056
a(S'impressive'
g11
S'O'
tp2057
a(S'.'
S'.'
S'O'
tp2058
aa(lp2059
(S'Spiced'
g101
S'O'
tp2060
a(S'wine'
g14
S'O'
tp2061
a(S'check'
g14
S'O'
tp2062
a(S'Belly'
g101
S'O'
tp2063
a(S'Dancers'
g101
S'O'
tp2064
a(S'check'
g60
S'O'
tp2065
a(S'Fun'
g101
S'O'
tp2066
a(S'music'
S'NN'
S'O'
tp2067
a(S'check'
g14
S'O'
tp2068
a(S'Yummy'
g101
S'O'
tp2069
a(S'food'
g622
g12
tp2070
a(S'check'
g14
S'O'
tp2071
a(S'Atmosphere'
g101
S'O'
tp2072
a(S'check'
g14
S'O'
tp2073
a(S'Hookah'
g101
S'O'
tp2074
a(S'check'
g14
S'O'
tp2075
a(S'Location'
g101
S'O'
tp2076
a(S'check'
g14
S'O'
tp2077
aa(lp2078
(S'Now'
S'RB'
S'O'
tp2079
a(S"that's"
g23
S'O'
tp2080
a(S'good'
g11
S'O'
tp2081
a(S'and'
g16
S'O'
tp2082
a(S'fresh'
g11
S'O'
tp2083
a(S'fish'
g14
g12
tp2084
a(S'!'
S'.'
S'O'
tp2085
aa(lp2086
(S'The'
g99
S'O'
tp2087
a(S'wine'
g14
S'O'
tp2088
a(S'flowed'
g5
S'O'
tp2089
a(S','
S','
S'O'
tp2090
a(S'red'
g11
S'O'
tp2091
a(S'and'
g16
S'O'
tp2092
a(S'white'
g609
S'O'
tp2093
a(S','
S','
S'O'
tp2094
a(S'both'
g82
S'O'
tp2095
a(S'very'
g23
S'O'
tp2096
a(S'good'
g11
S'O'
tp2097
a(S'.'
S'.'
S'O'
tp2098
aa(lp2099
(S'My'
g108
S'O'
tp2100
a(S'friend'
g14
S'O'
tp2101
a(S'loves'
g275
S'O'
tp2102
a(S'the'
g9
S'O'
tp2103
a(S'tortilla'
g14
g12
tp2104
a(S'soup'
g14
g12
tp2105
a(S'('
S'('
S'O'
tp2106
a(S'me'
g658
S'O'
tp2107
a(S','
S','
S'O'
tp2108
a(S'I'
g73
S'O'
tp2109
a(S'think'
g173
S'O'
tp2110
a(S"it's"
g11
S'O'
tp2111
a(S'ok'
g14
S'O'
tp2112
a(S')'
S')'
S'O'
tp2113
a(S'.'
S'.'
S'O'
tp2114
aa.