(lp1
(lp2
(S'Thai'
S'NNP'
p3
S'O'
tp4
a(S'Cottage'
g3
S'O'
tp5
a(S'starts'
S'VBZ'
p6
S'O'
tp7
a(S'with'
S'IN'
p8
S'O'
tp9
a(S'a'
S'DT'
p10
S'O'
tp11
a(S'great'
S'JJ'
p12
S'O'
tp13
a(S'family'
S'NN'
S'O'
tp14
a(S'feel'
S'NN'
p15
S'O'
tp16
a(S'.'
S'.'
S'O'
tp17
a(S'.'
S'.'
S'O'
tp18
a(S'.'
S'.'
S'O'
tp19
a(S'a'
g10
S'O'
tp20
a(S'famiiy'
g15
S'O'
tp21
a(S'owned'
S'VBN'
p22
S'O'
tp23
a(S'restaurant'
g15
S'O'
tp24
a(S'with'
g8
S'O'
tp25
a(S'a'
g10
S'O'
tp26
a(S'slight'
S'JJ'
p27
S'O'
tp28
a(S'hole'
g15
S'O'
tp29
a(S'in'
S'IN'
p30
S'O'
tp31
a(S'the'
S'DT'
p32
S'O'
tp33
a(S'wall'
g15
S'O'
tp34
a(S'feel'
g15
S'O'
tp35
a(S','
S','
S'O'
tp36
a(S'but'
S'CC'
p37
S'O'
tp38
a(S'not'
S'RB'
p39
S'O'
tp40
a(S'in'
g30
S'O'
tp41
a(S'a'
g10
S'O'
tp42
a(S'dirty'
g27
S'O'
tp43
a(S'way'
S'NN'
p44
S'O'
tp45
a(S'.'
S'.'
S'O'
tp46
aa(lp47
(S'Best'
S'JJS'
p48
S'O'
tp49
a(S'pizza'
g15
S'FOOD'
p50
tp51
a(S'in'
g30
S'O'
tp52
a(S'North'
g3
S'O'
tp53
a(S'Beach'
g3
S'O'
tp54
a(S','
S','
S'O'
tp55
a(S'hands'
g6
S'O'
tp56
a(S'down'
S'RB'
p57
S'O'
tp58
a(S'.'
S'.'
S'O'
tp59
aa(lp60
(S'However'
S'RB'
p61
S'O'
tp62
a(S','
S','
S'O'
tp63
a(S'the'
g32
S'O'
tp64
a(S'main'
S'JJ'
S'O'
tp65
a(S'event'
S'NN'
S'O'
tp66
a(S'and'
S'CC'
p67
S'O'
tp68
a(S'reason'
S'NN'
S'O'
tp69
a(S'for'
S'IN'
p70
S'O'
tp71
a(S'my'
S'PRP$'
p72
S'O'
tp73
a(S'4'
S'CD'
p74
S'O'
tp75
a(S'.'
S'.'
S'O'
tp76
a(S'5'
S'CD'
S'O'
tp77
a(S'star'
g15
S'O'
tp78
a(S'rating'
S'NN'
S'O'
tp79
a(S'is'
S'VBZ'
p80
S'O'
tp81
a(S'the'
g32
S'O'
tp82
a(S'pizza'
g15
g50
tp83
a(S'crust'
g15
S'O'
tp84
a(S'.'
S'.'
S'O'
tp85
aa(lp86
(S'Love'
S'VB'
p87
S'O'
tp88
a(S'the'
g32
S'O'
tp89
a(S'sticky'
g27
g50
tp90
a(S'rice'
g15
g50
tp91
a(S'.'
S'.'
S'O'
tp92
aa(lp93
(S'Our'
S'PRP$'
p94
S'O'
tp95
a(S'favorite'
g27
S'O'
tp96
a(S'dishes'
S'NNS'
p97
S'O'
tp98
a(S'Lotus'
g3
g50
tp99
a(S'chips'
S'NNS'
p100
g50
tp101
a(S'Wild'
g3
g50
tp102
a(S'rice'
g15
g50
tp103
a(S'salad'
g15
g50
tp104
a(S'with'
g8
g50
tp105
a(S'Salmon'
g3
g50
tp106
a(S'Pork'
g3
g50
tp107
a(S'and'
g67
S'O'
tp108
a(S'beans'
g97
g50
tp109
a(S'and'
g67
S'O'
tp110
a(S'Black'
g3
g50
tp111
a(S'Rice'
g3
g50
tp112
a(S'topped'
S'VBD'
p113
S'O'
tp114
a(S'with'
g8
S'O'
tp115
a(S'Ice'
g3
g50
tp116
a(S'Cream'
g3
g50
tp117
a(S'desert'
g87
S'O'
tp118
a(S'Our'
g94
S'O'
tp119
a(S'4'
g74
S'O'
tp120
a(S'years'
S'NNS'
S'O'
tp121
a(S'old'
S'JJ'
p122
S'O'
tp123
a(S'also'
S'RB'
p124
S'O'
tp125
a(S'enjoyed'
S'VBP'
p126
S'O'
tp127
a(S'all'
S'PDT'
p128
S'O'
tp129
a(S'the'
g32
S'O'
tp130
a(S'dishes'
g97
S'O'
tp131
a(S'.'
S'.'
S'O'
tp132
aa(lp133
(S'they'
S'PRP'
p134
S'O'
tp135
a(S'have'
g126
S'O'
tp136
a(S'this'
S'DT'
p137
S'O'
tp138
a(S'mochi'
g15
g50
tp139
a(S'ball'
g15
g50
tp140
a(S'with'
g8
S'O'
tp141
a(S'sweet'
g27
S'O'
tp142
a(S'fillings'
g97
S'O'
tp143
a(S'like'
S'IN'
p144
S'O'
tp145
a(S'sesame'
g15
S'O'
tp146
a(S'paste'
g15
S'O'
tp147
a(S','
S','
S'O'
tp148
a(S'in'
g30
S'O'
tp149
a(S'hot'
g27
g50
tp150
a(S'sweet'
g27
g50
tp151
a(S'soups'
g97
g50
tp152
a(S'desert'
g15
S'O'
tp153
a(S'which'
S'WDT'
p154
S'O'
tp155
a(S'hits'
g6
S'O'
tp156
a(S'the'
g32
S'O'
tp157
a(S'spot'
g15
S'O'
tp158
a(S'.'
S'.'
S'O'
tp159
aa(lp160
(S'Yeah'
S'UH'
S'O'
tp161
a(S','
S','
S'O'
tp162
a(S'the'
g32
S'O'
tp163
a(S'ordering'
g15
S'O'
tp164
a(S'and'
g67
S'O'
tp165
a(S'paying'
S'VBG'
p166
S'O'
tp167
a(S'part'
S'NN'
S'O'
tp168
a(S'sounds'
g6
S'O'
tp169
a(S'kinda'
g27
S'O'
tp170
a(S'chaotic'
g27
S'O'
tp171
a(S','
S','
S'O'
tp172
a(S'because'
g144
S'O'
tp173
a(S'it'
S'PRP'
p174
S'O'
tp175
a(S'kind'
S'NN'
p176
S'O'
tp177
a(S'of'
S'IN'
p178
S'O'
tp179
a(S'is'
g80
S'O'
tp180
a(S','
S','
S'O'
tp181
a(S'but'
g37
S'O'
tp182
a(S'its'
S'PRP$'
p183
S'O'
tp184
a(S'nothing'
S'NN'
p185
S'O'
tp186
a(S'much'
g57
S'O'
tp187
a(S'to'
S'TO'
p188
S'O'
tp189
a(S'complain'
g87
S'O'
tp190
a(S'about'
g144
S'O'
tp191
a(S'when'
S'WRB'
p192
S'O'
tp193
a(S"you're"
g15
S'O'
tp194
a(S'only'
g57
S'O'
tp195
a(S'paying'
g166
S'O'
tp196
a(S'about'
g144
S'O'
tp197
a(S'7'
S'CD'
S'O'
tp198
a(S'for'
g70
S'O'
tp199
a(S'a'
g10
S'O'
tp200
a(S'curry'
g27
g50
tp201
a(S'dish'
g15
g50
tp202
a(S'.'
S'.'
S'O'
tp203
aa(lp204
(S'Big'
g15
S'O'
tp205
a(S'for'
g70
S'O'
tp206
a(S'this'
g137
S'O'
tp207
a(S'soup'
g15
g50
tp208
a(S'I'
S'PRP'
p209
S'O'
tp210
a(S'think'
g126
S'O'
tp211
a(S"it's"
g27
S'O'
tp212
a(S'my'
g72
S'O'
tp213
a(S'favorite'
g27
S'O'
tp214
a(S'thing'
S'NN'
S'O'
tp215
a(S'ever'
S'RB'
p216
S'O'
tp217
a(S'in'
g30
S'O'
tp218
a(S'soup'
g27
g50
tp219
a(S'form'
g15
S'O'
tp220
a(S'.'
S'.'
S'O'
tp221
aa(lp222
(S'We'
S'PRP'
p223
S'O'
tp224
a(S'also'
g124
S'O'
tp225
a(S'got'
g113
S'O'
tp226
a(S'the'
g32
S'O'
tp227
a(S'broccoli'
g15
g50
tp228
a(S'au'
g15
g50
tp229
a(S'gratin'
g15
g50
tp230
a(S'('
S'('
S'O'
tp231
a(S'mega'
g27
g50
tp232
a(S'cheese'
g15
g50
tp233
a(S')'
S')'
S'O'
tp234
a(S','
S','
S'O'
tp235
a(S'and'
g67
S'O'
tp236
a(S'the'
g32
S'O'
tp237
a(S'lyonnaise'
g15
g50
tp238
a(S'potatoes'
g97
g50
tp239
a(S'.'
S'.'
S'O'
tp240
aa(lp241
(S'marinated'
g22
g50
tp242
a(S'chicken'
g15
g50
tp243
a(S'.'
S'.'
S'O'
tp244
aa(lp245
(S'Tasty'
g3
g50
tp246
a(S'pork'
g15
g50
tp247
a(S'parts'
S'NNS'
g50
tp248
a(S'with'
g8
g50
tp249
a(S'garlic'
g27
g50
tp250
a(S'fried'
g22
g50
tp251
a(S'rice'
g15
g50
tp252
a(S'and'
g67
S'O'
tp253
a(S'two'
S'CD'
p254
g50
tp255
a(S'eggs'
g97
g50
tp256
a(S'on'
S'IN'
p257
S'O'
tp258
a(S'top'
g15
S'O'
tp259
a(S','
S','
S'O'
tp260
a(S'heaven'
g57
S'O'
tp261
a(S'!'
S'.'
S'O'
tp262
aa(lp263
(S'The'
S'DT'
p264
S'O'
tp265
a(S'crab'
g15
g50
tp266
a(S'cakes'
g97
g50
tp267
a(S'came'
S'VBD'
p268
S'O'
tp269
a(S'out'
g57
S'O'
tp270
a(S'and'
g67
S'O'
tp271
a(S'were'
S'VBD'
p272
S'O'
tp273
a(S'perfection'
g15
S'O'
tp274
a(S'.'
S'.'
S'O'
tp275
aa(lp276
(S'Not'
S'RB'
S'O'
tp277
a(S'feeling'
S'VBG'
p278
S'O'
tp279
a(S'like'
g144
S'O'
tp280
a(S'chicken'
g15
g50
tp281
a(S'?'
S'.'
S'O'
tp282
aa(lp283
(S'The'
g264
S'O'
tp284
a(S'rice'
g15
g50
tp285
a(S'noodles'
g97
g50
tp286
a(S'.'
S'.'
S'O'
tp287
a(S'.'
S'.'
S'O'
tp288
a(S'.'
S'.'
S'O'
tp289
a(S'ehh'
g15
S'O'
tp290
a(S'nothing'
g185
S'O'
tp291
a(S'special'
g27
S'O'
tp292
a(S'.'
S'.'
S'O'
tp293
aa(lp294
(S'Honestly'
g57
S'O'
tp295
a(S','
S','
S'O'
tp296
a(S'the'
g32
S'O'
tp297
a(S'steak'
g15
g50
tp298
a(S'is'
g80
S'O'
tp299
a(S'great'
g12
S'O'
tp300
a(S'alone'
g57
S'O'
tp301
a(S'!'
S'.'
S'O'
tp302
aa(lp303
(S'The'
g264
S'O'
tp304
a(S'shrimp'
g15
g50
tp305
a(S'are'
S'VBP'
p306
S'O'
tp307
a(S'actually'
S'RB'
S'O'
tp308
a(S'de'
g57
S'O'
tp309
a(S'veined'
g22
S'O'
tp310
a(S'here'
S'RB'
p311
S'O'
tp312
a(S'!'
S'.'
S'O'
tp313
a(S'!'
S'.'
S'O'
tp314
a(S'!'
S'.'
S'O'
tp315
a(S'!'
S'.'
S'O'
tp316
aa(lp317
(S'The'
g264
S'O'
tp318
a(S'steak'
g15
g50
tp319
a(S'was'
g113
S'O'
tp320
a(S'around'
g144
S'O'
tp321
a(S'6oz'
S'CD'
p322
g50
tp323
a(S'and'
g67
S'O'
tp324
a(S'it'
g174
S'O'
tp325
a(S'came'
g268
S'O'
tp326
a(S'with'
g8
S'O'
tp327
a(S'fries'
g97
g50
tp328
a(S'ketchup'
g126
g50
tp329
a(S'.'
S'.'
S'O'
tp330
aa(lp331
(S'I'
g209
S'O'
tp332
a(S'thought'
g113
S'O'
tp333
a(S'the'
g32
S'O'
tp334
a(S'sushi'
g15
g50
tp335
a(S'was'
g113
S'O'
tp336
a(S'good'
g27
S'O'
tp337
a(S','
S','
S'O'
tp338
a(S'and'
g67
S'O'
tp339
a(S'the'
g32
S'O'
tp340
a(S'experience'
g15
S'O'
tp341
a(S'was'
g113
S'O'
tp342
a(S'really'
S'RB'
p343
S'O'
tp344
a(S'fun'
g27
S'O'
tp345
a(S'.'
S'.'
S'O'
tp346
aa(lp347
(S'The'
g264
S'O'
tp348
a(S'mussels'
g97
g50
tp349
a(S'were'
g272
S'O'
tp350
a(S'perfect'
g27
S'O'
tp351
a(S'and'
g67
S'O'
tp352
a(S'the'
g32
S'O'
tp353
a(S'sauce'
g15
g50
tp354
a(S'they'
g134
S'O'
tp355
a(S'came'
g268
S'O'
tp356
a(S'in'
g30
S'O'
tp357
a(S'.'
S'.'
S'O'
tp358
a(S'.'
S'.'
S'O'
tp359
a(S'.'
S'.'
S'O'
tp360
a(S'OMG'
g3
S'O'
tp361
a(S'.'
S'.'
S'O'
tp362
aa(lp363
(S'I'
g209
S'O'
tp364
a(S'like'
g126
S'O'
tp365
a(S'how'
S'WRB'
S'O'
tp366
a(S'you'
S'PRP'
p367
S'O'
tp368
a(S'can'
S'MD'
p369
S'O'
tp370
a(S'choose'
g87
S'O'
tp371
a(S'the'
g32
S'O'
tp372
a(S'type'
g15
S'O'
tp373
a(S','
S','
S'O'
tp374
a(S'preparation'
g15
S'O'
tp375
a(S','
S','
S'O'
tp376
a(S'and'
g67
S'O'
tp377
a(S'sauce'
g15
g50
tp378
a(S'for'
g70
S'O'
tp379
a(S'the'
g32
S'O'
tp380
a(S'fish'
g15
g50
tp381
a(S'.'
S'.'
S'O'
tp382
aa(lp383
(S'The'
g264
S'O'
tp384
a(S'pizza'
g15
g50
tp385
a(S'is'
g80
S'O'
tp386
a(S'just'
S'RB'
p387
S'O'
tp388
a(S'normal'
S'JJ'
S'O'
tp389
a(S'pizza'
g15
g50
tp390
a(S'that'
g144
S'O'
tp391
a(S'you'
g367
S'O'
tp392
a(S'can'
g369
S'O'
tp393
a(S'get'
g87
S'O'
tp394
a(S'anywhere'
g57
S'O'
tp395
a(S'else'
g57
S'O'
tp396
a(S'.'
S'.'
S'O'
tp397
aa(lp398
(S'The'
g264
S'O'
tp399
a(S'caramelized'
g27
g50
tp400
a(S'french'
g27
g50
tp401
a(S'toast'
g15
g50
tp402
a(S'and'
g67
g50
tp403
a(S'hazelnut'
g15
g50
tp404
a(S'ice'
g15
g50
tp405
a(S'cream'
g15
g50
tp406
a(S'is'
g80
S'O'
tp407
a(S'such'
g27
S'O'
tp408
a(S'an'
S'DT'
p409
S'O'
tp410
a(S'unexpected'
g27
S'O'
tp411
a(S'dessert'
g15
S'O'
tp412
a(S'and'
g67
S'O'
tp413
a(S'believe'
g87
S'O'
tp414
a(S'me'
S'PRP'
p415
S'O'
tp416
a(S'it'
g174
S'O'
tp417
a(S'does'
S'VBZ'
S'O'
tp418
a(S'not'
g39
S'O'
tp419
a(S'disappoint'
g87
S'O'
tp420
a(S'.'
S'.'
S'O'
tp421
aa(lp422
(S'At'
S'IN'
S'O'
tp423
a(S'the'
g32
S'O'
tp424
a(S'end'
g15
S'O'
tp425
a(S'of'
g178
S'O'
tp426
a(S'it'
g174
S'O'
tp427
a(S'meal'
g6
S'O'
tp428
a(S'we'
S'PRP'
p429
S'O'
tp430
a(S'got'
g113
S'O'
tp431
a(S'a'
g10
S'O'
tp432
a(S'sweet'
g27
g50
tp433
a(S'cinnamon'
g15
g50
tp434
a(S'drink'
g15
g50
tp435
a(S'.'
S'.'
S'O'
tp436
aa(lp437
(S'I'
g209
S'O'
tp438
a(S'only'
g57
S'O'
tp439
a(S'eat'
g126
S'O'
tp440
a(S'veggie'
g27
g50
tp441
a(S'sushi'
g15
g50
tp442
a(S'though'
g144
S'O'
tp443
a(S','
S','
S'O'
tp444
a(S'so'
g144
S'O'
tp445
a(S'I'
g209
S'O'
tp446
a(S"can't"
g126
S'O'
tp447
a(S'speak'
g87
S'O'
tp448
a(S'too'
S'RB'
p449
S'O'
tp450
a(S'much'
g27
S'O'
tp451
a(S'for'
g70
S'O'
tp452
a(S'the'
g32
S'O'
tp453
a(S'food'
S'NN'
p454
S'O'
tp455
a(S'.'
S'.'
S'O'
tp456
aa(lp457
(S'and'
g67
S'O'
tp458
a(S'there'
S'EX'
p459
S'O'
tp460
a(S'was'
g113
S'O'
tp461
a(S'a'
g10
S'O'
tp462
a(S'dark'
g27
g50
tp463
a(S'chocolate'
g15
g50
tp464
a(S'kind'
g176
S'O'
tp465
a(S'with'
g8
S'O'
tp466
a(S'homemade'
g15
g50
tp467
a(S'strawberry'
g15
g50
tp468
a(S'('
S'('
S'O'
tp469
a(S'?'
S'.'
S'O'
tp470
a(S')'
S')'
S'O'
tp471
aa(lp472
(S'My'
g183
S'O'
tp473
a(S'favorite'
g27
S'O'
tp474
a(S'ice'
g15
g50
tp475
a(S'cream'
g15
g50
tp476
a(S'flavor'
g15
S'O'
tp477
a(S'is'
g80
S'O'
tp478
a(S'Mint'
g3
g50
tp479
a(S'Chip'
g3
g50
tp480
a(S','
S','
S'O'
tp481
a(S'but'
g37
S'O'
tp482
a(S'at'
S'IN'
p483
S'O'
tp484
a(S"Swensen's"
g3
S'O'
tp485
a(S"it's"
g126
S'O'
tp486
a(S'Swiss'
S'JJ'
S'FOOD'
tp487
a(S'Orange'
g3
g50
tp488
a(S'Chip'
g3
g50
tp489
a(S','
S','
S'O'
tp490
a(S'which'
g154
S'O'
tp491
a(S'is'
g80
S'O'
tp492
a(S'less'
S'JJR'
p493
S'O'
tp494
a(S'than'
S'IN'
p495
S'O'
tp496
a(S'super'
g493
g50
tp497
a(S'sweet'
g15
g50
tp498
a(S'chocolate'
g15
g50
tp499
a(S'ice'
g15
g50
tp500
a(S'cream'
g15
g50
tp501
a(S'with'
g8
g50
tp502
a(S'a'
g10
g50
tp503
a(S'subtle'
g27
S'O'
tp504
a(S'orange'
g15
g50
tp505
a(S'flavor'
g15
g50
tp506
a(S','
S','
S'O'
tp507
a(S'plus'
S'CC'
S'O'
tp508
a(S'chocolate'
g27
g50
tp509
a(S'chips'
g100
g50
tp510
a(S'.'
S'.'
S'O'
tp511
aa(lp512
(S'Good'
g27
S'O'
tp513
a(S'veggie'
g15
g50
tp514
a(S'sandwich'
g15
g50
tp515
a(S'though'
g144
S'O'
tp516
a(S'.'
S'.'
S'O'
tp517
aa(lp518
(S'I'
g209
S'O'
tp519
a(S'had'
g113
S'O'
tp520
a(S'a'
g10
S'O'
tp521
a(S'bite'
g15
S'O'
tp522
a(S'of'
g178
S'O'
tp523
a(S'his'
S'PRP$'
S'O'
tp524
a(S'bacon'
g15
g50
tp525
a(S','
S','
S'O'
tp526
a(S'and'
g67
S'O'
tp527
a(S'it'
g174
S'O'
tp528
a(S'was'
g113
S'O'
tp529
a(S'as'
g144
S'O'
tp530
a(S'others'
S'NNS'
S'O'
tp531
a(S'have'
g126
S'O'
tp532
a(S'said'
S'VBD'
S'O'
tp533
a(S','
S','
S'O'
tp534
a(S'lovely'
g57
S'O'
tp535
a(S'.'
S'.'
S'O'
tp536
aa(lp537
(S'I'
g209
S'O'
tp538
a(S'get'
g126
S'O'
tp539
a(S'combo'
g27
g50
tp540
a(S'3'
g322
g50
tp541
a(S'.'
S'.'
S'O'
tp542
aa(lp543
(S'Wonderful'
g3
S'O'
tp544
a(S','
S','
S'O'
tp545
a(S'had'
g113
S'O'
tp546
a(S'the'
g32
S'O'
tp547
a(S'fish'
g27
g50
tp548
a(S'and'
g67
g50
tp549
a(S'chips'
g100
g50
tp550
a(S'.'
S'.'
S'O'
tp551
aa(lp552
(S'One'
g322
S'O'
tp553
a(S'of'
g178
S'O'
tp554
a(S'the'
g32
S'O'
tp555
a(S'best'
g48
S'O'
tp556
a(S'corned'
g27
g50
tp557
a(S'beef'
g15
g50
tp558
a(S"sandwich's"
g15
g50
tp559
a(S"I've"
g3
S'O'
tp560
a(S'had'
g113
S'O'
tp561
a(S'anywhere'
g57
S'O'
tp562
a(S'.'
S'.'
S'O'
tp563
aa(lp564
(S'Be'
g3
S'O'
tp565
a(S'aware'
g27
S'O'
tp566
a(S'that'
g144
S'O'
tp567
a(S'a'
g10
S'O'
tp568
a(S'lot'
g15
S'O'
tp569
a(S'of'
g178
S'O'
tp570
a(S'the'
g32
S'O'
tp571
a(S'kim'
g15
g50
tp572
a(S'chi'
g15
g50
tp573
a(S'marinade'
g113
g50
tp574
a(S'sauce'
g15
g50
tp575
a(S'goes'
S'VBZ'
S'O'
tp576
a(S'into'
S'IN'
S'O'
tp577
a(S'the'
g32
S'O'
tp578
a(S'burrito'
S'NN'
S'FOOD'
tp579
a(S'and'
g67
S'O'
tp580
a(S'might'
S'MD'
p581
S'O'
tp582
a(S'spill'
g87
S'O'
tp583
a(S'when'
g192
S'O'
tp584
a(S'you'
g367
S'O'
tp585
a(S'eat'
g126
S'O'
tp586
a(S'it'
g174
S'O'
tp587
a(S'.'
S'.'
S'O'
tp588
aa(lp589
(S'You'
S'PRP'
S'O'
tp590
a(S'can'
g369
S'O'
tp591
a(S'either'
g87
S'O'
tp592
a(S'buy'
g87
S'O'
tp593
a(S'pre'
g97
S'O'
tp594
a(S'made'
g22
S'O'
tp595
a(S','
S','
S'O'
tp596
a(S'fresh'
g27
S'O'
tp597
a(S'Bento'
g3
g50
tp598
a(S'OR'
g3
S'O'
tp599
a(S'make'
g87
S'O'
tp600
a(S'your'
S'PRP$'
p601
S'O'
tp602
a(S'own'
g27
S'O'
tp603
a(S'.'
S'.'
S'O'
tp604
aa(lp605
(S'I'
g209
S'O'
tp606
a(S'got'
g113
S'O'
tp607
a(S'the'
g32
S'O'
tp608
a(S'blood'
g15
g50
tp609
a(S'orange'
g15
g50
tp610
a(S'chocolate'
g15
g50
tp611
a(S'tart'
g15
g50
tp612
a(S'that'
g154
S'O'
tp613
a(S'came'
g268
S'O'
tp614
a(S'with'
g8
S'O'
tp615
a(S'a'
g10
S'O'
tp616
a(S'scoop'
g15
S'O'
tp617
a(S'of'
g178
S'O'
tp618
a(S'homemade'
g15
g50
tp619
a(S'ice'
g15
g50
tp620
a(S'cream'
g15
g50
tp621
a(S','
S','
S'O'
tp622
a(S'which'
g154
S'O'
tp623
a(S'made'
g113
S'O'
tp624
a(S'a'
g10
S'O'
tp625
a(S'lovely'
g27
S'O'
tp626
a(S'compliment'
g15
S'O'
tp627
a(S'to'
g188
S'O'
tp628
a(S'the'
g32
S'O'
tp629
a(S'tart'
g15
g50
tp630
a(S'.'
S'.'
S'O'
tp631
aa(lp632
(S'The'
g264
S'O'
tp633
a(S'desserts'
g97
S'O'
tp634
a(S'are'
g306
S'O'
tp635
a(S'fantastic'
g27
S'O'
tp636
a(S','
S','
S'O'
tp637
a(S'and'
g67
S'O'
tp638
a(S'though'
g144
S'O'
tp639
a(S'i'
g15
S'O'
tp640
a(S'probably'
S'RB'
S'O'
tp641
a(S"won't"
g113
S'O'
tp642
a(S'be'
S'VB'
p643
S'O'
tp644
a(S'eating'
g278
S'O'
tp645
a(S'here'
g311
S'O'
tp646
a(S'often'
S'RB'
S'O'
tp647
a(S','
S','
S'O'
tp648
a(S'i'
g27
S'O'
tp649
a(S'might'
g581
S'O'
tp650
a(S'just'
g387
S'O'
tp651
a(S'come'
g87
S'O'
tp652
a(S'back'
g57
S'O'
tp653
a(S'for'
g70
S'O'
tp654
a(S'a'
g10
S'O'
tp655
a(S'baileys'
g15
S'O'
tp656
a(S'and'
g67
S'O'
tp657
a(S'coffee'
g15
S'O'
tp658
a(S'.'
S'.'
S'O'
tp659
aa(lp660
(S'I'
g209
S'O'
tp661
a(S'ordered'
g113
S'O'
tp662
a(S'the'
g32
S'O'
tp663
a(S'sliders'
g97
g50
tp664
a(S','
S','
S'O'
tp665
a(S'but'
g37
S'O'
tp666
a(S'my'
g72
S'O'
tp667
a(S'favorite'
g15
S'O'
tp668
a(S'was'
g113
S'O'
tp669
a(S'the'
g32
S'O'
tp670
a(S'french'
g27
g50
tp671
a(S'fries'
g97
g50
tp672
a(S'that'
g154
S'O'
tp673
a(S'came'
g268
S'O'
tp674
a(S'with'
g8
S'O'
tp675
a(S'your'
g601
S'O'
tp676
a(S'choice'
S'NN'
S'O'
tp677
a(S'of'
g178
S'O'
tp678
a(S'dipping'
g278
S'O'
tp679
a(S'sauce'
g15
S'O'
tp680
a(S'.'
S'.'
S'O'
tp681
aa(lp682
(S'placed'
g22
S'O'
tp683
a(S'on'
g257
S'O'
tp684
a(S'over'
g144
S'O'
tp685
a(S'a'
g10
S'O'
tp686
a(S'chocolate'
g15
g50
tp687
a(S'drizzled'
g22
g50
tp688
a(S'plate'
g15
S'O'
tp689
a(S'.'
S'.'
S'O'
tp690
a(S'.'
S'.'
S'O'
tp691
a(S'.'
S'.'
S'O'
tp692
a(S'she'
S'PRP'
S'O'
tp693
a(S'had'
g113
S'O'
tp694
a(S'that'
g144
S'O'
tp695
a(S'w'
g27
S'O'
tp696
a(S'tea'
g15
S'O'
tp697
a(S'.'
S'.'
S'O'
tp698
aa(lp699
(S"I've"
g3
S'O'
tp700
a(S'been'
S'VBN'
p701
S'O'
tp702
a(S'going'
S'VBG'
p703
S'O'
tp704
a(S'to'
g188
S'O'
tp705
a(S'Anchor'
g3
g50
tp706
a(S'Oyster'
g3
g50
tp707
a(S'Bar'
g3
g50
tp708
a(S'ever'
g216
S'O'
tp709
a(S'since'
S'IN'
S'O'
tp710
a(S'I'
g209
S'O'
tp711
a(S'moved'
g113
S'O'
tp712
a(S'to'
g188
S'O'
tp713
a(S'SF'
g3
S'O'
tp714
a(S'('
S'('
S'O'
tp715
a(S"'97"
S'POS'
S'O'
tp716
a(S')'
S')'
S'O'
tp717
a(S'.'
S'.'
S'O'
tp718
aa(lp719
(S'I'
g209
S'O'
tp720
a(S'never'
S'RB'
S'O'
tp721
a(S'had'
g113
S'O'
tp722
a(S'baklava'
g22
g50
tp723
a(S'before'
g144
S'O'
tp724
a(S'but'
g37
S'O'
tp725
a(S"it's"
g87
S'O'
tp726
a(S'a'
g10
S'O'
tp727
a(S'bit'
g15
S'O'
tp728
a(S'too'
g449
S'O'
tp729
a(S'sweet'
g27
S'O'
tp730
a(S'for'
g70
S'O'
tp731
a(S'me'
g415
S'O'
tp732
a(S'because'
g144
S'O'
tp733
a(S'of'
g178
S'O'
tp734
a(S'all'
g128
S'O'
tp735
a(S'the'
g32
S'O'
tp736
a(S'honey'
S'NN'
S'FOOD'
tp737
a(S'they'
g134
S'O'
tp738
a(S'put'
g126
S'O'
tp739
a(S'in'
g30
S'O'
tp740
a(S'it'
g174
S'O'
tp741
a(S'.'
S'.'
S'O'
tp742
aa(lp743
(S'I'
g209
S'O'
tp744
a(S'liked'
g113
S'O'
tp745
a(S'the'
g32
S'O'
tp746
a(S'pizza'
g15
g50
tp747
a(S'cheese'
g27
g50
tp748
a(S'steak'
g15
g50
tp749
a(S'best'
g48
S'O'
tp750
a(S'.'
S'.'
S'O'
tp751
aa(lp752
(S"You're"
g3
S'O'
tp753
a(S'damn'
g15
S'O'
tp754
a(S'right'
g57
S'O'
tp755
a(S"it's"
g27
S'O'
tp756
a(S'full'
S'JJ'
p757
S'O'
tp758
a(S'of'
g178
S'O'
tp759
a(S'hot'
g27
S'O'
tp760
a(S'chicks'
g97
S'O'
tp761
a(S'.'
S'.'
S'O'
tp762
aa(lp763
(S'However'
g61
S'O'
tp764
a(S','
S','
S'O'
tp765
a(S'I'
g209
S'O'
tp766
a(S'was'
g113
S'O'
tp767
a(S'set'
g22
S'O'
tp768
a(S'on'
g257
S'O'
tp769
a(S'having'
S'VBG'
S'O'
tp770
a(S'my'
g72
S'O'
tp771
a(S'usual'
g27
S'O'
tp772
a(S'plate'
g15
S'O'
tp773
a(S'at'
g483
S'O'
tp774
a(S'Raintree'
g3
S'O'
tp775
a(S','
S','
S'O'
tp776
a(S'so'
g144
S'O'
tp777
a(S'I'
g209
S'O'
tp778
a(S'continued'
g113
S'O'
tp779
a(S'on'
g257
S'O'
tp780
a(S'until'
S'IN'
S'O'
tp781
a(S'I'
g209
S'O'
tp782
a(S'saw'
g113
S'O'
tp783
a(S'a'
g10
S'O'
tp784
a(S'huge'
S'JJ'
S'O'
tp785
a(S'line'
S'NN'
S'O'
tp786
a(S'outside'
g144
S'O'
tp787
a(S'.'
S'.'
S'O'
tp788
aa(lp789
(S'I'
g209
S'O'
tp790
a(S'really'
g343
S'O'
tp791
a(S'like'
g144
S'O'
tp792
a(S'the'
g32
S'O'
tp793
a(S'pizza'
g15
g50
tp794
a(S'here'
g311
S'O'
tp795
a(S'.'
S'.'
S'O'
tp796
aa(lp797
(S'The'
g264
S'O'
tp798
a(S'lamb'
g15
g50
tp799
a(S'is'
g80
S'O'
tp800
a(S'decent'
g27
S'O'
tp801
a(S'though'
g144
S'O'
tp802
a(S'not'
g39
S'O'
tp803
a(S'spectacular'
g27
S'O'
tp804
a(S'.'
S'.'
S'O'
tp805
aa(lp806
(S'Chicken'
g3
g50
tp807
a(S'Stuffed'
g3
g50
tp808
a(S'with'
g8
g50
tp809
a(S'bacon'
g15
g50
tp810
a(S'in'
g30
g50
tp811
a(S'a'
g10
g50
tp812
a(S'cream'
g15
g50
tp813
a(S'sauce'
g15
g50
tp814
a(S'very'
g57
S'O'
tp815
a(S'nice'
g57
S'O'
tp816
a(S'.'
S'.'
S'O'
tp817
aa(lp818
(S'We'
g223
S'O'
tp819
a(S'also'
g124
S'O'
tp820
a(S'tried'
g113
S'O'
tp821
a(S'some'
S'DT'
p822
S'O'
tp823
a(S'of'
g178
S'O'
tp824
a(S'the'
g32
S'O'
tp825
a(S'dessert'
g27
S'O'
tp826
a(S'wine'
g15
S'O'
tp827
a(S','
S','
S'O'
tp828
a(S'and'
g67
S'O'
tp829
a(S'the'
g32
S'O'
tp830
a(S'first'
g27
S'O'
tp831
a(S'one'
g15
S'O'
tp832
a(S'on'
g257
S'O'
tp833
a(S'the'
g32
S'O'
tp834
a(S'list'
g15
S'O'
tp835
a(S'was'
g113
S'O'
tp836
a(S'nice'
g27
S'O'
tp837
a(S'and'
g67
S'O'
tp838
a(S'sweet'
g27
S'O'
tp839
a(S'.'
S'.'
S'O'
tp840
aa(lp841
(S'For'
S'IN'
p842
S'O'
tp843
a(S'dessert'
g15
S'O'
tp844
a(S'we'
g429
S'O'
tp845
a(S'had'
g113
S'O'
tp846
a(S'what'
S'WP'
p847
S'O'
tp848
a(S'I'
g209
S'O'
tp849
a(S'called'
g113
S'O'
tp850
a(S'sink'
g15
g50
tp851
a(S'water'
S'NN'
p852
g50
tp853
a(S'rice'
g15
g50
tp854
a(S'and'
g67
g50
tp855
a(S'sugar'
g15
g50
tp856
a(S'.'
S'.'
S'O'
tp857
a(S'.'
S'.'
S'O'
tp858
a(S'.'
S'.'
S'O'
tp859
a(S'not'
g39
S'O'
tp860
a(S'pretty'
g57
S'O'
tp861
a(S','
S','
S'O'
tp862
a(S'but'
g37
S'O'
tp863
a(S'good'
g27
S'O'
tp864
a(S'!'
S'.'
S'O'
tp865
a(S'!'
S'.'
S'O'
tp866
aa(lp867
(S'The'
g264
S'O'
tp868
a(S'squid'
g15
g50
tp869
a(S'was'
g113
S'O'
tp870
a(S'cooked'
g22
S'O'
tp871
a(S'perfectly'
g57
S'O'
tp872
a(S'and'
g67
S'O'
tp873
a(S'went'
S'VBD'
S'O'
tp874
a(S'really'
g343
S'O'
tp875
a(S'well'
g57
S'O'
tp876
a(S'with'
g8
S'O'
tp877
a(S'the'
g32
S'O'
tp878
a(S'roasted'
g27
g50
tp879
a(S'pepper'
g15
g50
tp880
a(S','
S','
S'O'
tp881
a(S'rice'
g15
g50
tp882
a(S'and'
g67
S'O'
tp883
a(S'ink'
g15
g50
tp884
a(S'.'
S'.'
S'O'
tp885
aa(lp886
(S'Their'
g183
S'O'
tp887
a(S'shrimp'
g15
g50
tp888
a(S'and'
g67
g50
tp889
a(S'chives'
g97
g50
tp890
a(S'dumplings'
g97
g50
tp891
a(S'are'
g306
S'O'
tp892
a(S'so'
g57
S'O'
tp893
a(S'delicious'
g27
S'O'
tp894
a(S'.'
S'.'
S'O'
tp895
aa(lp896
(S'The'
g264
S'O'
tp897
a(S'tofu'
g15
g50
tp898
a(S'soup'
g15
g50
tp899
a(S'was'
g113
S'O'
tp900
a(S'boiling'
g278
S'O'
tp901
a(S'hot'
g27
S'O'
tp902
a(S'just'
g387
S'O'
tp903
a(S'the'
g32
S'O'
tp904
a(S'way'
g44
S'O'
tp905
a(S'I'
g209
S'O'
tp906
a(S'like'
g144
S'O'
tp907
a(S'it'
g174
S'O'
tp908
a(S'!'
S'.'
S'O'
tp909
aa(lp910
(S'This'
S'DT'
S'O'
tp911
a(S'means'
g6
S'O'
tp912
a(S'two'
g254
S'O'
tp913
a(S'things'
S'NNS'
S'O'
tp914
a(S'1'
S'CD'
S'O'
tp915
a(S'it'
g174
S'O'
tp916
a(S'is'
g80
S'O'
tp917
a(S'a'
g10
S'O'
tp918
a(S'damn'
g57
S'O'
tp919
a(S'good'
g27
S'O'
tp920
a(S'half'
g15
S'O'
tp921
a(S'sour'
g27
g50
tp922
a(S'pickle'
g15
g50
tp923
a(S'and'
g67
S'O'
tp924
a(S'2'
S'CD'
S'O'
tp925
a(S'voting'
g15
S'O'
tp926
a(S'has'
S'VBZ'
p927
S'O'
tp928
a(S'really'
g343
S'O'
tp929
a(S'lost'
g22
S'O'
tp930
a(S'its'
g183
S'O'
tp931
a(S'legitimacy'
g15
S'O'
tp932
a(S'.'
S'.'
S'O'
tp933
aa(lp934
(S'It'
S'PRP'
p935
S'O'
tp936
a(S'was'
g113
S'O'
tp937
a(S'a'
g10
S'O'
tp938
a(S'Russian'
g27
S'O'
tp939
a(S'style'
S'NN'
p940
S'O'
tp941
a(S'banquet'
g15
S'O'
tp942
a(S'with'
g8
S'O'
tp943
a(S'all'
g128
S'O'
tp944
a(S'the'
g32
S'O'
tp945
a(S'fixing'
g278
S'O'
tp946
a(S'on'
g257
S'O'
tp947
a(S'the'
g32
S'O'
tp948
a(S'table'
g15
S'O'
tp949
a(S'.'
S'.'
S'O'
tp950
aa(lp951
(S'I'
g209
S'O'
tp952
a(S"can't"
g126
S'O'
tp953
a(S'comment'
g87
S'O'
tp954
a(S'to'
g188
S'O'
tp955
a(S'much'
g27
S'O'
tp956
a(S'being'
S'VBG'
S'O'
tp957
a(S'that'
g144
S'O'
tp958
a(S'I'
g209
S'O'
tp959
a(S'mainly'
g57
S'O'
tp960
a(S'just'
g387
S'O'
tp961
a(S'snacked'
g22
S'O'
tp962
a(S'on'
g257
S'O'
tp963
a(S'my'
g72
S'O'
tp964
a(S'friends'
g97
S'O'
tp965
a(S'chicken'
g27
g50
tp966
a(S'skewers'
g97
g50
tp967
a(S'.'
S'.'
S'O'
tp968
aa(lp969
(S'Extra'
g27
S'O'
tp970
a(S'stars'
g97
S'O'
tp971
a(S'for'
g70
S'O'
tp972
a(S'hot'
g27
S'O'
tp973
a(S','
S','
S'O'
tp974
a(S'greek'
g27
S'O'
tp975
a(S'servers'
g97
S'O'
tp976
a(S';'
S':'
S'O'
tp977
a(S')'
S')'
S'O'
tp978
aa(lp979
(S'If'
S'IN'
p980
S'O'
tp981
a(S'the'
g32
S'O'
tp982
a(S'rice'
g15
g50
tp983
a(S'came'
g268
S'O'
tp984
a(S'out'
S'RP'
p985
S'O'
tp986
a(S'fresher'
g15
S'O'
tp987
a(S'('
S'('
S'O'
tp988
a(S'hotter'
g15
S'O'
tp989
a(S'and'
g67
S'O'
tp990
a(S'less'
g493
S'O'
tp991
a(S'dry'
g27
S'O'
tp992
a(S')'
S')'
S'O'
tp993
a(S'it'
g174
S'O'
tp994
a(S'would'
S'MD'
p995
S'O'
tp996
a(S'enhance'
g87
S'O'
tp997
a(S'the'
g32
S'O'
tp998
a(S'entree'
g15
S'O'
tp999
a(S'so'
g57
S'O'
tp1000
a(S'much'
g57
S'O'
tp1001
a(S'.'
S'.'
S'O'
tp1002
aa(lp1003
(S'I'
g209
S'O'
tp1004
a(S'have'
g126
S'O'
tp1005
a(S'found'
g22
S'O'
tp1006
a(S'the'
g32
S'O'
tp1007
a(S'atmosphere'
g15
S'O'
tp1008
a(S'cozy'
g15
S'O'
tp1009
a(S','
S','
S'O'
tp1010
a(S'the'
g32
S'O'
tp1011
a(S'staff'
S'NN'
S'O'
tp1012
a(S'fun'
g15
S'O'
tp1013
a(S','
S','
S'O'
tp1014
a(S'and'
g67
S'O'
tp1015
a(S'the'
g32
S'O'
tp1016
a(S'food'
g454
S'O'
tp1017
a(S'very'
g57
S'O'
tp1018
a(S'satisfying'
g27
S'O'
tp1019
a(S'.'
S'.'
S'O'
tp1020
aa(lp1021
(S'for'
g70
S'O'
tp1022
a(S'a'
g10
S'O'
tp1023
a(S'moment'
S'NN'
S'O'
tp1024
a(S'i'
g15
S'O'
tp1025
a(S'thought'
g113
S'O'
tp1026
a(S'maybe'
g57
S'O'
tp1027
a(S'we'
g429
S'O'
tp1028
a(S'were'
g272
S'O'
tp1029
a(S'in'
g30
S'O'
tp1030
a(S'the'
g32
S'O'
tp1031
a(S'wrong'
g27
S'O'
tp1032
a(S'block'
g15
S'O'
tp1033
a(S','
S','
S'O'
tp1034
a(S'as'
g144
S'O'
tp1035
a(S'the'
g32
S'O'
tp1036
a(S'restaurant'
g15
S'O'
tp1037
a(S'has'
g927
S'O'
tp1038
a(S'like'
g144
S'O'
tp1039
a(S'a'
g10
S'O'
tp1040
a(S'10'
S'CD'
S'O'
tp1041
a(S'foot'
g15
S'O'
tp1042
a(S'wide'
S'JJ'
S'O'
tp1043
a(S'front'
g15
S'O'
tp1044
a(S','
S','
S'O'
tp1045
a(S'with'
g8
S'O'
tp1046
a(S'a'
g10
S'O'
tp1047
a(S'small'
S'JJ'
S'O'
tp1048
a(S'neon'
g15
S'O'
tp1049
a(S'sign'
g15
S'O'
tp1050
a(S','
S','
S'O'
tp1051
a(S'which'
g154
S'O'
tp1052
a(S'you'
g367
S'O'
tp1053
a(S'can'
g369
S'O'
tp1054
a(S'quite'
g87
S'O'
tp1055
a(S'easily'
S'RB'
S'O'
tp1056
a(S'miss'
g15
S'O'
tp1057
a(S'.'
S'.'
S'O'
tp1058
aa(lp1059
(S"I've"
g3
S'O'
tp1060
a(S'only'
g57
S'O'
tp1061
a(S'had'
g113
S'O'
tp1062
a(S'the'
g32
S'O'
tp1063
a(S'corned'
g22
g50
tp1064
a(S'beef'
g15
g50
tp1065
a(S'and'
g67
g50
tp1066
a(S'brisket'
g15
g50
tp1067
a(S'sandwiches'
g97
g50
tp1068
a(S'here'
g311
S'O'
tp1069
a(S'and'
g67
S'O'
tp1070
a(S'both'
g409
S'O'
tp1071
a(S'were'
g272
S'O'
tp1072
a(S'scrumptious'
g27
S'O'
tp1073
a(S'.'
S'.'
S'O'
tp1074
aa(lp1075
(S'Prices'
g97
S'O'
tp1076
a(S'a'
g10
S'O'
tp1077
a(S'little'
g57
S'O'
tp1078
a(S'higher'
g493
S'O'
tp1079
a(S'than'
g495
S'O'
tp1080
a(S'I'
g209
S'O'
tp1081
a(S'thought'
g113
S'O'
tp1082
a(S"they'd"
g57
S'O'
tp1083
a(S'be'
g643
S'O'
tp1084
a(S','
S','
S'O'
tp1085
a(S'but'
g37
S'O'
tp1086
a(S'the'
g32
S'O'
tp1087
a(S'food'
g454
S'O'
tp1088
a(S'was'
g113
S'O'
tp1089
a(S'very'
g57
S'O'
tp1090
a(S'good'
g27
S'O'
tp1091
a(S'and'
g67
S'O'
tp1092
a(S'the'
g32
S'O'
tp1093
a(S'amount'
g15
S'O'
tp1094
a(S'of'
g178
S'O'
tp1095
a(S'fun'
g15
S'O'
tp1096
a(S'that'
g144
S'O'
tp1097
a(S'we'
g429
S'O'
tp1098
a(S'had'
g113
S'O'
tp1099
a(S'from'
S'IN'
S'O'
tp1100
a(S'the'
g32
S'O'
tp1101
a(S'spectacular'
g27
S'O'
tp1102
a(S'bands'
g97
S'O'
tp1103
a(S'was'
g113
S'O'
tp1104
a(S'well'
g57
S'O'
tp1105
a(S'worth'
g27
S'O'
tp1106
a(S'it'
g174
S'O'
tp1107
a(S'.'
S'.'
S'O'
tp1108
aa(lp1109
(S'And'
S'CC'
S'O'
tp1110
a(S'then'
S'RB'
S'O'
tp1111
a(S'every'
S'DT'
S'O'
tp1112
a(S'morsel'
g15
S'O'
tp1113
a(S'of'
g178
S'O'
tp1114
a(S'it'
g174
S'O'
tp1115
a(S'is'
g80
S'O'
tp1116
a(S'so'
g57
S'O'
tp1117
a(S'flavorful'
g27
S'O'
tp1118
a(S','
S','
S'O'
tp1119
a(S'so'
g57
S'O'
tp1120
a(S'juicy'
g15
S'O'
tp1121
a(S','
S','
S'O'
tp1122
a(S'with'
g8
S'O'
tp1123
a(S'such'
g27
S'O'
tp1124
a(S'subtle'
g27
S'O'
tp1125
a(S'flavors'
g97
S'O'
tp1126
a(S'of'
g178
S'O'
tp1127
a(S'herbs'
g15
g50
tp1128
a(S','
S','
S'O'
tp1129
a(S'butter'
g15
g50
tp1130
a(S','
S','
S'O'
tp1131
a(S'lemon'
g15
g50
tp1132
a(S','
S','
S'O'
tp1133
a(S'and'
g67
S'O'
tp1134
a(S'who'
g847
S'O'
tp1135
a(S'knows'
g6
S'O'
tp1136
a(S'what'
g847
S'O'
tp1137
a(S'else'
g57
S'O'
tp1138
a(S','
S','
S'O'
tp1139
a(S'that'
g144
S'O'
tp1140
a(S'you'
g367
S'O'
tp1141
a(S'think'
g126
S'O'
tp1142
a(S'it'
g174
S'O'
tp1143
a(S'should'
S'MD'
S'O'
tp1144
a(S'have'
g87
S'O'
tp1145
a(S'been'
g701
S'O'
tp1146
a(S'called'
g22
S'O'
tp1147
a(S'something'
S'NN'
S'O'
tp1148
a(S'different'
S'JJ'
S'O'
tp1149
a(S'on'
g257
S'O'
tp1150
a(S'the'
g32
S'O'
tp1151
a(S'menu'
g15
S'O'
tp1152
a(S'.'
S'.'
S'O'
tp1153
aa(lp1154
(S'The'
g264
S'O'
tp1155
a(S'perfect'
g27
S'O'
tp1156
a(S'amount'
g15
S'O'
tp1157
a(S'of'
g178
S'O'
tp1158
a(S'wine'
g15
S'O'
tp1159
a(S'as'
g57
S'O'
tp1160
a(S'well'
g57
S'O'
tp1161
a(S'as'
g144
S'O'
tp1162
a(S'the'
g32
S'O'
tp1163
a(S'perfect'
g27
S'O'
tp1164
a(S'complement'
g15
S'O'
tp1165
a(S'to'
g188
S'O'
tp1166
a(S'red'
g27
g50
tp1167
a(S'meat'
g15
g50
tp1168
a(S'.'
S'.'
S'O'
tp1169
aa(lp1170
(S'A'
g409
S'O'
tp1171
a(S'place'
g15
S'O'
tp1172
a(S'you'
g367
S'O'
tp1173
a(S'go'
g126
S'O'
tp1174
a(S'with'
g8
S'O'
tp1175
a(S'large'
S'JJ'
p1176
S'O'
tp1177
a(S'groups'
S'NNS'
S'O'
tp1178
a(S'to'
g188
S'O'
tp1179
a(S'enjoy'
g87
S'O'
tp1180
a(S'cheesy'
g27
S'O'
tp1181
a(S'ambiance'
g15
S'O'
tp1182
a(S'and'
g67
S'O'
tp1183
a(S'mass'
g15
S'O'
tp1184
a(S'produced'
g22
S'O'
tp1185
a(S'food'
g454
S'O'
tp1186
a(S'.'
S'.'
S'O'
tp1187
aa(lp1188
(S'Ok'
g144
S'O'
tp1189
a(S'a'
g10
S'O'
tp1190
a(S'bit'
g15
S'O'
tp1191
a(S'over'
g144
S'O'
tp1192
a(S'the'
g32
S'O'
tp1193
a(S'top'
g27
S'O'
tp1194
a(S'.'
S'.'
S'O'
tp1195
aa(lp1196
(S'I'
g209
S'O'
tp1197
a(S'was'
g113
S'O'
tp1198
a(S'planning'
g278
S'O'
tp1199
a(S'on'
g257
S'O'
tp1200
a(S'ordering'
g278
S'O'
tp1201
a(S'an'
g409
S'O'
tp1202
a(S'after'
S'IN'
S'O'
tp1203
a(S'dinner'
g15
S'O'
tp1204
a(S'drink'
g15
S'O'
tp1205
a(S','
S','
S'O'
tp1206
a(S'but'
g37
S'O'
tp1207
a(S'it'
g174
S'O'
tp1208
a(S"wasn't"
g6
S'O'
tp1209
a(S'needed'
g113
S'O'
tp1210
a(S'given'
S'VBN'
S'O'
tp1211
a(S'the'
g32
S'O'
tp1212
a(S'cheese'
S'NN'
S'FOOD'
tp1213
a(S'and'
g67
g50
tp1214
a(S'dessert'
g27
g50
tp1215
a(S'pairings'
g97
g50
tp1216
a(S'.'
S'.'
S'O'
tp1217
aa(lp1218
(S'For'
g842
S'O'
tp1219
a(S'entrees'
g97
S'O'
tp1220
a(S'I'
g209
S'O'
tp1221
a(S'got'
g113
S'O'
tp1222
a(S'the'
g32
S'O'
tp1223
a(S'Caesar'
g3
g50
tp1224
a(S'with'
g8
g50
tp1225
a(S'crab'
g15
g50
tp1226
a(S','
S','
S'O'
tp1227
a(S'my'
g72
S'O'
tp1228
a(S'husband'
g15
S'O'
tp1229
a(S'got'
g113
S'O'
tp1230
a(S'the'
g32
S'O'
tp1231
a(S'crab'
g15
g50
tp1232
a(S'cake'
g15
g50
tp1233
a(S'entree'
g15
g50
tp1234
a(S'.'
S'.'
S'O'
tp1235
aa(lp1236
(S'as'
g57
S'O'
tp1237
a(S'much'
g27
S'O'
tp1238
a(S'as'
g144
S'O'
tp1239
a(S'i'
g27
S'O'
tp1240
a(S'love'
g126
S'O'
tp1241
a(S'the'
g32
S'O'
tp1242
a(S'totally'
g57
S'O'
tp1243
a(S'unique'
g27
S'O'
tp1244
a(S'and'
g67
S'O'
tp1245
a(S'delicious'
g27
S'O'
tp1246
a(S'garden'
g15
g50
tp1247
a(S'burger'
g15
g50
tp1248
a(S'at'
g483
S'O'
tp1249
a(S'the'
g32
S'O'
tp1250
a(S'plant'
S'NN'
S'O'
tp1251
a(S'cafe'
g15
S'O'
tp1252
a(S','
S','
S'O'
tp1253
a(S'it'
g174
S'O'
tp1254
a(S'is'
g80
S'O'
tp1255
a(S'fancy'
g27
S'O'
tp1256
a(S','
S','
S'O'
tp1257
a(S'and'
g67
S'O'
tp1258
a(S'sometimes'
g57
S'O'
tp1259
a(S'a'
g10
S'O'
tp1260
a(S'girl'
g15
S'O'
tp1261
a(S'just'
g387
S'O'
tp1262
a(S'wants'
S'VBZ'
S'O'
tp1263
a(S'trashy'
g27
S'O'
tp1264
a(S'.'
S'.'
S'O'
tp1265
aa(lp1266
(S'most'
g48
S'O'
tp1267
a(S'of'
g178
S'O'
tp1268
a(S'the'
g32
S'O'
tp1269
a(S'people'
S'NNS'
S'O'
tp1270
a(S'at'
g483
S'O'
tp1271
a(S'my'
g72
S'O'
tp1272
a(S'table'
g15
S'O'
tp1273
a(S'loved'
g113
S'O'
tp1274
a(S'the'
g32
S'O'
tp1275
a(S'pad'
g15
g50
tp1276
a(S'see'
g126
g50
tp1277
a(S'ew'
g144
g50
tp1278
a(S'the'
g32
S'O'
tp1279
a(S'most'
S'RBS'
S'O'
tp1280
a(S'.'
S'.'
S'O'
tp1281
aa(lp1282
(S'like'
g144
S'O'
tp1283
a(S'a'
g10
S'O'
tp1284
a(S'nice'
g27
S'O'
tp1285
a(S'Greek'
g3
g50
tp1286
a(S'soup'
g15
g50
tp1287
a(S'.'
S'.'
S'O'
tp1288
aa(lp1289
(S'I'
g209
S'O'
tp1290
a(S'recently'
S'RB'
S'O'
tp1291
a(S'had'
g113
S'O'
tp1292
a(S'some'
g822
S'O'
tp1293
a(S'knee'
g15
S'O'
tp1294
a(S'surgery'
g15
S'O'
tp1295
a(S'and'
g67
S'O'
tp1296
a(S'they'
g134
S'O'
tp1297
a(S'were'
g272
S'O'
tp1298
a(S'super'
g27
S'O'
tp1299
a(S'sweet'
g15
S'O'
tp1300
a(S'about'
g144
S'O'
tp1301
a(S'keeping'
S'VBG'
S'O'
tp1302
a(S'the'
g32
S'O'
tp1303
a(S'bag'
g15
S'O'
tp1304
a(S'of'
g178
S'O'
tp1305
a(S'ice'
g15
S'O'
tp1306
a(S'strapped'
g113
S'O'
tp1307
a(S'to'
g188
S'O'
tp1308
a(S'it'
g174
S'O'
tp1309
a(S'full'
g757
S'O'
tp1310
a(S'with'
g8
S'O'
tp1311
a(S'fresh'
g27
S'O'
tp1312
a(S'ice'
g15
S'O'
tp1313
a(S'.'
S'.'
S'O'
tp1314
aa(lp1315
(S'The'
g264
S'O'
tp1316
a(S'shiitake'
g15
g50
tp1317
a(S'spring'
g15
g50
tp1318
a(S'rolls'
g97
g50
tp1319
a(S'and'
g67
S'O'
tp1320
a(S'potato'
g15
g50
tp1321
a(S'leek'
g15
g50
tp1322
a(S'soup'
g15
g50
tp1323
a(S'were'
g272
S'O'
tp1324
a(S'tasty'
g27
S'O'
tp1325
a(S'and'
g67
S'O'
tp1326
a(S'fresh'
g27
S'O'
tp1327
a(S'.'
S'.'
S'O'
tp1328
aa(lp1329
(S'I'
g209
S'O'
tp1330
a(S'loved'
g113
S'O'
tp1331
a(S'the'
g32
S'O'
tp1332
a(S'fact'
S'NN'
S'O'
tp1333
a(S'that'
g144
S'O'
tp1334
a(S'i'
g126
S'O'
tp1335
a(S"didn't"
g97
S'O'
tp1336
a(S'have'
g126
S'O'
tp1337
a(S'to'
g188
S'O'
tp1338
a(S'do'
g87
S'O'
tp1339
a(S'the'
g32
S'O'
tp1340
a(S'work'
g15
S'O'
tp1341
a(S','
S','
S'O'
tp1342
a(S'just'
g387
S'O'
tp1343
a(S'to'
g188
S'O'
tp1344
a(S'get'
g87
S'O'
tp1345
a(S'that'
g409
S'O'
tp1346
a(S'big'
S'JJ'
S'O'
tp1347
a(S'chunk'
g15
S'O'
tp1348
a(S'of'
g178
S'O'
tp1349
a(S'meat'
S'NN'
S'FOOD'
tp1350
a(S'!'
S'.'
S'O'
tp1351
aa(lp1352
(S'If'
g980
S'O'
tp1353
a(S'you'
g367
S'O'
tp1354
a(S'ever'
g216
S'O'
tp1355
a(S'made'
g113
S'O'
tp1356
a(S'a'
g10
S'O'
tp1357
a(S'crab'
g15
g50
tp1358
a(S'burrito'
g15
g50
tp1359
a(S'with'
g8
g50
tp1360
a(S'italian'
g27
g50
tp1361
a(S'style'
g940
g50
tp1362
a(S'sauce'
g15
g50
tp1363
a(S','
S','
S'O'
tp1364
a(S'this'
g137
S'O'
tp1365
a(S'would'
g995
S'O'
tp1366
a(S'be'
g643
S'O'
tp1367
a(S'your'
g601
S'O'
tp1368
a(S'meal'
g15
S'O'
tp1369
a(S'.'
S'.'
S'O'
tp1370
aa(lp1371
(S'When'
S'WRB'
S'O'
tp1372
a(S'he'
S'PRP'
p1373
S'O'
tp1374
a(S'was'
g113
S'O'
tp1375
a(S'about'
g144
S'O'
tp1376
a(S'to'
g188
S'O'
tp1377
a(S'place'
g87
S'O'
tp1378
a(S'the'
g32
S'O'
tp1379
a(S'white'
S'JJ'
S'O'
tp1380
a(S'napkincloth'
g15
S'O'
tp1381
a(S'on'
g257
S'O'
tp1382
a(S'my'
g72
S'O'
tp1383
a(S'lap'
g15
S'O'
tp1384
a(S'and'
g67
S'O'
tp1385
a(S'saw'
g113
S'O'
tp1386
a(S'I'
g209
S'O'
tp1387
a(S'was'
g113
S'O'
tp1388
a(S'wearing'
g278
S'O'
tp1389
a(S'a'
g10
S'O'
tp1390
a(S'black'
S'JJ'
p1391
S'O'
tp1392
a(S'dress'
g15
S'O'
tp1393
a(S','
S','
S'O'
tp1394
a(S'he'
g1373
S'O'
tp1395
a(S'came'
g268
S'O'
tp1396
a(S'back'
g57
S'O'
tp1397
a(S'with'
g8
S'O'
tp1398
a(S'a'
g10
S'O'
tp1399
a(S'black'
g1391
S'O'
tp1400
a(S'napkincloth'
g15
S'O'
tp1401
a(S'so'
g57
S'O'
tp1402
a(S'as'
g57
S'O'
tp1403
a(S'to'
g188
S'O'
tp1404
a(S'not'
g39
S'O'
tp1405
a(S'get'
g87
S'O'
tp1406
a(S'cottonballs'
g97
S'O'
tp1407
a(S'on'
g257
S'O'
tp1408
a(S'my'
g72
S'O'
tp1409
a(S'dress'
g15
S'O'
tp1410
a(S'.'
S'.'
S'O'
tp1411
aa(lp1412
(S'They'
S'PRP'
p1413
S'O'
tp1414
a(S'had'
g113
S'O'
tp1415
a(S'the'
g32
S'O'
tp1416
a(S'best'
g48
S'O'
tp1417
a(S'fish'
g27
g50
tp1418
a(S'entrees'
g97
g50
tp1419
a(S'.'
S'.'
S'O'
tp1420
aa(lp1421
(S'DUNGENESS'
g3
g50
tp1422
a(S'CRAB'
g3
g50
tp1423
a(S'.'
S'.'
S'O'
tp1424
aa(lp1425
(S'So'
g57
S'O'
tp1426
a(S'sweet'
g27
S'O'
tp1427
a(S'with'
g8
S'O'
tp1428
a(S'warmed'
g27
g50
tp1429
a(S'banana'
g15
g50
tp1430
a(S'and'
g67
g50
tp1431
a(S'creamy'
g27
g50
tp1432
a(S'adzuki'
g15
g50
tp1433
a(S'bean'
g27
g50
tp1434
a(S'paste'
g15
g50
tp1435
a(S','
S','
S'O'
tp1436
a(S'it'
g174
S'O'
tp1437
a(S'makes'
S'VBZ'
S'O'
tp1438
a(S'my'
g72
S'O'
tp1439
a(S'mouth'
g27
S'O'
tp1440
a(S'water'
g852
S'O'
tp1441
a(S'just'
g387
S'O'
tp1442
a(S'thinking'
g278
S'O'
tp1443
a(S'about'
g144
S'O'
tp1444
a(S'it'
g174
S'O'
tp1445
a(S'.'
S'.'
S'O'
tp1446
aa(lp1447
(S'Very'
g57
S'O'
tp1448
a(S'tender'
g15
S'O'
tp1449
a(S'and'
g67
S'O'
tp1450
a(S'juicy'
g15
S'O'
tp1451
a(S'.'
S'.'
S'O'
tp1452
aa(lp1453
(S'The'
g264
S'O'
tp1454
a(S'chow'
g15
g50
tp1455
a(S'mein'
g15
g50
tp1456
a(S'and'
g67
g50
tp1457
a(S'the'
g32
g50
tp1458
a(S'garlic'
g27
g50
tp1459
a(S'eggplant'
g15
g50
tp1460
a(S'dishes'
g97
S'O'
tp1461
a(S'use'
g126
S'O'
tp1462
a(S'the'
g32
S'O'
tp1463
a(S'afore'
g15
S'O'
tp1464
a(S'mentioned'
g113
S'O'
tp1465
a(S'sauces'
g97
g50
tp1466
a(S'with'
g8
S'O'
tp1467
a(S'great'
g12
S'O'
tp1468
a(S'gusto'
g15
S'O'
tp1469
a(S','
S','
S'O'
tp1470
a(S'and'
g67
S'O'
tp1471
a(S'I'
g209
S'O'
tp1472
a(S"wasn't"
g126
S'O'
tp1473
a(S'disappointed'
g27
S'O'
tp1474
a(S'.'
S'.'
S'O'
tp1475
aa(lp1476
(S'All'
g128
S'O'
tp1477
a(S'the'
g32
S'O'
tp1478
a(S'food'
g454
S'O'
tp1479
a(S'the'
g32
S'O'
tp1480
a(S'tamales'
g97
g50
tp1481
a(S','
S','
S'O'
tp1482
a(S'('
S'('
S'O'
tp1483
a(S'the'
g32
g50
tp1484
a(S'roasted'
g22
g50
tp1485
a(S'pork'
g15
g50
tp1486
a(S'dish'
g15
g50
tp1487
a(S'was'
g113
S'O'
tp1488
a(S'like'
g144
S'O'
tp1489
a(S'pork'
g15
g50
tp1490
a(S'ceviche'
g15
g50
tp1491
a(S'tender'
g15
S'O'
tp1492
a(S','
S','
S'O'
tp1493
a(S'and'
g67
S'O'
tp1494
a(S'very'
g57
S'O'
tp1495
a(S'limey'
g57
S'O'
tp1496
a(S')'
S')'
S'O'
tp1497
a(S'etc'
g15
S'O'
tp1498
a(S'.'
S'.'
S'O'
tp1499
aa(lp1500
(S'they'
g134
S'O'
tp1501
a(S'did'
S'VBD'
S'O'
tp1502
a(S'mess'
g87
S'O'
tp1503
a(S'up'
g985
S'O'
tp1504
a(S'and'
g67
S'O'
tp1505
a(S'bring'
g87
S'O'
tp1506
a(S'the'
g32
S'O'
tp1507
a(S'hubby'
g15
S'O'
tp1508
a(S'the'
g32
S'O'
tp1509
a(S'wrong'
g27
S'O'
tp1510
a(S'chicken'
g15
g50
tp1511
a(S','
S','
S'O'
tp1512
a(S'but'
g37
S'O'
tp1513
a(S'they'
g134
S'O'
tp1514
a(S'fixed'
g113
S'O'
tp1515
a(S'it'
g174
S'O'
tp1516
a(S'quickly'
S'RB'
S'O'
tp1517
a(S'and'
g67
S'O'
tp1518
a(S'brought'
g113
S'O'
tp1519
a(S'out'
g985
S'O'
tp1520
a(S'the'
g32
S'O'
tp1521
a(S'correct'
g27
S'O'
tp1522
a(S'order'
S'NN'
S'O'
tp1523
a(S'of'
g178
S'O'
tp1524
a(S'fried'
g27
g50
tp1525
a(S'chicken'
g15
g50
tp1526
a(S'with'
g8
g50
tp1527
a(S'the'
g32
g50
tp1528
a(S'fixins'
g97
g50
tp1529
a(S'within'
S'IN'
S'O'
tp1530
a(S'a'
g10
S'O'
tp1531
a(S'few'
S'JJ'
S'O'
tp1532
a(S'minutes'
S'NNS'
S'O'
tp1533
a(S'.'
S'.'
S'O'
tp1534
aa(lp1535
(S')'
S')'
S'O'
tp1536
a(S','
S','
S'O'
tp1537
a(S'the'
g32
S'O'
tp1538
a(S'place'
g15
S'O'
tp1539
a(S'was'
g113
S'O'
tp1540
a(S'clean'
g27
S'O'
tp1541
a(S','
S','
S'O'
tp1542
a(S'service'
g15
S'O'
tp1543
a(S'was'
g113
S'O'
tp1544
a(S'your'
g601
S'O'
tp1545
a(S'a'
g10
S'O'
tp1546
a(S'typical'
g27
S'O'
tp1547
a(S'Asian'
g27
S'O'
tp1548
a(S'style'
g940
S'O'
tp1549
a(S'at'
g483
S'O'
tp1550
a(S'its'
g183
S'O'
tp1551
a(S'best'
g48
S'O'
tp1552
a(S'curt'
g15
S'O'
tp1553
a(S','
S','
S'O'
tp1554
a(S'quick'
g27
S'O'
tp1555
a(S','
S','
S'O'
tp1556
a(S'efficient'
g27
S'O'
tp1557
a(S'and'
g67
S'O'
tp1558
a(S'no'
g409
S'O'
tp1559
a(S'nonsense'
g15
S'O'
tp1560
a(S'.'
S'.'
S'O'
tp1561
a(S'.'
S'.'
S'O'
tp1562
a(S'.'
S'.'
S'O'
tp1563
a(S'almost'
S'RB'
S'O'
tp1564
a(S'drill'
g144
S'O'
tp1565
a(S'like'
g144
S'O'
tp1566
a(S'.'
S'.'
S'O'
tp1567
aa(lp1568
(S'Of'
S'IN'
S'O'
tp1569
a(S'course'
S'NN'
p1570
S'O'
tp1571
a(S','
S','
S'O'
tp1572
a(S'the'
g32
S'O'
tp1573
a(S'chocolate'
g15
g50
tp1574
a(S'souffle'
g15
g50
tp1575
a(S'was'
g113
S'O'
tp1576
a(S'good'
g27
S'O'
tp1577
a(S'as'
g144
S'O'
tp1578
a(S'usual'
g27
S'O'
tp1579
a(S'and'
g67
S'O'
tp1580
a(S'i'
g27
S'O'
tp1581
a(S'tried'
g113
S'O'
tp1582
a(S'the'
g32
S'O'
tp1583
a(S'boneless'
g15
g50
tp1584
a(S'quail'
g15
g50
tp1585
a(S'and'
g67
S'O'
tp1586
a(S'it'
g174
S'O'
tp1587
a(S"wasn't"
g113
S'O'
tp1588
a(S'as'
g57
S'O'
tp1589
a(S'good'
g27
S'O'
tp1590
a(S'as'
g144
S'O'
tp1591
a(S'my'
g72
S'O'
tp1592
a(S"partner's"
g27
S'O'
tp1593
a(S'filet'
g15
g50
tp1594
a(S'mignon'
g15
g50
tp1595
a(S'with'
g8
g50
tp1596
a(S'foie'
g27
g50
tp1597
a(S'gras'
g97
g50
tp1598
a(S'.'
S'.'
S'O'
tp1599
aa(lp1600
(S'We'
g223
S'O'
tp1601
a(S'tried'
g113
S'O'
tp1602
a(S'the'
g32
S'O'
tp1603
a(S'Chocolate'
S'NNP'
S'FOOD'
tp1604
a(S'Almond'
g3
g50
tp1605
a(S'Midnight'
g3
g50
tp1606
a(S'dessert'
g15
S'O'
tp1607
a(S'and'
g67
S'O'
tp1608
a(S'it'
g174
S'O'
tp1609
a(S'was'
g113
S'O'
tp1610
a(S'very'
g57
S'O'
tp1611
a(S'good'
g27
S'O'
tp1612
a(S'and'
g67
S'O'
tp1613
a(S'rich'
g27
S'O'
tp1614
a(S'.'
S'.'
S'O'
tp1615
aa(lp1616
(S'Mixed'
g27
g50
tp1617
a(S'Fruit'
g3
g50
tp1618
a(S'with'
g8
g50
tp1619
a(S'Mango'
g3
g50
tp1620
a(S'Puree'
g3
g50
tp1621
a(S'('
S'('
S'O'
tp1622
a(S'w'
g27
g50
tp1623
a(S'Grass'
g3
g50
tp1624
a(S'Jelly'
g3
g50
tp1625
a(S')'
S')'
S'O'
tp1626
a(S'4'
g74
S'O'
tp1627
a(S'.'
S'.'
S'O'
tp1628
a(S'25'
S'CD'
S'O'
tp1629
a(S'('
S'('
S'O'
tp1630
a(S'Another'
S'DT'
S'O'
tp1631
a(S'recommendation'
g15
S'O'
tp1632
a(S'of'
g178
S'O'
tp1633
a(S'mine'
g15
S'O'
tp1634
a(S'!'
S'.'
S'O'
tp1635
aa(lp1636
(S'They'
g1413
S'O'
tp1637
a(S'are'
g306
S'O'
tp1638
a(S'absolutely'
g57
S'O'
tp1639
a(S'accommodating'
g278
S'O'
tp1640
a(S'on'
g257
S'O'
tp1641
a(S'my'
g72
S'O'
tp1642
a(S'orders'
S'NNS'
S'O'
tp1643
a(S'whenever'
g192
S'O'
tp1644
a(S'I'
g209
S'O'
tp1645
a(S'ask'
g126
S'O'
tp1646
a(S'for'
g70
S'O'
tp1647
a(S'a'
g10
S'O'
tp1648
a(S'vegetarian'
g27
g50
tp1649
a(S'alternative'
g15
S'O'
tp1650
a(S'to'
g188
S'O'
tp1651
a(S'items'
S'NNS'
S'O'
tp1652
a(S'that'
g154
S'O'
tp1653
a(S'are'
g306
S'O'
tp1654
a(S'listed'
g22
S'O'
tp1655
a(S'with'
g8
S'O'
tp1656
a(S'only'
g57
S'O'
tp1657
a(S'meat'
g15
g50
tp1658
a(S'poultry'
g15
g50
tp1659
a(S'options'
S'NNS'
S'O'
tp1660
a(S'.'
S'.'
S'O'
tp1661
aa(lp1662
(S'Never'
g57
S'O'
tp1663
a(S'mind'
g126
S'O'
tp1664
a(S'the'
g32
S'O'
tp1665
a(S'dearth'
g15
S'O'
tp1666
a(S'of'
g178
S'O'
tp1667
a(S'seating'
g278
S'O'
tp1668
a(S'.'
S'.'
S'O'
tp1669
a(S'.'
S'.'
S'O'
tp1670
a(S'.'
S'.'
S'O'
tp1671
a(S'this'
g137
S'O'
tp1672
a(S'is'
g80
S'O'
tp1673
a(S'as'
g57
S'O'
tp1674
a(S'close'
g27
S'O'
tp1675
a(S'to'
g188
S'O'
tp1676
a(S'real'
S'JJ'
S'O'
tp1677
a(S'East'
S'NNP'
S'FOOD'
tp1678
a(S'Coast'
S'NNP'
g50
tp1679
a(S'pizza'
g15
g50
tp1680
a(S'that'
g144
S'O'
tp1681
a(S'I'
g209
S'O'
tp1682
a(S'have'
g126
S'O'
tp1683
a(S'found'
g22
S'O'
tp1684
a(S'in'
g30
S'O'
tp1685
a(S'the'
g32
S'O'
tp1686
a(S'city'
S'NN'
p1687
S'O'
tp1688
a(S'.'
S'.'
S'O'
tp1689
aa(lp1690
(S'Fifth'
g3
S'O'
tp1691
a(S'course'
g1570
S'O'
tp1692
a(S'Maple'
g3
g50
tp1693
a(S'ice'
g15
g50
tp1694
a(S'cream'
g15
g50
tp1695
a(S'with'
g8
g50
tp1696
a(S'a'
g10
g50
tp1697
a(S'fruit'
g15
g50
tp1698
a(S'gelee'
g15
g50
tp1699
a(S','
S','
S'O'
tp1700
a(S'squash'
g15
g50
tp1701
a(S'and'
g67
g50
tp1702
a(S'ginger'
g15
g50
tp1703
a(S'meringue'
g15
g50
tp1704
a(S'pie'
g15
g50
tp1705
a(S','
S','
S'O'
tp1706
a(S'cranberry'
g15
g50
tp1707
a(S'sorbet'
g15
g50
tp1708
a(S','
S','
S'O'
tp1709
a(S'frozen'
g27
g50
tp1710
a(S'grape'
g15
g50
tp1711
a(S','
S','
S'O'
tp1712
a(S'and'
g67
S'O'
tp1713
a(S'a'
g10
S'O'
tp1714
a(S'chocolate'
g15
g50
tp1715
a(S'truffle'
g15
g50
tp1716
a(S'.'
S'.'
S'O'
tp1717
aa(lp1718
(S'So'
g57
S'O'
tp1719
a(S'I'
g209
S'O'
tp1720
a(S'stick'
g126
S'O'
tp1721
a(S'to'
g188
S'O'
tp1722
a(S'the'
g32
S'O'
tp1723
a(S'lunch'
g15
S'O'
tp1724
a(S'or'
S'CC'
p1725
S'O'
tp1726
a(S'at'
g483
S'O'
tp1727
a(S'dinner'
g15
S'O'
tp1728
a(S','
S','
S'O'
tp1729
a(S'I'
g209
S'O'
tp1730
a(S'risk'
g126
S'O'
tp1731
a(S'going'
g703
S'O'
tp1732
a(S'head'
g15
S'O'
tp1733
a(S'to'
g188
S'O'
tp1734
a(S'head'
g15
S'O'
tp1735
a(S'for'
g70
S'O'
tp1736
a(S'that'
g409
S'O'
tp1737
a(S'last'
S'JJ'
S'O'
tp1738
a(S'piece'
g15
S'O'
tp1739
a(S'of'
g178
S'O'
tp1740
a(S'fried'
g27
g50
tp1741
a(S'basil'
g15
g50
tp1742
a(S'and'
g67
g50
tp1743
a(S'tofu'
g15
g50
tp1744
a(S'.'
S'.'
S'O'
tp1745
aa(lp1746
(S'I'
g209
S'O'
tp1747
a(S"don't"
g126
S'O'
tp1748
a(S'like'
g144
S'O'
tp1749
a(S'regular'
g27
S'O'
tp1750
a(S'old'
g122
S'O'
tp1751
a(S'ham'
g15
g50
tp1752
a(S'.'
S'.'
S'O'
tp1753
aa(lp1754
(S'Finished'
g22
S'O'
tp1755
a(S'with'
g8
S'O'
tp1756
a(S'the'
g32
S'O'
tp1757
a(S'Almond'
g3
g50
tp1758
a(S'cake'
g15
g50
tp1759
a(S'which'
g154
S'O'
tp1760
a(S'was'
g113
S'O'
tp1761
a(S'mousse'
g97
S'O'
tp1762
a(S'like'
g144
S'O'
tp1763
a(S'and'
g67
S'O'
tp1764
a(S'mouth'
g87
S'O'
tp1765
a(S'savoring'
g15
S'O'
tp1766
a(S'.'
S'.'
S'O'
tp1767
aa(lp1768
(S'Their'
g183
S'O'
tp1769
a(S'crispy'
g15
g50
tp1770
a(S'basil'
g15
g50
tp1771
a(S'with'
g8
g50
tp1772
a(S'tofu'
g15
g50
tp1773
a(S'is'
g80
S'O'
tp1774
a(S'is'
g80
S'O'
tp1775
a(S'to'
g188
S'O'
tp1776
a(S'die'
g87
S'O'
tp1777
a(S'for'
g70
S'O'
tp1778
a(S'and'
g67
S'O'
tp1779
a(S'the'
g32
S'O'
tp1780
a(S'coconut'
g15
g50
tp1781
a(S'soup'
g15
g50
tp1782
a(S'is'
g80
S'O'
tp1783
a(S'nummy'
g27
S'O'
tp1784
a(S'nummy'
g15
S'O'
tp1785
a(S'.'
S'.'
S'O'
tp1786
aa(lp1787
(S"it's"
g57
S'O'
tp1788
a(S'not'
g39
S'O'
tp1789
a(S'as'
g57
S'O'
tp1790
a(S'oily'
g57
S'O'
tp1791
a(S'as'
g144
S'O'
tp1792
a(S'naan'
g27
g50
tp1793
a(S'n'
g15
S'O'
tp1794
a(S'curry'
g15
g50
tp1795
a(S','
S','
S'O'
tp1796
a(S'but'
g37
S'O'
tp1797
a(S'i'
g57
S'O'
tp1798
a(S'thought'
g113
S'O'
tp1799
a(S'it'
g174
S'O'
tp1800
a(S'was'
g113
S'O'
tp1801
a(S'more'
S'RBR'
S'O'
tp1802
a(S'flavorful'
g27
S'O'
tp1803
a(S'than'
g495
S'O'
tp1804
a(S'shalimar'
g15
S'O'
tp1805
a(S'.'
S'.'
S'O'
tp1806
a(S'.'
S'.'
S'O'
tp1807
a(S'.'
S'.'
S'O'
tp1808
a(S'and'
g67
S'O'
tp1809
a(S'cleaner'
g493
S'O'
tp1810
a(S','
S','
S'O'
tp1811
a(S'too'
g449
S'O'
tp1812
a(S'!'
S'.'
S'O'
tp1813
aa(lp1814
(S'The'
g264
S'O'
tp1815
a(S'fresh'
g27
g50
tp1816
a(S'juice'
g15
g50
tp1817
a(S'and'
g67
S'O'
tp1818
a(S'friendly'
g27
S'O'
tp1819
a(S'service'
g15
S'O'
tp1820
a(S'earn'
g126
S'O'
tp1821
a(S'this'
g137
S'O'
tp1822
a(S'place'
g15
S'O'
tp1823
a(S'its'
g183
S'O'
tp1824
a(S'fifth'
g27
S'O'
tp1825
a(S'star'
g15
S'O'
tp1826
a(S'.'
S'.'
S'O'
tp1827
aa(lp1828
(S'favorites'
g6
S'O'
tp1829
a(S'the'
g32
S'O'
tp1830
a(S'soba'
g15
g50
tp1831
a(S'salad'
g15
g50
tp1832
a(S'amp'
g15
S'O'
tp1833
a(S';'
S':'
S'O'
tp1834
a(S'the'
g32
S'O'
tp1835
a(S'kinoko'
g15
g50
tp1836
a(S'noodles'
g97
g50
tp1837
a(S'.'
S'.'
S'O'
tp1838
aa(lp1839
(S'Usually'
g57
S'O'
tp1840
a(S','
S','
S'O'
tp1841
a(S'the'
g32
S'O'
tp1842
a(S'chicken'
g15
g50
tp1843
a(S'breast'
g15
g50
tp1844
a(S'is'
g80
S'O'
tp1845
a(S'over'
g144
S'O'
tp1846
a(S'cooked'
g27
S'O'
tp1847
a(S'and'
g67
S'O'
tp1848
a(S'dry'
g27
S'O'
tp1849
a(S'and'
g67
S'O'
tp1850
a(S'the'
g32
S'O'
tp1851
a(S'chef'
g15
S'O'
tp1852
a(S'uses'
g6
S'O'
tp1853
a(S'the'
g32
S'O'
tp1854
a(S'sauce'
g15
g50
tp1855
a(S'to'
g188
S'O'
tp1856
a(S'juice'
g87
S'O'
tp1857
a(S'it'
g174
S'O'
tp1858
a(S'up'
g985
S'O'
tp1859
a(S'.'
S'.'
S'O'
tp1860
aa(lp1861
(S'Fantastic'
g27
S'O'
tp1862
a(S'NY'
g3
g50
tp1863
a(S'style'
g940
g50
tp1864
a(S'pizza'
g15
g50
tp1865
a(S','
S','
S'O'
tp1866
a(S"Marcello's"
g3
S'O'
tp1867
a(S'is'
g80
S'O'
tp1868
a(S'still'
S'RB'
S'O'
tp1869
a(S'my'
g72
S'O'
tp1870
a(S'favorite'
g27
S'O'
tp1871
a(S'by'
S'IN'
S'O'
tp1872
a(S'a'
g10
S'O'
tp1873
a(S'hair'
g15
S'O'
tp1874
a(S'though'
g144
S'O'
tp1875
a(S'.'
S'.'
S'O'
tp1876
a(S'.'
S'.'
S'O'
tp1877
a(S'.'
S'.'
S'O'
tp1878
aa(lp1879
(S'I'
g209
S'O'
tp1880
a(S'have'
g126
S'O'
tp1881
a(S'yet'
g57
S'O'
tp1882
a(S'to'
g188
S'O'
tp1883
a(S'find'
g87
S'O'
tp1884
a(S'fresher'
g27
g50
tp1885
a(S'fish'
g15
g50
tp1886
a(S','
S','
S'O'
tp1887
a(S'oysters'
g97
g50
tp1888
a(S'or'
g1725
S'O'
tp1889
a(S'crab'
g15
g50
tp1890
a(S'in'
g30
S'O'
tp1891
a(S'the'
g32
S'O'
tp1892
a(S'city'
g1687
S'O'
tp1893
a(S','
S','
S'O'
tp1894
a(S'and'
g67
S'O'
tp1895
a(S'I'
g209
S'O'
tp1896
a(S'love'
g126
S'O'
tp1897
a(S'their'
S'PRP$'
S'O'
tp1898
a(S'clam'
g15
g50
tp1899
a(S'chowder'
g15
g50
tp1900
a(S"pasta's"
S'NN'
S'FOOD'
tp1901
a(S'are'
g306
S'O'
tp1902
a(S'always'
S'RB'
S'O'
tp1903
a(S'changing'
g278
S'O'
tp1904
a(S'and'
g67
S'O'
tp1905
a(S'delicious'
g27
S'O'
tp1906
a(S'.'
S'.'
S'O'
tp1907
aa(lp1908
(S'I'
g209
S'O'
tp1909
a(S'love'
g126
S'O'
tp1910
a(S'spicy'
g15
S'O'
tp1911
a(S'.'
S'.'
S'O'
tp1912
aa(lp1913
(S'It'
g935
S'O'
tp1914
a(S'sits'
g6
S'O'
tp1915
a(S'right'
g57
S'O'
tp1916
a(S'on'
g257
S'O'
tp1917
a(S'the'
g32
S'O'
tp1918
a(S'bay'
g15
S'O'
tp1919
a(S'and'
g67
S'O'
tp1920
a(S'there'
g459
S'O'
tp1921
a(S'is'
g80
S'O'
tp1922
a(S'a'
g10
S'O'
tp1923
a(S'large'
g1176
S'O'
tp1924
a(S'parking'
g15
S'O'
tp1925
a(S'lot'
g15
S'O'
tp1926
a(S'right'
g57
S'O'
tp1927
a(S'next'
g27
S'O'
tp1928
a(S'to'
g188
S'O'
tp1929
a(S'it'
g174
S'O'
tp1930
a(S'.'
S'.'
S'O'
tp1931
aa(lp1932
(S'We'
g223
S'O'
tp1933
a(S'ordered'
g113
S'O'
tp1934
a(S'it'
g174
S'O'
tp1935
a(S'medium'
g15
S'O'
tp1936
a(S'rare'
g15
S'O'
tp1937
a(S'.'
S'.'
S'O'
tp1938
aa.