(lp1
(lp2
(S'The'
S'DT'
p3
S'O'
tp4
a(S'soup'
S'NN'
p5
S'FOOD'
p6
tp7
a(S'had'
S'VBD'
p8
S'O'
tp9
a(S'Lentil'
S'NNP'
p10
g6
tp11
a(S','
S','
S'O'
tp12
a(S'Onion'
g10
g6
tp13
a(S','
S','
S'O'
tp14
a(S'Fresh'
g10
g6
tp15
a(S'Parsley'
g10
g6
tp16
a(S'and'
S'CC'
p17
S'O'
tp18
a(S'with'
S'IN'
p19
S'O'
tp20
a(S'special'
S'JJ'
p21
S'O'
tp22
a(S'spices'
S'NNS'
p23
g6
tp24
a(S'.'
S'.'
S'O'
tp25
aa(lp26
(S'('
S'('
S'O'
tp27
a(S'or'
S'CC'
p28
S'O'
tp29
a(S'over'
S'RB'
p30
S'O'
tp31
a(S'roasted'
g21
g6
tp32
a(S'olives'
g23
g6
tp33
a(S','
S','
S'O'
tp34
a(S'saffron'
g5
g6
tp35
a(S'potatoes'
g23
g6
tp36
a(S','
S','
S'O'
tp37
a(S'and'
g17
S'O'
tp38
a(S'roasted'
g8
g6
tp39
a(S'tomatoes'
g23
g6
tp40
a(S'They'
S'PRP'
p41
S'O'
tp42
a(S'had'
g8
S'O'
tp43
a(S'3'
S'CD'
p44
S'O'
tp45
a(S'choices'
g23
S'O'
tp46
a(S'of'
S'IN'
p47
S'O'
tp48
a(S'fish'
g21
g6
tp49
a(S'that'
S'DT'
p50
S'O'
tp51
a(S'day'
S'NN'
p52
S'O'
tp53
a(S','
S','
S'O'
tp54
a(S'a'
S'DT'
p55
S'O'
tp56
a(S'Sole'
g10
g6
tp57
a(S','
S','
S'O'
tp58
a(S'a'
g55
S'O'
tp59
a(S'halibut'
g5
g6
tp60
a(S','
S','
S'O'
tp61
a(S'and'
g17
S'O'
tp62
a(S'a'
g55
S'O'
tp63
a(S'snapper'
g5
g6
tp64
a(S'.'
S'.'
S'O'
tp65
aa(lp66
(S'It'
S'PRP'
p67
S'O'
tp68
a(S'did'
S'VBD'
S'O'
tp69
a(S'have'
S'VB'
p70
S'O'
tp71
a(S'a'
g55
S'O'
tp72
a(S'nice'
g21
S'O'
tp73
a(S'kick'
g5
S'O'
tp74
a(S','
S','
S'O'
tp75
a(S'which'
S'WDT'
p76
S'O'
tp77
a(S'I'
S'PRP'
p78
S'O'
tp79
a(S'appreciated'
g8
S'O'
tp80
a(S'since'
S'IN'
S'O'
tp81
a(S'I'
g78
S'O'
tp82
a(S'love'
S'VBP'
p83
S'O'
tp84
a(S'spicy'
g5
g6
tp85
a(S'food'
S'NN'
p86
g6
tp87
a(S'.'
S'.'
S'O'
tp88
aa(lp89
(S'Filet'
g10
g6
tp90
a(S'Mignon'
g10
g6
tp91
a(S'is'
S'VBZ'
p92
S'O'
tp93
a(S'the'
S'DT'
p94
S'O'
tp95
a(S'only'
g21
S'O'
tp96
a(S'steak'
g5
g6
tp97
a(S'I'
g78
S'O'
tp98
a(S'get'
g83
S'O'
tp99
a(S'and'
g17
S'O'
tp100
a(S'I'
g78
S'O'
tp101
a(S'got'
g8
S'O'
tp102
a(S'it'
S'PRP'
p103
S'O'
tp104
a(S'good'
g21
S'O'
tp105
a(S'!'
S'.'
S'O'
tp106
aa(lp107
(S'The'
g3
S'O'
tp108
a(S'food'
S'NN'
S'FOOD'
tp109
a(S'is'
g92
S'O'
tp110
a(S'always'
S'RB'
p111
S'O'
tp112
a(S'good'
g21
S'O'
tp113
a(S'and'
g17
S'O'
tp114
a(S'fresh'
S'JJ'
S'FOOD'
tp115
a(S'.'
S'.'
S'O'
tp116
aa(lp117
(S'One'
g44
S'O'
tp118
a(S'of'
g47
S'O'
tp119
a(S'the'
g94
S'O'
tp120
a(S'very'
g30
S'O'
tp121
a(S'few'
S'JJ'
S'O'
tp122
a(S'places'
g23
S'O'
tp123
a(S'that'
g76
S'O'
tp124
a(S'open'
g83
S'O'
tp125
a(S'til'
g5
S'O'
tp126
a(S'late'
g30
S'O'
tp127
a(S','
S','
S'O'
tp128
a(S'it'
g103
S'O'
tp129
a(S"didn't"
g8
S'O'
tp130
a(S'take'
g70
S'O'
tp131
a(S'us'
S'PRP'
p132
S'O'
tp133
a(S'long'
g30
S'O'
tp134
a(S'to'
S'TO'
p135
S'O'
tp136
a(S'devour'
g70
S'O'
tp137
a(S'the'
g94
S'O'
tp138
a(S'banchan'
g5
g6
tp139
a(S','
S','
S'O'
tp140
a(S'dol'
g5
g6
tp141
a(S'sot'
g5
g6
tp142
a(S'bi'
g5
g6
tp143
a(S'bim'
g5
g6
tp144
a(S'bap'
g5
g6
tp145
a(S','
S','
S'O'
tp146
a(S'kim'
g70
g6
tp147
a(S'chee'
g5
g6
tp148
a(S'fried'
g21
g6
tp149
a(S'rice'
g5
g6
tp150
a(S','
S','
S'O'
tp151
a(S'beef'
g5
g6
tp152
a(S'tofu'
g5
g6
tp153
a(S'stew'
g5
g6
tp154
a(S'and'
g17
S'O'
tp155
a(S'bul'
g5
g6
tp156
a(S'gogi'
g5
g6
tp157
a(S'.'
S'.'
S'O'
tp158
aa(lp159
(S'One'
g44
S'O'
tp160
a(S'of'
g47
S'O'
tp161
a(S'my'
S'PRP$'
p162
S'O'
tp163
a(S'two'
S'CD'
p164
S'O'
tp165
a(S'favorite'
g21
S'O'
tp166
a(S'pizza'
g5
g6
tp167
a(S'places'
g23
S'O'
tp168
a(S'in'
S'IN'
p169
S'O'
tp170
a(S'the'
g94
S'O'
tp171
a(S'city'
S'NN'
p172
S'O'
tp173
a(S'!'
S'.'
S'O'
tp174
a(S'!'
S'.'
S'O'
tp175
aa(lp176
(S'here'
S'RB'
p177
S'O'
tp178
a(S'.'
S'.'
S'O'
tp179
a(S'.'
S'.'
S'O'
tp180
a(S'.'
S'.'
S'O'
tp181
a(S'just'
S'RB'
p182
S'O'
tp183
a(S'a'
g55
S'O'
tp184
a(S'solid'
g21
S'O'
tp185
a(S'wine'
g5
S'O'
tp186
a(S'list'
g5
S'O'
tp187
a(S','
S','
S'O'
tp188
a(S'lots'
g23
S'O'
tp189
a(S'of'
g47
S'O'
tp190
a(S'meat'
g5
g6
tp191
a(S','
S','
S'O'
tp192
a(S'and'
g17
S'O'
tp193
a(S'Mr'
g10
S'O'
tp194
a(S'.'
S'.'
S'O'
tp195
a(S'Ray'
g10
S'O'
tp196
a(S'Charles'
S'NNP'
S'O'
tp197
a(S'and'
g17
S'O'
tp198
a(S'Ms'
g10
S'O'
tp199
a(S'.'
S'.'
S'O'
tp200
a(S'Billie'
g10
S'O'
tp201
a(S'Holiday'
g10
S'O'
tp202
a(S'setting'
S'VBG'
p203
S'O'
tp204
a(S'the'
g94
S'O'
tp205
a(S'moody'
g5
S'O'
tp206
a(S'.'
S'.'
S'O'
tp207
aa(lp208
(S'The'
g3
S'O'
tp209
a(S'cheese'
g5
g6
tp210
a(S','
S','
S'O'
tp211
a(S'sauce'
g5
g6
tp212
a(S','
S','
S'O'
tp213
a(S'crust'
g5
g6
tp214
a(S'amp'
g5
S'O'
tp215
a(S';'
S':'
S'O'
tp216
a(S'pepperoni'
S'CC'
p217
g6
tp218
a(S'are'
S'VBP'
p219
S'O'
tp220
a(S'perfect'
g21
S'O'
tp221
a(S'.'
S'.'
S'O'
tp222
aa(lp223
(S'The'
g3
S'O'
tp224
a(S'Rojo'
g10
g6
tp225
a(S'Hot'
g10
g6
tp226
a(S'Sauce'
g10
g6
tp227
a(S'I'
g78
S'O'
tp228
a(S'loved'
g8
S'O'
tp229
a(S'but'
S'CC'
p230
S'O'
tp231
a(S'the'
g94
S'O'
tp232
a(S'mild'
g21
S'O'
tp233
a(S'sauce'
g5
g6
tp234
a(S'could'
S'MD'
p235
S'O'
tp236
a(S'use'
g70
S'O'
tp237
a(S'some'
S'DT'
p238
S'O'
tp239
a(S'more'
S'RBR'
p240
S'O'
tp241
a(S'work'
g5
S'O'
tp242
a(S'on'
S'IN'
p243
S'O'
tp244
a(S'me'
S'PRP'
p245
S'O'
tp246
a(S'no'
g50
S'O'
tp247
a(S'likey'
g21
S'O'
tp248
a(S'tomato'
g5
g6
tp249
a(S'paste'
g5
g6
tp250
a(S'.'
S'.'
S'O'
tp251
a(S'.'
S'.'
S'O'
tp252
a(S'Next'
g21
S'O'
tp253
a(S'time'
S'NN'
p254
S'O'
tp255
a(S"I'm"
g10
S'O'
tp256
a(S'my'
g162
S'O'
tp257
a(S"Sister's"
g10
S'O'
tp258
a(S'pad'
g5
S'O'
tp259
a(S'in'
g169
S'O'
tp260
a(S'the'
g94
S'O'
tp261
a(S'Dog'
g10
S'O'
tp262
a(S'Patch'
g10
S'O'
tp263
a(S'District'
g10
S'O'
tp264
a(S'amp'
g5
S'O'
tp265
a(S';'
S':'
S'O'
tp266
a(S'need'
g217
S'O'
tp267
a(S'a'
g55
S'O'
tp268
a(S'takeout'
g5
S'O'
tp269
a(S'meal'
g5
S'O'
tp270
a(S"I'll"
g10
S'O'
tp271
a(S'most'
S'RBS'
S'O'
tp272
a(S'def'
g21
S'O'
tp273
a(S'roll'
g5
S'O'
tp274
a(S'through'
S'IN'
p275
S'O'
tp276
a(S'to'
g135
S'O'
tp277
a(S'dis'
g70
S'O'
tp278
a(S'place'
g5
S'O'
tp279
a(S'also'
S'RB'
p280
S'O'
tp281
a(S'the'
g94
S'O'
tp282
a(S'chips'
S'NNS'
g6
tp283
a(S'amp'
g83
S'O'
tp284
a(S';'
S':'
S'O'
tp285
a(S'guac'
g23
g6
tp286
a(S'were'
S'VBD'
p287
S'O'
tp288
a(S'to'
g135
S'O'
tp289
a(S'die'
g70
S'O'
tp290
a(S'for'
S'IN'
p291
S'O'
tp292
a(S'.'
S'.'
S'O'
tp293
a(S'.'
S'.'
S'O'
tp294
a(S'.'
S'.'
S'O'
tp295
aa(lp296
(S'Following'
g203
S'O'
tp297
a(S'the'
g94
S'O'
tp298
a(S'Yelper'
g10
S'O'
tp299
a(S'zeitgeist'
g5
S'O'
tp300
a(S'I'
g78
S'O'
tp301
a(S'tried'
g8
S'O'
tp302
a(S'the'
g94
S'O'
tp303
a(S'buffalo'
g5
g6
tp304
a(S'burger'
g5
g6
tp305
a(S','
S','
S'O'
tp306
a(S'and'
g17
S'O'
tp307
a(S'I'
g78
S'O'
tp308
a(S"don't"
g83
S'O'
tp309
a(S'regret'
g70
S'O'
tp310
a(S'it'
g103
S'O'
tp311
a(S'('
S'('
S'O'
tp312
a(S'the'
g94
S'O'
tp313
a(S'focaccia'
g5
g6
tp314
a(S'esque'
g5
g6
tp315
a(S'bun'
g5
g6
tp316
a(S'is'
g92
S'O'
tp317
a(S'especially'
S'RB'
S'O'
tp318
a(S'good'
g21
S'O'
tp319
a(S')'
S')'
S'O'
tp320
a(S'.'
S'.'
S'O'
tp321
aa(lp322
(S'The'
g3
S'O'
tp323
a(S'red'
g21
S'O'
tp324
a(S'checked'
g21
S'O'
tp325
a(S'tablecloths'
g23
S'O'
tp326
a(S'and'
g17
S'O'
tp327
a(S'the'
g94
S'O'
tp328
a(S'raffle'
g5
S'O'
tp329
a(S'drawing'
g203
S'O'
tp330
a(S'were'
g287
S'O'
tp331
a(S'exactly'
g30
S'O'
tp332
a(S'like'
g275
S'O'
tp333
a(S'the'
g94
S'O'
tp334
a(S'annual'
S'JJ'
S'O'
tp335
a(S'crab'
g5
g6
tp336
a(S'feed'
g5
S'O'
tp337
a(S','
S','
S'O'
tp338
a(S'and'
g17
S'O'
tp339
a(S'we'
S'PRP'
p340
S'O'
tp341
a(S'all'
g50
S'O'
tp342
a(S'felt'
g8
S'O'
tp343
a(S'a'
g55
S'O'
tp344
a(S'little'
g21
S'O'
tp345
a(S'bit'
g5
S'O'
tp346
a(S'better'
g240
S'O'
tp347
a(S'for'
g291
S'O'
tp348
a(S'some'
g238
S'O'
tp349
a(S'old'
S'JJ'
p350
S'O'
tp351
a(S'San'
S'NNP'
p352
S'O'
tp353
a(S'Francisco'
S'NNP'
p354
S'O'
tp355
a(S'institutions'
S'NNS'
S'O'
tp356
a(S'still'
S'RB'
p357
S'O'
tp358
a(S'being'
S'VBG'
S'O'
tp359
a(S'around'
g30
S'O'
tp360
a(S'.'
S'.'
S'O'
tp361
aa(lp362
(S"I've"
g10
S'O'
tp363
a(S'had'
g8
S'O'
tp364
a(S'two'
g164
S'O'
tp365
a(S'entrees'
g23
S'O'
tp366
a(S'in'
g169
S'O'
tp367
a(S'the'
g94
S'O'
tp368
a(S'past'
g21
S'O'
tp369
a(S'several'
S'JJ'
S'O'
tp370
a(S'years'
S'NNS'
p371
S'O'
tp372
a(S"I've"
g10
S'O'
tp373
a(S'been'
S'VBN'
p374
S'O'
tp375
a(S'a'
g55
S'O'
tp376
a(S'customer'
S'NN'
S'O'
tp377
a(S','
S','
S'O'
tp378
a(S'undoubtedly'
g30
S'O'
tp379
a(S'because'
g275
S'O'
tp380
a(S'now'
S'RB'
S'O'
tp381
a(S'I'
g78
S'O'
tp382
a(S'cannot'
g83
S'O'
tp383
a(S'consider'
g70
S'O'
tp384
a(S'ordering'
g203
S'O'
tp385
a(S'anything'
S'NN'
S'O'
tp386
a(S'but'
g230
S'O'
tp387
a(S'the'
g94
S'O'
tp388
a(S'chicken'
g5
g6
tp389
a(S'enchiladas'
g5
g6
tp390
a(S'verdes'
g23
g6
tp391
a(S'.'
S'.'
S'O'
tp392
aa(lp393
(S'The'
g3
S'O'
tp394
a(S'portions'
g23
S'O'
tp395
a(S'are'
g219
S'O'
tp396
a(S'huge'
S'JJ'
S'O'
tp397
a(S'('
S'('
S'O'
tp398
a(S'family'
S'NN'
p399
S'O'
tp400
a(S'style'
S'NN'
p401
S'O'
tp402
a(S')'
S')'
S'O'
tp403
a(S'amp'
g5
S'O'
tp404
a(S';'
S':'
S'O'
tp405
a(S'the'
g94
S'O'
tp406
a(S'prices'
S'NNS'
S'O'
tp407
a(S'are'
g219
S'O'
tp408
a(S'pretty'
g30
S'O'
tp409
a(S'reasonable'
g21
S'O'
tp410
a(S'.'
S'.'
S'O'
tp411
aa(lp412
(S'Say'
g10
S'O'
tp413
a(S'no'
g50
S'O'
tp414
a(S'to'
g135
S'O'
tp415
a(S'the'
g94
S'O'
tp416
a(S'complimentary'
g21
S'O'
tp417
a(S'glasses'
g23
S'O'
tp418
a(S'and'
g17
S'O'
tp419
a(S'drink'
g70
S'O'
tp420
a(S'your'
S'PRP$'
p421
S'O'
tp422
a(S'8'
S'CD'
S'O'
tp423
a(S'Riesling'
g203
S'O'
tp424
a(S'from'
S'IN'
p425
S'O'
tp426
a(S'the'
g94
S'O'
tp427
a(S'paper'
S'NN'
S'O'
tp428
a(S'cups'
g5
S'O'
tp429
a(S'they'
S'PRP'
p430
S'O'
tp431
a(S'have'
g83
S'O'
tp432
a(S'by'
S'IN'
p433
S'O'
tp434
a(S'the'
g94
S'O'
tp435
a(S'cash'
S'NN'
S'O'
tp436
a(S'register'
g5
S'O'
tp437
a(S','
S','
S'O'
tp438
a(S'trust'
g70
S'O'
tp439
a(S'me'
g245
S'O'
tp440
a(S','
S','
S'O'
tp441
a(S"it's"
S'VBZ'
p442
S'O'
tp443
a(S'really'
S'RB'
p444
S'O'
tp445
a(S'more'
S'JJR'
p446
S'O'
tp447
a(S'fun'
g5
S'O'
tp448
a(S'that'
g50
S'O'
tp449
a(S'way'
S'NN'
S'O'
tp450
a(S'.'
S'.'
S'O'
tp451
aa(lp452
(S'The'
g3
S'O'
tp453
a(S'icing'
g5
S'O'
tp454
a(S'on'
g243
S'O'
tp455
a(S'the'
g94
S'O'
tp456
a(S'cake'
S'NN'
S'FOOD'
tp457
a(S'was'
g8
S'O'
tp458
a(S'the'
g94
S'O'
tp459
a(S'Sprite'
g10
S'O'
tp460
a(S'we'
g340
S'O'
tp461
a(S'ordered'
g8
S'O'
tp462
a(S'.'
S'.'
S'O'
tp463
aa(lp464
(S'and'
g17
S'O'
tp465
a(S'returned'
S'VBN'
p466
S'O'
tp467
a(S'to'
g135
S'O'
tp468
a(S'our'
S'PRP$'
p469
S'O'
tp470
a(S'table'
g5
S'O'
tp471
a(S'with'
g19
S'O'
tp472
a(S'a'
g55
S'O'
tp473
a(S'bowl'
g5
S'O'
tp474
a(S'twice'
g30
S'O'
tp475
a(S'as'
g30
S'O'
tp476
a(S'big'
S'JJ'
p477
S'O'
tp478
a(S'as'
g275
S'O'
tp479
a(S'the'
g94
S'O'
tp480
a(S'two'
g164
S'O'
tp481
a(S'previous'
S'JJ'
S'O'
tp482
a(S'ones'
S'NNS'
S'O'
tp483
a(S','
S','
S'O'
tp484
a(S'filled'
g466
S'O'
tp485
a(S'with'
g19
S'O'
tp486
a(S'kimchi'
g23
g6
tp487
a(S'.'
S'.'
S'O'
tp488
aa(lp489
(S'Fresh'
S'JJ'
S'FOOD'
tp490
a(S'fish'
g5
g6
tp491
a(S','
S','
S'O'
tp492
a(S'creative'
g21
S'O'
tp493
a(S'dishes'
g23
S'O'
tp494
a(S'.'
S'.'
S'O'
tp495
aa(lp496
(S'('
S'('
S'O'
tp497
a(S"they're"
g5
S'O'
tp498
a(S'grilled'
g466
g6
tp499
a(S'cheese'
g5
g6
tp500
a(S','
S','
S'O'
tp501
a(S'which'
g76
S'O'
tp502
a(S'was'
g8
S'O'
tp503
a(S'really'
g444
S'O'
tp504
a(S'cheap'
g21
S'O'
tp505
a(S'at'
S'IN'
p506
S'O'
tp507
a(S'3'
g44
S'O'
tp508
a(S'went'
S'VBD'
S'O'
tp509
a(S'up'
g30
S'O'
tp510
a(S'to'
g135
S'O'
tp511
a(S'4'
S'CD'
S'O'
tp512
a(S'.'
S'.'
S'O'
tp513
a(S'50'
S'CD'
S'O'
tp514
a(S','
S','
S'O'
tp515
a(S'which'
g76
S'O'
tp516
a(S'is'
g92
S'O'
tp517
a(S'still'
g357
S'O'
tp518
a(S'good'
g21
S'O'
tp519
a(S'considering'
S'VBG'
S'O'
tp520
a(S'it'
g103
S'O'
tp521
a(S'comes'
S'VBZ'
S'O'
tp522
a(S'with'
g19
S'O'
tp523
a(S'a'
g55
S'O'
tp524
a(S'side'
g5
g6
tp525
a(S'salad'
g5
g6
tp526
a(S'.'
S'.'
S'O'
tp527
a(S')'
S')'
S'O'
tp528
aa(lp529
(S'Good'
g21
S'O'
tp530
a(S'ice'
g5
g6
tp531
a(S'cream'
g5
g6
tp532
a(S'.'
S'.'
S'O'
tp533
aa(lp534
(S'But'
S'CC'
p535
S'O'
tp536
a(S'come'
g466
S'O'
tp537
a(S'on'
g243
S'O'
tp538
a(S'.'
S'.'
S'O'
tp539
a(S'.'
S'.'
S'O'
tp540
a(S'.'
S'.'
S'O'
tp541
a(S"it's"
g5
S'O'
tp542
a(S'located'
g466
S'O'
tp543
a(S'on'
g243
S'O'
tp544
a(S'Powell'
g10
S'O'
tp545
a(S'Street'
S'NNP'
p546
S'O'
tp547
a(S','
S','
S'O'
tp548
a(S'half'
S'PDT'
p549
S'O'
tp550
a(S'a'
g55
S'O'
tp551
a(S'block'
g5
S'O'
tp552
a(S'from'
g425
S'O'
tp553
a(S'Union'
S'NNP'
p554
S'O'
tp555
a(S'Square'
g10
S'O'
tp556
a(S','
S','
S'O'
tp557
a(S'so'
g275
S'O'
tp558
a(S'of'
g47
S'O'
tp559
a(S'course'
S'NN'
S'O'
tp560
a(S'you'
S'PRP'
p561
S'O'
tp562
a(S'will'
S'MD'
p563
S'O'
tp564
a(S'see'
g70
S'O'
tp565
a(S'lots'
g23
S'O'
tp566
a(S'of'
g47
S'O'
tp567
a(S'tourists'
g23
S'O'
tp568
a(S'eating'
g203
S'O'
tp569
a(S'here'
g177
S'O'
tp570
a(S'after'
S'IN'
p571
S'O'
tp572
a(S'a'
g55
S'O'
tp573
a(S'day'
g52
S'O'
tp574
a(S'of'
g47
S'O'
tp575
a(S'shopping'
g5
S'O'
tp576
a(S'!'
S'.'
S'O'
tp577
a(S'!'
S'.'
S'O'
tp578
a(S'!'
S'.'
S'O'
tp579
a(S'!'
S'.'
S'O'
tp580
aa(lp581
(S'The'
g3
S'O'
tp582
a(S'fish'
g5
g6
tp583
a(S'is'
g92
S'O'
tp584
a(S'really'
g444
S'O'
tp585
a(S'fresh'
g21
g6
tp586
a(S'here'
g177
S'O'
tp587
a(S'.'
S'.'
S'O'
tp588
aa(lp589
(S'My'
S'PRP$'
p590
S'O'
tp591
a(S'boyfriend'
g5
S'O'
tp592
a(S'finished'
g8
S'O'
tp593
a(S'his'
S'PRP$'
S'O'
tp594
a(S'BBQ'
g10
g6
tp595
a(S'Pork'
g10
g6
tp596
a(S'Bun'
g10
g6
tp597
a(S'before'
g275
S'O'
tp598
a(S'I'
g78
S'O'
tp599
a(S'even'
g30
S'O'
tp600
a(S'had'
g8
S'O'
tp601
a(S'a'
g55
S'O'
tp602
a(S'chance'
S'NN'
S'O'
tp603
a(S'to'
g135
S'O'
tp604
a(S'see'
g70
S'O'
tp605
a(S'it'
g103
S'O'
tp606
a(S'.'
S'.'
S'O'
tp607
a(S'.'
S'.'
S'O'
tp608
a(S'.'
S'.'
S'O'
tp609
a(S'so'
g275
S'O'
tp610
a(S'I'
g78
S'O'
tp611
a(S"don't"
g83
S'O'
tp612
a(S'know'
g70
S'O'
tp613
a(S'how'
S'WRB'
p614
S'O'
tp615
a(S'it'
g103
S'O'
tp616
a(S'compares'
g442
S'O'
tp617
a(S'to'
g135
S'O'
tp618
a(S'Good'
g10
S'O'
tp619
a(S"Luck's"
g10
S'O'
tp620
a(S'.'
S'.'
S'O'
tp621
aa(lp622
(S'Clean'
g21
S'O'
tp623
a(S'environment'
S'NN'
S'O'
tp624
a(S'for'
g291
S'O'
tp625
a(S'small'
S'JJ'
p626
S'O'
tp627
a(S'social'
S'JJ'
S'O'
tp628
a(S'meetings'
S'NNS'
S'O'
tp629
a(S'or'
g28
S'O'
tp630
a(S'coffee'
g5
S'O'
tp631
a(S'breaks'
g23
S'O'
tp632
a(S'in'
g169
S'O'
tp633
a(S'the'
g94
S'O'
tp634
a(S'financial'
S'JJ'
S'O'
tp635
a(S'district'
S'NN'
S'O'
tp636
a(S'.'
S'.'
S'O'
tp637
aa(lp638
(S'On'
S'IN'
S'O'
tp639
a(S'another'
S'DT'
S'O'
tp640
a(S'mission'
g5
S'O'
tp641
a(S','
S','
S'O'
tp642
a(S'I'
g78
S'O'
tp643
a(S'left'
g8
S'O'
tp644
a(S'with'
g19
S'O'
tp645
a(S'twelve'
g5
S'O'
tp646
a(S'steamed'
g466
g6
tp647
a(S'pork'
g5
g6
tp648
a(S'dumplings'
g23
g6
tp649
a(S'and'
g17
S'O'
tp650
a(S'they'
g430
S'O'
tp651
a(S'lasted'
g8
S'O'
tp652
a(S'me'
g245
S'O'
tp653
a(S'a'
g55
S'O'
tp654
a(S'couple'
g5
S'O'
tp655
a(S'of'
g47
S'O'
tp656
a(S'days'
S'NNS'
p657
S'O'
tp658
a(S'.'
S'.'
S'O'
tp659
aa(lp660
(S'He'
S'PRP'
S'O'
tp661
a(S'chose'
g8
S'O'
tp662
a(S'the'
g94
S'O'
tp663
a(S'crabmeat'
g5
g6
tp664
a(S'benedict'
g5
g6
tp665
a(S';'
S':'
S'O'
tp666
a(S'I'
g78
S'O'
tp667
a(S'chose'
g8
S'O'
tp668
a(S'the'
g94
S'O'
tp669
a(S'shrimp'
g5
g6
tp670
a(S'and'
g17
g6
tp671
a(S'avocado'
g21
g6
tp672
a(S'omelet'
g5
g6
tp673
a(S'('
S'('
S'O'
tp674
a(S'I'
g78
S'O'
tp675
a(S'wanted'
g8
S'O'
tp676
a(S'the'
g94
S'O'
tp677
a(S'benedict'
g5
g6
tp678
a(S'too'
S'RB'
p679
S'O'
tp680
a(S','
S','
S'O'
tp681
a(S'but'
g230
S'O'
tp682
a(S'we'
g340
S'O'
tp683
a(S'like'
g83
S'O'
tp684
a(S'to'
g135
S'O'
tp685
a(S'try'
g70
S'O'
tp686
a(S'different'
S'JJ'
p687
S'O'
tp688
a(S'things'
S'NNS'
p689
S'O'
tp690
a(S')'
S')'
S'O'
tp691
a(S'.'
S'.'
S'O'
tp692
aa(lp693
(S')'
S')'
S'O'
tp694
a(S'I'
g78
S'O'
tp695
a(S'love'
g83
S'O'
tp696
a(S'the'
g94
S'O'
tp697
a(S'Deli'
g10
S'O'
tp698
a(S'Cafeteria'
g10
S'O'
tp699
a(S'style'
g401
S'O'
tp700
a(S'setting'
g5
S'O'
tp701
a(S'.'
S'.'
S'O'
tp702
aa(lp703
(S'Loved'
g466
S'O'
tp704
a(S'the'
g94
S'O'
tp705
a(S'hot'
g21
S'O'
tp706
a(S','
S','
S'O'
tp707
a(S'thick'
g21
g6
tp708
a(S'crust'
g5
g6
tp709
a(S'pizza'
g70
g6
tp710
a(S'very'
g30
S'O'
tp711
a(S'much'
g30
S'O'
tp712
a(S'.'
S'.'
S'O'
tp713
aa(lp714
(S'They'
g41
S'O'
tp715
a(S'baked'
g8
S'O'
tp716
a(S'the'
g94
S'O'
tp717
a(S'fish'
g5
g6
tp718
a(S','
S','
S'O'
tp719
a(S'but'
g230
S'O'
tp720
a(S'there'
g30
S'O'
tp721
a(S'was'
g8
S'O'
tp722
a(S'a'
g55
S'O'
tp723
a(S'thin'
g21
S'O'
tp724
a(S'crust'
g5
S'O'
tp725
a(S'around'
g275
S'O'
tp726
a(S'the'
g94
S'O'
tp727
a(S'fish'
g5
g6
tp728
a(S'that'
g275
S'O'
tp729
a(S'almost'
S'RB'
S'O'
tp730
a(S'made'
g8
S'O'
tp731
a(S'it'
g103
S'O'
tp732
a(S'seem'
g70
S'O'
tp733
a(S'fried'
g466
g6
tp734
a(S'.'
S'.'
S'O'
tp735
aa(lp736
(S'But'
g535
S'O'
tp737
a(S'if'
S'IN'
S'O'
tp738
a(S'you'
g561
S'O'
tp739
a(S'have'
g83
S'O'
tp740
a(S'a'
g55
S'O'
tp741
a(S'bunch'
g5
S'O'
tp742
a(S'of'
g47
S'O'
tp743
a(S'carnivores'
g23
S'O'
tp744
a(S'out'
S'RP'
p745
S'O'
tp746
a(S'for'
g291
S'O'
tp747
a(S'some'
g238
S'O'
tp748
a(S'amazing'
g21
S'O'
tp749
a(S'steak'
g5
g6
tp750
a(S'in'
g169
S'O'
tp751
a(S'San'
g352
S'O'
tp752
a(S'Francisco'
g354
S'O'
tp753
a(S'('
S'('
S'O'
tp754
a(S'probably'
S'RB'
p755
S'O'
tp756
a(S'the'
g94
S'O'
tp757
a(S'best'
S'JJS'
p758
S'O'
tp759
a(S')'
S')'
S'O'
tp760
a(S'then'
S'RB'
S'O'
tp761
a(S'head'
g5
S'O'
tp762
a(S'here'
g177
S'O'
tp763
a(S'for'
g291
S'O'
tp764
a(S'not'
S'RB'
p765
S'O'
tp766
a(S'only'
g30
S'O'
tp767
a(S'a'
g55
S'O'
tp768
a(S'meal'
g5
S'O'
tp769
a(S'but'
g230
S'O'
tp770
a(S'a'
g55
S'O'
tp771
a(S'dining'
g21
S'O'
tp772
a(S'experience'
g5
S'O'
tp773
a(S'.'
S'.'
S'O'
tp774
aa(lp775
(S'for'
g291
S'O'
tp776
a(S'the'
g94
S'O'
tp777
a(S'food'
g86
S'O'
tp778
a(S','
S','
S'O'
tp779
a(S'the'
g94
S'O'
tp780
a(S'server'
g5
S'O'
tp781
a(S'talked'
g8
S'O'
tp782
a(S'us'
g132
S'O'
tp783
a(S'into'
S'IN'
p784
S'O'
tp785
a(S'getting'
S'VBG'
S'O'
tp786
a(S'a'
g55
S'O'
tp787
a(S'half'
g21
S'O'
tp788
a(S'order'
S'NN'
p789
S'O'
tp790
a(S'of'
g47
S'O'
tp791
a(S'the'
g94
S'O'
tp792
a(S'seafood'
g5
g6
tp793
a(S'gumbo'
g5
g6
tp794
a(S'and'
g17
S'O'
tp795
a(S','
S','
S'O'
tp796
a(S'damn'
g30
S'O'
tp797
a(S','
S','
S'O'
tp798
a(S'it'
g103
S'O'
tp799
a(S'was'
g8
S'O'
tp800
a(S'a'
g55
S'O'
tp801
a(S'good'
g21
S'O'
tp802
a(S'choice'
S'NN'
S'O'
tp803
a(S'.'
S'.'
S'O'
tp804
aa(lp805
(S'Tea'
g5
S'O'
tp806
a(S'is'
g92
S'O'
tp807
a(S'the'
g94
S'O'
tp808
a(S'real'
S'JJ'
S'O'
tp809
a(S'deal'
g5
S'O'
tp810
a(S'and'
g17
S'O'
tp811
a(S'decent'
g21
S'O'
tp812
a(S'flavor'
g5
S'O'
tp813
a(S'.'
S'.'
S'O'
tp814
aa(lp815
(S'The'
g3
S'O'
tp816
a(S'turkish'
g21
S'O'
tp817
a(S'coffee'
g5
S'O'
tp818
a(S'shake'
g5
S'O'
tp819
a(S'was'
g8
S'O'
tp820
a(S'probably'
g755
S'O'
tp821
a(S'the'
g94
S'O'
tp822
a(S'best'
g758
S'O'
tp823
a(S'shake'
g5
S'O'
tp824
a(S"I've"
g10
S'O'
tp825
a(S'ever'
S'RB'
S'O'
tp826
a(S'had'
g8
S'O'
tp827
a(S'.'
S'.'
S'O'
tp828
aa(lp829
(S'Oh'
S'UH'
p830
S'O'
tp831
a(S','
S','
S'O'
tp832
a(S'the'
g94
S'O'
tp833
a(S'salad'
g5
g6
tp834
a(S'and'
g17
S'O'
tp835
a(S'water'
S'NN'
S'O'
tp836
a(S'jug'
g5
S'O'
tp837
a(S'are'
g219
S'O'
tp838
a(S'a'
g55
S'O'
tp839
a(S'nice'
g21
S'O'
tp840
a(S'touch'
g5
S'O'
tp841
a(S'.'
S'.'
S'O'
tp842
aa(lp843
(S'When'
S'WRB'
S'O'
tp844
a(S"you're"
g5
S'O'
tp845
a(S'craving'
g203
S'O'
tp846
a(S'a'
g55
S'O'
tp847
a(S'good'
g21
S'O'
tp848
a(S'steak'
g5
g6
tp849
a(S','
S','
S'O'
tp850
a(S'reserve'
g70
S'O'
tp851
a(S'a'
g55
S'O'
tp852
a(S'cozy'
g5
S'O'
tp853
a(S'booth'
g5
S'O'
tp854
a(S'and'
g17
S'O'
tp855
a(S'come'
g70
S'O'
tp856
a(S'to'
g135
S'O'
tp857
a(S"Harris'"
g10
S'O'
tp858
a(S'.'
S'.'
S'O'
tp859
aa(lp860
(S'But'
g535
S'O'
tp861
a(S'with'
g19
S'O'
tp862
a(S'those'
S'DT'
p863
S'O'
tp864
a(S'knee'
g23
S'O'
tp865
a(S'high'
g83
S'O'
tp866
a(S'green'
g21
S'O'
tp867
a(S'socks'
g23
S'O'
tp868
a(S'I'
g78
S'O'
tp869
a(S'guess'
g83
S'O'
tp870
a(S'he'
S'PRP'
S'O'
tp871
a(S'is'
g92
S'O'
tp872
a(S'still'
g357
S'O'
tp873
a(S'the'
g94
S'O'
tp874
a(S'outgoing'
g5
S'O'
tp875
a(S'and'
g17
S'O'
tp876
a(S'fun'
g5
S'O'
tp877
a(S'raising'
g203
S'O'
tp878
a(S'character'
g5
S'O'
tp879
a(S'.'
S'.'
S'O'
tp880
aa(lp881
(S'Both'
g50
S'O'
tp882
a(S'my'
g162
S'O'
tp883
a(S'friend'
g5
S'O'
tp884
a(S'and'
g17
S'O'
tp885
a(S'I'
g78
S'O'
tp886
a(S"couldn't"
g83
S'O'
tp887
a(S'finish'
g21
S'O'
tp888
a(S'and'
g17
S'O'
tp889
a(S'took'
S'VBD'
S'O'
tp890
a(S'half'
g5
S'O'
tp891
a(S'home'
g5
S'O'
tp892
a(S'with'
g19
S'O'
tp893
a(S'glorious'
g21
S'O'
tp894
a(S'plans'
g23
S'O'
tp895
a(S'to'
g135
S'O'
tp896
a(S'eat'
g70
S'O'
tp897
a(S'it'
g103
S'O'
tp898
a(S'later'
g30
S'O'
tp899
a(S')'
S')'
S'O'
tp900
aa(lp901
(S'Maybe'
g30
S'O'
tp902
a(S'next'
g21
S'O'
tp903
a(S'time'
g254
S'O'
tp904
a(S'.'
S'.'
S'O'
tp905
a(S'.'
S'.'
S'O'
tp906
a(S'.'
S'.'
S'O'
tp907
a(S'.'
S'.'
S'O'
tp908
a(S'although'
S'IN'
S'O'
tp909
a(S'the'
g94
S'O'
tp910
a(S'rack'
g5
g6
tp911
a(S'of'
g47
g6
tp912
a(S'lamb'
g5
g6
tp913
a(S'sounded'
g466
S'O'
tp914
a(S'pretty'
g30
S'O'
tp915
a(S'good'
g21
S'O'
tp916
a(S','
S','
S'O'
tp917
a(S'too'
g679
S'O'
tp918
a(S'.'
S'.'
S'O'
tp919
aa(lp920
(S'It'
g67
S'O'
tp921
a(S'needs'
g442
S'O'
tp922
a(S'a'
g55
S'O'
tp923
a(S'sauce'
g5
g6
tp924
a(S'though'
g275
S'O'
tp925
a(S','
S','
S'O'
tp926
a(S'like'
g275
S'O'
tp927
a(S'brown'
g21
S'O'
tp928
a(S'gravy'
g21
g6
tp929
a(S'lol'
g5
S'O'
tp930
a(S'.'
S'.'
S'O'
tp931
aa(lp932
(S'Another'
S'DT'
S'O'
tp933
a(S'great'
S'JJ'
p934
S'O'
tp935
a(S'thing'
S'NN'
S'O'
tp936
a(S'about'
g275
S'O'
tp937
a(S'Arinell'
g10
S'O'
tp938
a(S'is'
g92
S'O'
tp939
a(S'they'
g430
S'O'
tp940
a(S'not'
g765
S'O'
tp941
a(S'only'
g30
S'O'
tp942
a(S'serve'
g70
S'O'
tp943
a(S'great'
g934
S'O'
tp944
a(S'pizza'
g5
g6
tp945
a(S','
S','
S'O'
tp946
a(S'but'
g230
S'O'
tp947
a(S'they'
g430
S'O'
tp948
a(S'play'
g83
S'O'
tp949
a(S'the'
g94
S'O'
tp950
a(S'best'
g758
S'O'
tp951
a(S'hair'
g5
S'O'
tp952
a(S'metal'
g5
S'O'
tp953
a(S'on'
g243
S'O'
tp954
a(S'their'
S'PRP$'
p955
S'O'
tp956
a(S'speakers'
g23
S'O'
tp957
a(S'.'
S'.'
S'O'
tp958
aa(lp959
(S'Noodles'
g23
g6
tp960
a(S'with'
g19
g6
tp961
a(S'plum'
g5
g6
tp962
a(S'sauce'
g5
g6
tp963
a(S'('
S'('
S'O'
tp964
a(S'popularly'
g21
S'O'
tp965
a(S'known'
g466
S'O'
tp966
a(S'in'
g169
S'O'
tp967
a(S'Chinese'
g21
S'O'
tp968
a(S'as'
g275
S'O'
tp969
a(S'zhajiang'
g5
g6
tp970
a(S'mian'
g5
g6
tp971
a(S'and'
g17
S'O'
tp972
a(S'in'
g169
S'O'
tp973
a(S'Korean'
g10
S'O'
tp974
a(S'as'
g275
S'O'
tp975
a(S'jajangmyeon'
g5
g6
tp976
a(S')'
S')'
S'O'
tp977
a(S"I'm"
g10
S'O'
tp978
a(S'not'
g765
S'O'
tp979
a(S'sure'
g21
S'O'
tp980
a(S'why'
S'WRB'
S'O'
tp981
a(S'they'
g430
S'O'
tp982
a(S'call'
g83
S'O'
tp983
a(S'it'
g103
S'O'
tp984
a(S'plum'
g442
g6
tp985
a(S'sauce'
g5
g6
tp986
a(S'because'
g275
S'O'
tp987
a(S"it's"
g5
S'O'
tp988
a(S'really'
g444
S'O'
tp989
a(S'a'
g55
S'O'
tp990
a(S'black'
S'JJ'
S'FOOD'
tp991
a(S'soybean'
g5
g6
tp992
a(S'sauce'
g5
g6
tp993
a(S'.'
S'.'
S'O'
tp994
aa(lp995
(S'Yeah'
g830
S'O'
tp996
a(S','
S','
S'O'
tp997
a(S'I'
g78
S'O'
tp998
a(S'admit'
g83
S'O'
tp999
a(S'I'
g78
S'O'
tp1000
a(S'need'
g83
S'O'
tp1001
a(S'to'
g135
S'O'
tp1002
a(S'stop'
g70
S'O'
tp1003
a(S'eating'
g203
S'O'
tp1004
a(S'soo'
g21
S'O'
tp1005
a(S'much'
g30
S'O'
tp1006
a(S'but'
g230
S'O'
tp1007
a(S'what'
S'WP'
p1008
S'O'
tp1009
a(S'fun'
g5
S'O'
tp1010
a(S'would'
S'MD'
S'O'
tp1011
a(S'that'
g76
S'O'
tp1012
a(S'be'
S'VB'
S'O'
tp1013
a(S','
S','
S'O'
tp1014
a(S'right'
g30
S'O'
tp1015
a(S'?'
S'.'
S'O'
tp1016
aa(lp1017
(S'A'
g50
S'O'
tp1018
a(S'little'
g21
S'O'
tp1019
a(S'too'
g679
S'O'
tp1020
a(S'salty'
g5
S'O'
tp1021
a(S'for'
g291
S'O'
tp1022
a(S'me'
g245
S'O'
tp1023
a(S'but'
g230
S'O'
tp1024
a(S'much'
g30
S'O'
tp1025
a(S'less'
g446
S'O'
tp1026
a(S'greasy'
g21
S'O'
tp1027
a(S'than'
S'IN'
S'O'
tp1028
a(S"Quickly's"
g10
S'O'
tp1029
a(S'popcorn'
g21
g6
tp1030
a(S'chicken'
g5
g6
tp1031
a(S'.'
S'.'
S'O'
tp1032
aa(lp1033
(S'Super'
g10
S'O'
tp1034
a(S'cute'
g5
S'O'
tp1035
a(S'glasses'
g23
S'O'
tp1036
a(S'for'
g291
S'O'
tp1037
a(S'your'
g421
S'O'
tp1038
a(S'root'
g5
S'O'
tp1039
a(S'beer'
S'NN'
S'O'
tp1040
a(S'all'
g50
S'O'
tp1041
a(S'branded'
g8
S'O'
tp1042
a(S'with'
g19
S'O'
tp1043
a(S'red'
g21
g6
tp1044
a(S'lobster'
g5
g6
tp1045
a(S'with'
g19
S'O'
tp1046
a(S'big'
g477
S'O'
tp1047
a(S'claws'
g5
S'O'
tp1048
a(S'!'
S'.'
S'O'
tp1049
aa(lp1050
(S'This'
S'DT'
p1051
S'O'
tp1052
a(S'had'
g8
S'O'
tp1053
a(S'a'
g55
S'O'
tp1054
a(S'very'
g30
S'O'
tp1055
a(S'strong'
S'JJ'
p1056
S'O'
tp1057
a(S'garlic'
g21
S'O'
tp1058
a(S'flavor'
g5
S'O'
tp1059
a(S'and'
g17
S'O'
tp1060
a(S'the'
g94
S'O'
tp1061
a(S'shrimp'
g5
g6
tp1062
a(S'was'
g8
S'O'
tp1063
a(S'good'
g21
S'O'
tp1064
a(S','
S','
S'O'
tp1065
a(S'but'
g230
S'O'
tp1066
a(S'it'
g103
S'O'
tp1067
a(S'was'
g8
S'O'
tp1068
a(S'mostly'
S'RB'
S'O'
tp1069
a(S'watery'
g21
S'O'
tp1070
a(S'with'
g19
S'O'
tp1071
a(S'egg'
g5
g6
tp1072
a(S'pieces'
g23
S'O'
tp1073
a(S'.'
S'.'
S'O'
tp1074
aa(lp1075
(S"I'm"
g10
S'O'
tp1076
a(S'planning'
g203
S'O'
tp1077
a(S'on'
g243
S'O'
tp1078
a(S'coming'
g203
S'O'
tp1079
a(S'back'
g30
S'O'
tp1080
a(S'there'
g30
S'O'
tp1081
a(S'just'
g182
S'O'
tp1082
a(S'for'
g291
S'O'
tp1083
a(S'this'
S'DT'
p1084
S'O'
tp1085
a(S'roll'
g5
g6
tp1086
a(S'.'
S'.'
S'O'
tp1087
a(S'.'
S'.'
S'O'
tp1088
a(S'.'
S'.'
S'O'
tp1089
aa(lp1090
(S'Creamy'
g10
g6
tp1091
a(S'foie'
g5
g6
tp1092
a(S'gras'
g23
g6
tp1093
a(S'highlighted'
g466
S'O'
tp1094
a(S'with'
g19
S'O'
tp1095
a(S'sweet'
g21
g6
tp1096
a(S'pineapple'
g23
g6
tp1097
a(S','
S','
S'O'
tp1098
a(S'the'
g94
S'O'
tp1099
a(S'wonderful'
g21
S'O'
tp1100
a(S'texture'
g5
S'O'
tp1101
a(S'of'
g47
S'O'
tp1102
a(S'gelee'
g5
g6
tp1103
a(S','
S','
S'O'
tp1104
a(S'smoky'
g21
g6
tp1105
a(S'bacon'
g5
g6
tp1106
a(S'and'
g17
S'O'
tp1107
a(S'chewy'
g21
g6
tp1108
a(S'duck'
g5
g6
tp1109
a(S'.'
S'.'
S'O'
tp1110
aa(lp1111
(S'A'
g50
S'O'
tp1112
a(S'small'
g626
S'O'
tp1113
a(S'silver'
g5
S'O'
tp1114
a(S'lining'
g5
S'O'
tp1115
a(S'for'
g291
S'O'
tp1116
a(S'this'
g1084
S'O'
tp1117
a(S'recession'
S'NN'
S'O'
tp1118
a(S'?'
S'.'
S'O'
tp1119
aa(lp1120
(S'We'
S'PRP'
p1121
S'O'
tp1122
a(S'ordered'
g8
S'O'
tp1123
a(S'the'
g94
S'O'
tp1124
a(S'Chapchae'
g10
g6
tp1125
a(S','
S','
S'O'
tp1126
a(S'BBQ'
g10
g6
tp1127
a(S'Pork'
g10
g6
tp1128
a(S','
S','
S'O'
tp1129
a(S'BiBimBap'
g10
g6
tp1130
a(S','
S','
S'O'
tp1131
a(S'amp'
g5
S'O'
tp1132
a(S';'
S':'
g6
tp1133
a(S'Kimchi'
g10
g6
tp1134
a(S'Pancake'
g10
S'O'
tp1135
a(S'.'
S'.'
S'O'
tp1136
aa(lp1137
(S'My'
g590
S'O'
tp1138
a(S'wife'
S'NN'
p1139
S'O'
tp1140
a(S'and'
g17
S'O'
tp1141
a(S'I'
g78
S'O'
tp1142
a(S'come'
g83
S'O'
tp1143
a(S'here'
g177
S'O'
tp1144
a(S'and'
g17
S'O'
tp1145
a(S'get'
g70
S'O'
tp1146
a(S'a'
g55
S'O'
tp1147
a(S'12'
S'CD'
S'O'
tp1148
a(S'steak'
g5
g6
tp1149
a(S'for'
g291
S'O'
tp1150
a(S'about'
g275
S'O'
tp1151
a(S'9'
S'CD'
S'O'
tp1152
a(S'and'
g17
S'O'
tp1153
a(S'both'
g50
S'O'
tp1154
a(S'leave'
g83
S'O'
tp1155
a(S'full'
S'JJ'
S'O'
tp1156
a(S'.'
S'.'
S'O'
tp1157
aa.