(lp1
(lp2
(S'Dessert'
S'NNP'
p3
tp4
a(S'was'
S'VBD'
p5
tp6
a(S'the'
S'DT'
p7
tp8
a(S'Chocolate'
g3
tp9
a(S'Angelfood'
g3
tp10
a(S'Cake'
g3
tp11
a(S'with'
S'IN'
p12
tp13
a(S'Blackberry'
g3
tp14
a(S'Cabernet'
g3
tp15
a(S'sorbet'
S'NN'
p16
tp17
a(S'and'
S'CC'
p18
tp19
a(S'was'
g5
tp20
a(S'the'
g7
tp21
a(S'perfect'
S'JJ'
p22
tp23
a(S'end'
g16
tp24
a(S'to'
S'TO'
p25
tp26
a(S'my'
S'PRP$'
p27
tp28
a(S'meal'
g16
tp29
a(S'.'
S'.'
tp30
aa(lp31
(S'Keep'
S'VB'
p32
tp33
a(S'in'
S'IN'
p34
tp35
a(S'mind'
g16
tp36
a(S'that'
S'IN'
p37
tp38
a(S'the'
g7
tp39
a(S'place'
g16
tp40
a(S'gets'
S'VBZ'
p41
tp42
a(S'pretty'
S'RB'
p43
tp44
a(S'crowded'
S'VBN'
p45
tp46
a(S'during'
S'IN'
p47
tp48
a(S'lunch'
g16
tp49
a(S'hours'
S'NNS'
p50
tp51
a(S'and'
g18
tp52
a(S'would'
S'MD'
p53
tp54
a(S'not'
S'RB'
p55
tp56
a(S'be'
S'VB'
p57
tp58
a(S'suitable'
g22
tp59
a(S'for'
S'IN'
p60
tp61
a(S'large'
S'JJ'
p62
tp63
a(S'groups'
S'NNS'
p64
tp65
a(S'as'
g37
tp66
a(S'most'
S'JJS'
p67
tp68
a(S'spaces'
S'NNS'
p69
tp70
a(S'seat'
S'VBP'
p71
tp72
a(S'at'
S'IN'
p73
tp74
a(S'least'
g67
tp75
a(S'4'
S'CD'
p76
tp77
a(S'people'
S'NNS'
p78
tp79
a(S'if'
S'IN'
p80
tp81
a(S'the'
g7
tp82
a(S'tables'
g69
tp83
a(S'next'
g37
tp84
a(S'to'
g25
tp85
a(S'each'
S'DT'
p86
tp87
a(S'other'
S'JJ'
p88
tp89
a(S'.'
S'.'
tp90
aa(lp91
(S'I'
S'PRP'
p92
tp93
a(S"don't"
g71
tp94
a(S'know'
g22
tp95
a(S'wines'
g69
tp96
a(S','
S','
tp97
a(S'but'
S'CC'
p98
tp99
a(S'I'
g92
tp100
a(S'drank'
g71
tp101
a(S'red'
g22
tp102
a(S'all'
S'DT'
p103
tp104
a(S'night'
S'NN'
p105
tp106
a(S'and'
g18
tp107
a(S'had'
g5
tp108
a(S'a'
S'DT'
p109
tp110
a(S'headache'
g16
tp111
a(S'the'
g7
tp112
a(S'next'
g22
tp113
a(S'day'
S'NN'
p114
tp115
a(S'.'
S'.'
tp116
aa(lp117
(S'Sounds'
g69
tp118
a(S'like'
g37
tp119
a(S"it's"
g16
tp120
a(S'not'
g55
tp121
a(S'filling'
S'VBG'
p122
tp123
a(S'but'
g98
tp124
a(S"it's"
g22
tp125
a(S'actually'
S'RB'
p126
tp127
a(S'perfect'
g22
tp128
a(S'and'
g18
tp129
a(S'grilled'
g5
tp130
a(S'perfectly'
g43
tp131
a(S'.'
S'.'
tp132
aa(lp133
(S'The'
S'DT'
p134
tp135
a(S'bun'
g16
tp136
a(S'dough'
g16
tp137
a(S'was'
g5
tp138
a(S'nice'
g22
tp139
a(S'and'
g18
tp140
a(S'light'
g22
tp141
a(S'.'
S'.'
tp142
aa(lp143
(S')'
S')'
tp144
a(S','
S','
tp145
a(S'black'
S'JJ'
p146
tp147
a(S'cod'
g16
tp148
a(S'w'
g16
tp149
a(S'sea'
g16
tp150
a(S'urchin'
g22
tp151
a(S'('
S'('
tp152
a(S'very'
g43
tp153
a(S'interesting'
g122
tp154
a(S')'
S')'
tp155
a(S','
S','
tp156
a(S'pheasant'
g22
tp157
a(S'('
S'('
tp158
a(S'very'
g43
tp159
a(S'good'
g22
tp160
a(S')'
S')'
tp161
a(S','
S','
tp162
a(S'and'
g18
tp163
a(S'venison'
g16
tp164
a(S'('
S'('
tp165
a(S'the'
g7
tp166
a(S'least'
g67
tp167
a(S'remarkable'
g22
tp168
a(S')'
S')'
tp169
a(S'.'
S'.'
tp170
aa(lp171
(S'I'
g92
tp172
a(S'highly'
S'RB'
p173
tp174
a(S'recommend'
g71
tp175
a(S'though'
g37
tp176
a(S','
S','
tp177
a(S'if'
g80
tp178
a(S"you're"
g22
tp179
a(S'looking'
S'VBG'
p180
tp181
a(S'for'
g60
tp182
a(S'some'
S'DT'
p183
tp184
a(S'good'
g22
tp185
a(S'and'
g18
tp186
a(S'inexpensive'
g22
tp187
a(S'Thai'
g3
tp188
a(S'.'
S'.'
tp189
aa(lp190
(S'and'
g18
tp191
a(S'it'
S'PRP'
p192
tp193
a(S'was'
g5
tp194
a(S'so'
g43
tp195
a(S'tender'
g22
tp196
a(S'and'
g18
tp197
a(S'juicy'
g16
tp198
a(S'.'
S'.'
tp199
aa(lp200
(S'The'
g134
tp201
a(S'decor'
g16
tp202
a(S'is'
S'VBZ'
p203
tp204
a(S'trendy'
g22
tp205
a(S','
S','
tp206
a(S'with'
g12
tp207
a(S'paper'
S'NN'
p208
tp209
a(S'lanterns'
g69
tp210
a(S'and'
g18
tp211
a(S'fresh'
g22
tp212
a(S'cut'
g16
tp213
a(S'('
S'('
tp214
a(S'after'
S'IN'
p215
tp216
a(S'some'
g183
tp217
a(S'deliberation'
g16
tp218
a(S'within'
S'IN'
p219
tp220
a(S'our'
S'PRP$'
p221
tp222
a(S'group'
S'NN'
p223
tp224
a(S')'
S')'
tp225
a(S'branches'
g69
tp226
a(S'of'
S'IN'
p227
tp228
a(S'flowers'
g69
tp229
a(S'.'
S'.'
tp230
aa(lp231
(S'My'
S'PRP$'
p232
tp233
a(S'partner'
S'NN'
p234
tp235
a(S'got'
g5
tp236
a(S'a'
g109
tp237
a(S'banana'
g16
tp238
a(S'chocolate'
g16
tp239
a(S'smoothie'
g16
tp240
a(S','
S','
tp241
a(S'which'
S'WDT'
p242
tp243
a(S'may'
S'MD'
p244
tp245
a(S'have'
g32
tp246
a(S'been'
S'VBN'
p247
tp248
a(S'the'
g7
tp249
a(S'best'
g67
tp250
a(S'fruit'
g16
tp251
a(S'junk'
S'NN'
p252
tp253
a(S'food'
S'NN'
p254
tp255
a(S'combo'
g16
tp256
a(S','
S','
tp257
a(S'I'
g92
tp258
a(S'have'
g71
tp259
a(S'ever'
S'RB'
p260
tp261
a(S'tasted'
g45
tp262
a(S'even'
g43
tp263
a(S'though'
g37
tp264
a(S'it'
g192
tp265
a(S'was'
g5
tp266
a(S'around'
g43
tp267
a(S'6'
S'CD'
p268
tp269
a(S'bucks'
g69
tp270
a(S'.'
S'.'
tp271
aa(lp272
(S'It'
S'PRP'
p273
tp274
a(S'had'
g5
tp275
a(S'been'
g247
tp276
a(S'an'
g103
tp277
a(S'incredibly'
g43
tp278
a(S'hot'
g22
tp279
a(S'day'
g114
tp280
a(S'and'
g18
tp281
a(S'the'
g7
tp282
a(S'quiet'
g22
tp283
a(S'atmosphere'
g16
tp284
a(S'was'
g5
tp285
a(S'music'
S'NN'
p286
tp287
a(S'('
S'('
tp288
a(S'or'
S'CC'
p289
tp290
a(S'lack'
g32
tp291
a(S'there'
S'EX'
p292
tp293
a(S'of'
g227
tp294
a(S'!'
S'.'
tp295
a(S')'
S')'
tp296
aa(lp297
(S'the'
g7
tp298
a(S'chocolate'
g16
tp299
a(S'was'
g5
tp300
a(S'thick'
g22
tp301
a(S'and'
g18
tp302
a(S'sweet'
g22
tp303
a(S'.'
S'.'
tp304
a(S'.'
S'.'
tp305
a(S'.'
S'.'
tp306
a(S'which'
g242
tp307
a(S'was'
g5
tp308
a(S'subdued'
g45
tp309
a(S'by'
S'IN'
p310
tp311
a(S'the'
g7
tp312
a(S'amazing'
g22
tp313
a(S'refreshing'
g16
tp314
a(S','
S','
tp315
a(S'FRESH'
g3
tp316
a(S'BANANA'
g3
tp317
a(S'.'
S'.'
tp318
a(S'.'
S'.'
tp319
a(S'.'
S'.'
tp320
a(S'oh'
g22
tp321
a(S'bananas'
g16
tp322
a(S'.'
S'.'
tp323
aa(lp324
(S'On'
S'IN'
p325
tp326
a(S'sunny'
g22
tp327
a(S'days'
S'NNS'
p328
tp329
a(S'there'
g292
tp330
a(S'is'
g203
tp331
a(S'often'
S'RB'
p332
tp333
a(S'a'
g109
tp334
a(S'wait'
g16
tp335
a(S','
S','
tp336
a(S'but'
g98
tp337
a(S'they'
S'PRP'
p338
tp339
a(S'will'
S'MD'
p340
tp341
a(S'bring'
g32
tp342
a(S'you'
S'PRP'
p343
tp344
a(S'a'
g109
tp345
a(S'little'
g22
tp346
a(S'complimentary'
g22
tp347
a(S'cup'
g16
tp348
a(S'of'
g227
tp349
a(S'orange'
g16
tp350
a(S'juice'
g16
tp351
a(S'while'
g37
tp352
a(S'you'
g343
tp353
a(S'wait'
g71
tp354
a(S'.'
S'.'
tp355
aa(lp356
(S'If'
S'IN'
p357
tp358
a(S"you're"
g45
tp359
a(S'into'
S'IN'
p360
tp361
a(S'green'
g22
tp362
a(S'tea'
g16
tp363
a(S'ice'
g16
tp364
a(S'cream'
g16
tp365
a(S','
S','
tp366
a(S'give'
g32
tp367
a(S'theirs'
g192
tp368
a(S'a'
g109
tp369
a(S'try'
g16
tp370
a(S'.'
S'.'
tp371
aa(lp372
(S'How'
S'WRB'
p373
tp374
a(S'can'
S'MD'
p375
tp376
a(S'a'
g109
tp377
a(S'cheese'
g22
tp378
a(S'pizza'
g16
tp379
a(S'be'
g57
tp380
a(S'THAT'
g37
tp381
a(S'good'
g22
tp382
a(S'you'
g343
tp383
a(S'ask'
g32
tp384
a(S'?'
S'.'
tp385
a(S'?'
S'.'
tp386
a(S'?'
S'.'
tp387
aa(lp388
(S'Come'
g45
tp389
a(S'on'
S'IN'
p390
tp391
a(S'over'
g37
tp392
a(S'to'
g25
tp393
a(S'Pad'
g3
tp394
a(S'Thai'
g3
tp395
a(S'and'
g18
tp396
a(S'get'
g32
tp397
a(S'your'
S'PRP$'
p398
tp399
a(S'share'
S'NN'
p400
tp401
a(S'of'
g227
tp402
a(S'their'
S'PRP$'
p403
tp404
a(S'yummy'
g22
tp405
a(S'cuisine'
g16
tp406
a(S'.'
S'.'
tp407
aa(lp408
(S'I'
g92
tp409
a(S'also'
S'RB'
p410
tp411
a(S'enjoyed'
g5
tp412
a(S'the'
g7
tp413
a(S'tekka'
g16
tp414
a(S'maki'
g16
tp415
a(S'roll'
g16
tp416
a(S'('
S'('
tp417
a(S'my'
g27
tp418
a(S'favorite'
g16
tp419
a(S'roll'
g16
tp420
a(S'to'
g25
tp421
a(S'order'
S'NN'
p422
tp423
a(S')'
S')'
tp424
a(S'.'
S'.'
tp425
aa(lp426
(S'The'
g134
tp427
a(S'sugar'
g16
tp428
a(S'free'
g22
tp429
a(S'apricot'
g16
tp430
a(S'amp'
g16
tp431
a(S';'
S':'
tp432
a(S'ginger'
S'CC'
p433
tp434
a(S'tea'
g32
tp435
a(S'with'
g12
tp436
a(S'boba'
g16
tp437
a(S'is'
g203
tp438
a(S'awesome'
g22
tp439
a(S'.'
S'.'
tp440
aa(lp441
(S"It's"
g3
tp442
a(S'rare'
g71
tp443
a(S'that'
g37
tp444
a(S'pizza'
g16
tp445
a(S'delights'
g69
tp446
a(S'me'
S'PRP'
p447
tp448
a(S'the'
g7
tp449
a(S'way'
S'NN'
p450
tp451
a(S'the'
g7
tp452
a(S'4'
g76
tp453
a(S'at'
g73
tp454
a(S'Haystack'
g3
tp455
a(S'does'
S'VBZ'
p456
tp457
a(S'.'
S'.'
tp458
aa(lp459
(S'This'
S'DT'
p460
tp461
a(S'place'
g16
tp462
a(S'is'
g203
tp463
a(S'great'
S'JJ'
p464
tp465
a(S','
S','
tp466
a(S'starting'
g122
tp467
a(S'with'
g12
tp468
a(S'the'
g7
tp469
a(S'old'
S'JJ'
p470
tp471
a(S'fashioned'
g22
tp472
a(S'San'
S'NNP'
p473
tp474
a(S'Francisco'
S'NNP'
p475
tp476
a(S'Gold'
g3
tp477
a(S'Coast'
S'NNP'
p478
tp479
a(S'ambiance'
g16
tp480
a(S','
S','
tp481
a(S'right'
g43
tp482
a(S'down'
g43
tp483
a(S'to'
g25
tp484
a(S'the'
g7
tp485
a(S'hearty'
g16
tp486
a(S'meat'
g16
tp487
a(S'and'
g18
tp488
a(S'potatoes'
g69
tp489
a(S'they'
g338
tp490
a(S'will'
g340
tp491
a(S'ladle'
g32
tp492
a(S'onto'
g37
tp493
a(S'your'
g398
tp494
a(S'platter'
g16
tp495
a(S'for'
g60
tp496
a(S'3'
S'CD'
p497
tp498
a(S'or'
g289
tp499
a(S'4'
g76
tp500
a(S'bucks'
g69
tp501
a(S'.'
S'.'
tp502
aa(lp503
(S'The'
g134
tp504
a(S'dark'
g22
tp505
a(S'chocolate'
g16
tp506
a(S'cake'
g16
tp507
a(S'with'
g12
tp508
a(S'creme'
g16
tp509
a(S'fraiche'
g16
tp510
a(S'was'
g5
tp511
a(S'good'
g22
tp512
a(S'.'
S'.'
tp513
aa(lp514
(S'The'
g134
tp515
a(S'garlic'
g22
tp516
a(S'bread'
g16
tp517
a(S'was'
g5
tp518
a(S'burnt'
g22
tp519
a(S'and'
g18
tp520
a(S'the'
g7
tp521
a(S'bread'
g16
tp522
a(S'and'
g18
tp523
a(S'butter'
g16
tp524
a(S'I'
g92
tp525
a(S'ordered'
g5
tp526
a(S'never'
S'RB'
p527
tp528
a(S'showed'
g45
tp529
a(S'up'
S'RP'
p530
tp531
a(S'at'
g73
tp532
a(S'all'
g103
tp533
a(S'.'
S'.'
tp534
aa(lp535
(S'They'
S'PRP'
p536
tp537
a(S'also'
g410
tp538
a(S'have'
g71
tp539
a(S'a'
g109
tp540
a(S'nice'
g22
tp541
a(S'seaweed'
g16
tp542
a(S'salad'
g16
tp543
a(S'.'
S'.'
tp544
aa(lp545
(S'The'
g134
tp546
a(S'plating'
g16
tp547
a(S'was'
g5
tp548
a(S'unique'
g22
tp549
a(S','
S','
tp550
a(S'they'
g338
tp551
a(S'put'
g5
tp552
a(S'the'
g7
tp553
a(S'fresh'
g22
tp554
a(S'soy'
g16
tp555
a(S'beans'
g69
tp556
a(S'on'
g390
tp557
a(S'the'
g7
tp558
a(S'side'
g16
tp559
a(S'for'
g60
tp560
a(S'you'
g343
tp561
a(S'to'
g25
tp562
a(S'mix'
g32
tp563
a(S'in'
g34
tp564
a(S'yourself'
g192
tp565
a(S'.'
S'.'
tp566
aa(lp567
(S'Shrimp'
g3
tp568
a(S'amp'
g16
tp569
a(S';'
S':'
tp570
a(S'chive'
g22
tp571
a(S'dumplings'
g69
tp572
a(S'4'
g76
tp573
a(S'5'
S'CD'
p574
tp575
a(S'Pretty'
g3
tp576
a(S'darn'
g16
tp577
a(S'good'
g22
tp578
a(S'too'
S'RB'
p579
tp580
a(S'.'
S'.'
tp581
a(S'.'
S'.'
tp582
a(S'.'
S'.'
tp583
a(S'just'
S'RB'
p584
tp585
a(S'be'
g57
tp586
a(S'prepared'
g45
tp587
a(S'for'
g60
tp588
a(S'a'
g109
tp589
a(S'lot'
g16
tp590
a(S'of'
g227
tp591
a(S'chives'
g69
tp592
a(S'.'
S'.'
tp593
aa(lp594
(S'I'
g92
tp595
a(S"don't"
g71
tp596
a(S'remember'
g32
tp597
a(S'how'
S'WRB'
p598
tp599
a(S'much'
g22
tp600
a(S'the'
g7
tp601
a(S'crab'
g16
tp602
a(S'was'
g5
tp603
a(S'as'
g37
tp604
a(S'I'
g92
tp605
a(S'knew'
g5
tp606
a(S'we'
S'PRP'
p607
tp608
a(S"weren't"
g71
tp609
a(S'going'
S'VBG'
p610
tp611
a(S'to'
g25
tp612
a(S'order'
g422
tp613
a(S'it'
g192
tp614
a(S'.'
S'.'
tp615
aa(lp616
(S'Just'
g43
tp617
a(S'like'
g37
tp618
a(S'everyone'
S'NN'
p619
tp620
a(S'else'
g43
tp621
a(S','
S','
tp622
a(S'I'
g92
tp623
a(S'was'
g5
tp624
a(S'also'
g410
tp625
a(S'surprised'
g22
tp626
a(S'when'
g373
tp627
a(S'my'
g27
tp628
a(S'culinary'
g22
tp629
a(S'snob'
g16
tp630
a(S'friend'
g16
tp631
a(S'wanted'
g5
tp632
a(S'sushi'
g16
tp633
a(S'and'
g18
tp634
a(S'recommended'
g5
tp635
a(S'somewhere'
g43
tp636
a(S'in'
g34
tp637
a(S'the'
g7
tp638
a(S'Metreon'
g3
tp639
a(S','
S','
tp640
a(S'but'
g98
tp641
a(S'just'
g584
tp642
a(S'like'
g37
tp643
a(S'culinary'
g22
tp644
a(S'snobs'
g69
tp645
a(S'often'
g332
tp646
a(S'are'
S'VBP'
p647
tp648
a(S','
S','
tp649
a(S'he'
S'PRP'
p650
tp651
a(S'was'
g5
tp652
a(S'right'
g43
tp653
a(S')'
S')'
tp654
a(S'BTW'
g3
tp655
a(S'fun'
g16
tp656
a(S'fact'
S'NN'
p657
tp658
a(S'that'
g37
tp659
a(S'makes'
S'VBZ'
p660
tp661
a(S'Sanraku'
g3
tp662
a(S'being'
S'VBG'
p663
tp664
a(S'in'
g34
tp665
a(S'a'
g109
tp666
a(S'mall'
g22
tp667
a(S'make'
g16
tp668
a(S'more'
S'JJR'
p669
tp670
a(S'sense'
g16
tp671
a(S'the'
g7
tp672
a(S'Metreon'
g3
tp673
a(S','
S','
tp674
a(S'the'
g7
tp675
a(S'new'
S'JJ'
p676
tp677
a(S'mall'
g16
tp678
a(S'('
S'('
tp679
a(S'Westfield'
g3
tp680
a(S')'
S')'
tp681
a(S','
S','
tp682
a(S'and'
g18
tp683
a(S"SFO's"
g3
tp684
a(S'International'
S'NNP'
p685
tp686
a(S'Terminal'
g3
tp687
a(S'have'
g71
tp688
a(S'all'
g103
tp689
a(S'committed'
g45
tp690
a(S'to'
g25
tp691
a(S'only'
g43
tp692
a(S'leasing'
g122
tp693
a(S'to'
g25
tp694
a(S'independent'
S'JJ'
p695
tp696
a(S','
S','
tp697
a(S'San'
g473
tp698
a(S'Francisco'
g475
tp699
a(S'eateries'
g69
tp700
a(S','
S','
tp701
a(S'which'
g242
tp702
a(S'is'
g203
tp703
a(S'why'
S'WRB'
p704
tp705
a(S"you'll"
g22
tp706
a(S'find'
g16
tp707
a(S'surprisingly'
g43
tp708
a(S'good'
g22
tp709
a(S'places'
g69
tp710
a(S'like'
g37
tp711
a(S'this'
S'DT'
p712
tp713
a(S'in'
g34
tp714
a(S'the'
g7
tp715
a(S'Metreon'
g3
tp716
a(S'and'
g18
tp717
a(S'a'
g109
tp718
a(S'noticeable'
g22
tp719
a(S'lack'
g16
tp720
a(S'of'
g227
tp721
a(S'fast'
g22
tp722
a(S'food'
g254
tp723
a(S'restaurants'
g69
tp724
a(S'like'
g37
tp725
a(S"McDonald's"
g3
tp726
a(S'in'
g34
tp727
a(S"SFO's"
g3
tp728
a(S'International'
g685
tp729
a(S'Terminal'
g3
tp730
a(S'.'
S'.'
tp731
aa(lp732
(S'This'
g460
tp733
a(S'is'
g203
tp734
a(S'really'
S'RB'
p735
tp736
a(S'just'
g584
tp737
a(S'a'
g109
tp738
a(S'review'
g16
tp739
a(S'of'
g227
tp740
a(S'the'
g7
tp741
a(S'breakfast'
g16
tp742
a(S'sandwich'
g16
tp743
a(S'from'
S'IN'
p744
tp745
a(S'the'
g7
tp746
a(S'Golden'
g3
tp747
a(S'Gate'
g3
tp748
a(S'Meat'
g3
tp749
a(S'Company'
g3
tp750
a(S'.'
S'.'
tp751
aa(lp752
(S'You'
S'PRP'
p753
tp754
a(S'should'
S'MD'
p755
tp756
a(S'have'
g32
tp757
a(S'seen'
S'VBN'
p758
tp759
a(S'his'
S'PRP$'
p760
tp761
a(S'face'
g16
tp762
a(S'when'
g373
tp763
a(S'he'
g650
tp764
a(S'got'
g5
tp765
a(S'the'
g7
tp766
a(S'soup'
g16
tp767
a(S','
S','
tp768
a(S'and'
g18
tp769
a(S'then'
S'RB'
p770
tp771
a(S','
S','
tp772
a(S'him'
S'PRP'
p773
tp774
a(S'getting'
S'VBG'
p775
tp776
a(S'his'
g760
tp777
a(S'chopsticks'
g69
tp778
a(S','
S','
tp779
a(S'and'
g18
tp780
a(S'flipping'
g122
tp781
a(S'the'
g7
tp782
a(S'ahl'
g16
tp783
a(S'around'
g43
tp784
a(S'.'
S'.'
tp785
aa(lp786
(S'That'
g103
tp787
a(S'garlic'
g22
tp788
a(S'sauce'
g16
tp789
a(S'of'
g227
tp790
a(S'theirs'
g69
tp791
a(S','
S','
tp792
a(S'now'
S'RB'
p793
tp794
a(S'I'
g92
tp795
a(S'know'
g71
tp796
a(S'why'
g704
tp797
a(S'it'
g192
tp798
a(S'is'
g203
tp799
a(S'notorious'
g22
tp800
a(S'!'
S'.'
tp801
aa(lp802
(S'We'
S'PRP'
p803
tp804
a(S'started'
g5
tp805
a(S'with'
g12
tp806
a(S'an'
g103
tp807
a(S'appetizer'
g16
tp808
a(S'of'
g227
tp809
a(S'calamari'
g16
tp810
a(S'and'
g18
tp811
a(S'the'
g7
tp812
a(S'trout'
g16
tp813
a(S'salad'
g16
tp814
a(S'.'
S'.'
tp815
a(S'.'
S'.'
tp816
a(S'.'
S'.'
tp817
a(S'both'
g103
tp818
a(S'delicious'
g22
tp819
a(S'!'
S'.'
tp820
aa(lp821
(S'The'
g134
tp822
a(S'shrimp'
g16
tp823
a(S'on'
g390
tp824
a(S'the'
g7
tp825
a(S'sugarcane'
g16
tp826
a(S'is'
g203
tp827
a(S'a'
g109
tp828
a(S'very'
g43
tp829
a(S'popular'
S'JJ'
p830
tp831
a(S'dish'
g16
tp832
a(S'that'
g242
tp833
a(S'is'
g203
tp834
a(S'a'
g109
tp835
a(S'must'
S'MD'
p836
tp837
a(S'if'
g80
tp838
a(S'you'
g343
tp839
a(S'enjoy'
g71
tp840
a(S'seafood'
g16
tp841
a(S'.'
S'.'
tp842
aa(lp843
(S"I'd"
g3
tp844
a(S'suggest'
g71
tp845
a(S'the'
g7
tp846
a(S'combo'
g16
tp847
a(S'with'
g12
tp848
a(S'a'
g109
tp849
a(S'tall'
g22
tp850
a(S'glass'
g16
tp851
a(S'of'
g227
tp852
a(S'pilsner'
g16
tp853
a(S'urquel'
g16
tp854
a(S'to'
g25
tp855
a(S'chase'
g32
tp856
a(S'it'
g192
tp857
a(S'.'
S'.'
tp858
aa(lp859
(S'BBQ'
g3
tp860
a(S'Pork'
g3
tp861
a(S'buns'
S'VBZ'
p862
tp863
a(S'6'
g268
tp864
a(S'.'
S'.'
tp865
aa(lp866
(S'We'
g803
tp867
a(S'were'
S'VBD'
p868
tp869
a(S'gonna'
g43
tp870
a(S'go'
g45
tp871
a(S'to'
g25
tp872
a(S'the'
g7
tp873
a(S'Vietnamese'
g22
tp874
a(S'crab'
g16
tp875
a(S'place'
g16
tp876
a(S'down'
g37
tp877
a(S'the'
g7
tp878
a(S'block'
g16
tp879
a(S','
S','
tp880
a(S'but'
g98
tp881
a(S'they'
g338
tp882
a(S'were'
g868
tp883
a(S'closed'
g45
tp884
a(S','
S','
tp885
a(S'so'
g43
tp886
a(S'Thai'
g22
tp887
a(S'Cottage'
g16
tp888
a(S'was'
g5
tp889
a(S'our'
g221
tp890
a(S'second'
g22
tp891
a(S'option'
S'NN'
p892
tp893
a(S'.'
S'.'
tp894
aa(lp895
(S'I'
g92
tp896
a(S'felt'
g5
tp897
a(S'bad'
S'JJ'
p898
tp899
a(S'that'
g37
tp900
a(S'we'
g607
tp901
a(S'had'
g5
tp902
a(S'to'
g25
tp903
a(S'return'
g32
tp904
a(S'a'
g109
tp905
a(S'dish'
g16
tp906
a(S','
S','
tp907
a(S'but'
g98
tp908
a(S'the'
g7
tp909
a(S'second'
g22
tp910
a(S'time'
S'NN'
p911
tp912
a(S'around'
g37
tp913
a(S','
S','
tp914
a(S'it'
g192
tp915
a(S'still'
S'RB'
p916
tp917
a(S'had'
g5
tp918
a(S'large'
g62
tp919
a(S'grains'
g69
tp920
a(S'of'
g227
tp921
a(S'salt'
g16
tp922
a(S'in'
g34
tp923
a(S'it'
g192
tp924
a(S'.'
S'.'
tp925
a(S'.'
S'.'
tp926
a(S'that'
g103
tp927
a(S'was'
g5
tp928
a(S'crunchy'
g16
tp929
a(S'.'
S'.'
tp930
aa(lp931
(S'My'
g232
tp932
a(S'soft'
g22
tp933
a(S'shell'
g16
tp934
a(S'crab'
g16
tp935
a(S'app'
g16
tp936
a(S','
S','
tp937
a(S'swordfish'
g22
tp938
a(S'second'
g16
tp939
a(S'and'
g18
tp940
a(S'filet'
g16
tp941
a(S'lobster'
g16
tp942
a(S'truffled'
g5
tp943
a(S'mac'
g16
tp944
a(S'in'
g34
tp945
a(S'a'
g109
tp946
a(S'brioche'
g16
tp947
a(S'bowl'
g16
tp948
a(S'main'
S'JJ'
p949
tp950
a(S'were'
g868
tp951
a(S'all'
g103
tp952
a(S'superb'
g16
tp953
a(S'.'
S'.'
tp954
aa(lp955
(S"Barney's"
g3
tp956
a(S'is'
g203
tp957
a(S'a'
g109
tp958
a(S'nice'
g22
tp959
a(S','
S','
tp960
a(S'spiffed'
g5
tp961
a(S'up'
g530
tp962
a(S'burger'
g16
tp963
a(S'joint'
g16
tp964
a(S'in'
g34
tp965
a(S'the'
g7
tp966
a(S'Marina'
g3
tp967
a(S'District'
g3
tp968
a(S'.'
S'.'
tp969
aa(lp970
(S'The'
g134
tp971
a(S'containers'
g69
tp972
a(S"aren't"
g71
tp973
a(S'meant'
g45
tp974
a(S'to'
g25
tp975
a(S'travel'
g32
tp976
a(S'and'
g18
tp977
a(S'the'
g7
tp978
a(S'food'
g254
tp979
a(S'will'
g340
tp980
a(S'be'
g57
tp981
a(S'all'
g103
tp982
a(S'over'
g37
tp983
a(S'your'
g398
tp984
a(S'lap'
g16
tp985
a(S'before'
g37
tp986
a(S'you'
g343
tp987
a(S'get'
g71
tp988
a(S'home'
g45
tp989
a(S'with'
g12
tp990
a(S'it'
g192
tp991
a(S'.'
S'.'
tp992
aa(lp993
(S'we'
g607
tp994
a(S'finished'
g5
tp995
a(S'up'
g530
tp996
a(S'the'
g7
tp997
a(S'meal'
g16
tp998
a(S'with'
g12
tp999
a(S'the'
g7
tp1000
a(S'black'
g146
tp1001
a(S'rice'
g16
tp1002
a(S'pudding'
g16
tp1003
a(S'.'
S'.'
tp1004
aa(lp1005
(S'Modern'
g3
tp1006
a(S'Thai'
g3
tp1007
a(S'understands'
g862
tp1008
a(S'this'
g712
tp1009
a(S'bit'
g16
tp1010
a(S'about'
g37
tp1011
a(S'the'
g7
tp1012
a(S'.'
S'.'
tp1013
a(S'.'
S'.'
tp1014
a(S'.'
S'.'
tp1015
a(S'er'
g16
tp1016
a(S'.'
S'.'
tp1017
a(S'.'
S'.'
tp1018
a(S'.'
S'.'
tp1019
a(S'spanking'
g16
tp1020
a(S'.'
S'.'
tp1021
aa(lp1022
(S'Secondly'
g43
tp1023
a(S','
S','
tp1024
a(S'he'
g650
tp1025
a(S'acted'
g5
tp1026
a(S'as'
g37
tp1027
a(S'though'
g37
tp1028
a(S'I'
g92
tp1029
a(S'was'
g5
tp1030
a(S'a'
g109
tp1031
a(S'regular'
g22
tp1032
a(S'customer'
S'NN'
p1033
tp1034
a(S'when'
g373
tp1035
a(S'in'
g34
tp1036
a(S'reality'
g16
tp1037
a(S','
S','
tp1038
a(S'I'
g92
tp1039
a(S'probably'
S'RB'
p1040
tp1041
a(S"haven't"
g5
tp1042
a(S'been'
g247
tp1043
a(S'there'
g43
tp1044
a(S'in'
g34
tp1045
a(S'about'
g37
tp1046
a(S'a'
g109
tp1047
a(S'year'
S'NN'
p1048
tp1049
a(S'.'
S'.'
tp1050
aa(lp1051
(S'BEef'
g3
tp1052
a(S'.'
S'.'
tp1053
a(S'.'
S'.'
tp1054
a(S'.'
S'.'
tp1055
aa(lp1056
(S'Kimchi'
g3
tp1057
a(S'jun'
g16
tp1058
a(S'('
S'('
tp1059
a(S'uhhhh'
g22
tp1060
a(S','
S','
tp1061
a(S'green'
g22
tp1062
a(S'onion'
g16
tp1063
a(S'and'
g18
tp1064
a(S'kimchi'
g32
tp1065
a(S'pancake'
g32
tp1066
a(S'?'
S'.'
tp1067
a(S')'
S')'
tp1068
aa(lp1069
(S'But'
S'CC'
p1070
tp1071
a(S'it'
g192
tp1072
a(S'had'
g5
tp1073
a(S'cilantro'
g45
tp1074
a(S','
S','
tp1075
a(S'big'
S'JJ'
p1076
tp1077
a(S'chunks'
g69
tp1078
a(S'of'
g227
tp1079
a(S'pork'
g16
tp1080
a(S','
S','
tp1081
a(S'and'
g18
tp1082
a(S'tangy'
g22
tp1083
a(S'pickles'
g69
tp1084
a(S'in'
g34
tp1085
a(S'it'
g192
tp1086
a(S'.'
S'.'
tp1087
aa(lp1088
(S'Tuna'
g3
tp1089
a(S'stuffed'
g5
tp1090
a(S'tomato'
g22
tp1091
a(S'salad'
g16
tp1092
a(S'with'
g12
tp1093
a(S'lemon'
g22
tp1094
a(S'no'
g103
tp1095
a(S'dressing'
g16
tp1096
a(S','
S','
tp1097
a(S'and'
g18
tp1098
a(S'Time'
g3
tp1099
a(S'started'
g5
tp1100
a(S'moving'
g122
tp1101
a(S'really'
g735
tp1102
a(S'slow'
g22
tp1103
a(S'as'
g37
tp1104
a(S'I'
g92
tp1105
a(S'heard'
g71
tp1106
a(S'my'
g27
tp1107
a(S'daughters'
g69
tp1108
a(S'slo'
g71
tp1109
a(S'mo'
g22
tp1110
a(S'voice'
g69
tp1111
a(S'say'
g71
tp1112
a(S'gluten'
g22
tp1113
a(S'free'
g22
tp1114
a(S'crust'
g16
tp1115
a(S'pizza'
g16
tp1116
a(S'with'
g12
tp1117
a(S'soy'
g22
tp1118
a(S'cheese'
g22
tp1119
a(S'please'
g16
tp1120
a(S'HOLD'
g32
tp1121
a(S'THE'
g3
tp1122
a(S'PHONE'
g3
tp1123
a(S','
S','
tp1124
a(S'STOP'
g3
tp1125
a(S'THE'
g3
tp1126
a(S'PRESSES'
g3
tp1127
a(S'!'
S'.'
tp1128
a(S'!'
S'.'
tp1129
a(S'!'
S'.'
tp1130
aa(lp1131
(S'Also'
S'RB'
p1132
tp1133
a(S','
S','
tp1134
a(S'I'
g92
tp1135
a(S'loooove'
g71
tp1136
a(S'olives'
g69
tp1137
a(S'and'
g18
tp1138
a(S'feta'
g22
tp1139
a(S'cheese'
g16
tp1140
a(S'.'
S'.'
tp1141
a(S'.'
S'.'
tp1142
a(S'yumm'
g16
tp1143
a(S'!'
S'.'
tp1144
aa(lp1145
(S'OMG'
g16
tp1146
a(S'by'
g310
tp1147
a(S'far'
S'RB'
p1148
tp1149
a(S'best'
g67
tp1150
a(S'steak'
g22
tp1151
a(S'house'
S'NN'
p1152
tp1153
a(S'I'
g92
tp1154
a(S'have'
g71
tp1155
a(S'ever'
g260
tp1156
a(S'been'
g247
tp1157
a(S'too'
g579
tp1158
a(S'.'
S'.'
tp1159
aa(lp1160
(S'I'
g92
tp1161
a(S'dined'
g5
tp1162
a(S'on'
g390
tp1163
a(S'the'
g7
tp1164
a(S'rock'
g16
tp1165
a(S'cod'
g16
tp1166
a(S'fish'
g22
tp1167
a(S'tacos'
g16
tp1168
a(S','
S','
tp1169
a(S'served'
g5
tp1170
a(S'with'
g12
tp1171
a(S'a'
g109
tp1172
a(S'side'
g16
tp1173
a(S'salad'
g862
tp1174
a(S'the'
g7
tp1175
a(S'tacos'
g16
tp1176
a(S'were'
g868
tp1177
a(S'a'
g109
tp1178
a(S'tiny'
g22
tp1179
a(S'bit'
g16
tp1180
a(S'under'
S'IN'
p1181
tp1182
a(S'seasoned'
g45
tp1183
a(S'and'
g18
tp1184
a(S'much'
g43
tp1185
a(S'to'
g25
tp1186
a(S'my'
g27
tp1187
a(S'dismay'
g16
tp1188
a(S'there'
g43
tp1189
a(S'I'
g92
tp1190
a(S"didn't"
g71
tp1191
a(S'see'
g32
tp1192
a(S'the'
g7
tp1193
a(S'Tapatio'
g3
tp1194
a(S'until'
S'IN'
p1195
tp1196
a(S'I'
g92
tp1197
a(S'was'
g5
tp1198
a(S'done'
S'VBN'
p1199
tp1200
a(S'('
S'('
tp1201
a(S'The'
g134
tp1202
a(S'salad'
g16
tp1203
a(S'was'
g5
tp1204
a(S'delicious'
g22
tp1205
a(S'and'
g18
tp1206
a(S'dressed'
g45
tp1207
a(S'perfectly'
g43
tp1208
a(S'.'
S'.'
tp1209
aa(lp1210
(S'Hands'
g69
tp1211
a(S'down'
g530
tp1212
a(S','
S','
tp1213
a(S'the'
g7
tp1214
a(S'chicken'
g16
tp1215
a(S'tikka'
g16
tp1216
a(S'masala'
g16
tp1217
a(S'is'
g203
tp1218
a(S'excellent'
g22
tp1219
a(S'here'
S'RB'
p1220
tp1221
a(S'the'
g7
tp1222
a(S'sauce'
g16
tp1223
a(S'is'
g203
tp1224
a(S'rich'
g22
tp1225
a(S'and'
g18
tp1226
a(S'creamy'
g22
tp1227
a(S'and'
g18
tp1228
a(S'the'
g7
tp1229
a(S'chicken'
g22
tp1230
a(S'very'
g43
tp1231
a(S'tender'
g16
tp1232
a(S'.'
S'.'
tp1233
aa(lp1234
(S'Topped'
g45
tp1235
a(S'with'
g12
tp1236
a(S'a'
g109
tp1237
a(S'unique'
g16
tp1238
a(S'('
S'('
tp1239
a(S'to'
g25
tp1240
a(S'me'
g447
tp1241
a(S')'
S')'
tp1242
a(S'tomatillo'
g71
tp1243
a(S'avocado'
g22
tp1244
a(S'salsa'
g16
tp1245
a(S'that'
g37
tp1246
a(S'I'
g92
tp1247
a(S'loved'
g5
tp1248
a(S'.'
S'.'
tp1249
aa(lp1250
(S'I'
g92
tp1251
a(S'went'
S'VBD'
p1252
tp1253
a(S'with'
g12
tp1254
a(S'a'
g109
tp1255
a(S'friend'
g16
tp1256
a(S'and'
g18
tp1257
a(S'we'
g607
tp1258
a(S'were'
g868
tp1259
a(S'completely'
g43
tp1260
a(S'satisfied'
g45
tp1261
a(S'with'
g12
tp1262
a(S'only'
g43
tp1263
a(S'a'
g109
tp1264
a(S'pound'
S'NN'
p1265
tp1266
a(S'of'
g227
tp1267
a(S'shrimp'
g16
tp1268
a(S'('
S'('
tp1269
a(S'14'
S'CD'
p1270
tp1271
a(S'15'
S'CD'
p1272
tp1273
a(S'good'
g22
tp1274
a(S'size'
S'NN'
p1275
tp1276
a(S'shrimp'
g16
tp1277
a(S')'
S')'
tp1278
a(S'amp'
g16
tp1279
a(S';'
S':'
tp1280
a(S'sides'
S'NNS'
p1281
tp1282
a(S'.'
S'.'
tp1283
aa(lp1284
(S'Softest'
g3
tp1285
a(S'roll'
g16
tp1286
a(S'of'
g227
tp1287
a(S'french'
g22
tp1288
a(S'bread'
g16
tp1289
a(S'ever'
g260
tp1290
a(S'with'
g12
tp1291
a(S'a'
g109
tp1292
a(S'custard'
g16
tp1293
a(S'all'
S'PDT'
p1294
tp1295
a(S'the'
g7
tp1296
a(S'way'
g450
tp1297
a(S'down'
g37
tp1298
a(S'the'
g7
tp1299
a(S'middle'
g16
tp1300
a(S'.'
S'.'
tp1301
aa(lp1302
(S'We'
g803
tp1303
a(S'indulged'
g5
tp1304
a(S'in'
g34
tp1305
a(S'various'
S'JJ'
p1306
tp1307
a(S'festive'
g22
tp1308
a(S'meals'
g69
tp1309
a(S'such'
g22
tp1310
a(S'as'
g37
tp1311
a(S'the'
g7
tp1312
a(S'hummus'
g16
tp1313
a(S','
S','
tp1314
a(S'a'
g109
tp1315
a(S'couple'
g16
tp1316
a(S'of'
g227
tp1317
a(S'babaganoush'
g16
tp1318
a(S'spreads'
g69
tp1319
a(S','
S','
tp1320
a(S'exotic'
g22
tp1321
a(S'salad'
g16
tp1322
a(S'dishes'
g69
tp1323
a(S','
S','
tp1324
a(S'grilled'
g5
tp1325
a(S'beef'
g16
tp1326
a(S'and'
g18
tp1327
a(S'chicken'
g16
tp1328
a(S','
S','
tp1329
a(S'egyptian'
g22
tp1330
a(S'rice'
g16
tp1331
a(S','
S','
tp1332
a(S'and'
g18
tp1333
a(S'the'
g7
tp1334
a(S'very'
g43
tp1335
a(S'savory'
g22
tp1336
a(S'couscous'
g22
tp1337
a(S'.'
S'.'
tp1338
aa(lp1339
(S'The'
g134
tp1340
a(S'har'
g16
tp1341
a(S'gaws'
g16
tp1342
a(S'were'
g868
tp1343
a(S'amazing'
g22
tp1344
a(S'tons'
S'NNS'
p1345
tp1346
a(S'of'
g227
tp1347
a(S'shrimp'
g16
tp1348
a(S','
S','
tp1349
a(S'fresh'
g22
tp1350
a(S'and'
g18
tp1351
a(S'yummy'
g16
tp1352
a(S'.'
S'.'
tp1353
aa(lp1354
(S'My'
g232
tp1355
a(S'bf'
g16
tp1356
a(S'had'
g5
tp1357
a(S'fish'
g22
tp1358
a(S'cooked'
g45
tp1359
a(S'picata'
g16
tp1360
a(S'style'
S'NN'
p1361
tp1362
a(S'('
S'('
tp1363
a(S"can't"
g22
tp1364
a(S'remember'
g32
tp1365
a(S'the'
g7
tp1366
a(S'kind'
S'NN'
p1367
tp1368
a(S'of'
g227
tp1369
a(S'fish'
g16
tp1370
a(S')'
S')'
tp1371
a(S'and'
g18
tp1372
a(S'it'
g192
tp1373
a(S'was'
g5
tp1374
a(S'just'
g584
tp1375
a(S'as'
g37
tp1376
a(S'tasty'
g16
tp1377
a(S'.'
S'.'
tp1378
aa(lp1379
(S'Dish'
g22
tp1380
a(S'Highlight'
g3
tp1381
a(S'Salt'
g3
tp1382
a(S'amp'
g16
tp1383
a(S';'
S':'
tp1384
a(S'Pepper'
g3
tp1385
a(S'Calamari'
g3
tp1386
a(S'with'
g12
tp1387
a(S'cilantro'
g22
tp1388
a(S'lime'
g16
tp1389
a(S'dipping'
g122
tp1390
a(S'sauce'
g16
tp1391
a(S'.'
S'.'
tp1392
aa(lp1393
(S'Decent'
g22
tp1394
a(S'selection'
g16
tp1395
a(S'of'
g227
tp1396
a(S'wine'
g16
tp1397
a(S'by'
g310
tp1398
a(S'the'
g7
tp1399
a(S'glass'
g16
tp1400
a(S','
S','
tp1401
a(S'and'
g18
tp1402
a(S"I'm"
g3
tp1403
a(S'a'
g109
tp1404
a(S'sucker'
g16
tp1405
a(S'for'
g60
tp1406
a(S'a'
g109
tp1407
a(S'good'
g22
tp1408
a(S"butcher's"
g16
tp1409
a(S'plate'
g16
tp1410
a(S'.'
S'.'
tp1411
aa(lp1412
(S'Alas'
g3
tp1413
a(S','
S','
tp1414
a(S'we'
g607
tp1415
a(S'had'
g5
tp1416
a(S'to'
g25
tp1417
a(S'cancel'
g32
tp1418
a(S'a'
g109
tp1419
a(S'reso'
g16
tp1420
a(S'at'
g73
tp1421
a(S'Quality'
g3
tp1422
a(S'Meats'
g3
tp1423
a(S'in'
g34
tp1424
a(S'Manhattan'
S'NNP'
p1425
tp1426
a(S','
S','
tp1427
a(S'which'
g242
tp1428
a(S'left'
g5
tp1429
a(S'me'
g447
tp1430
a(S'hankering'
g122
tp1431
a(S'for'
g60
tp1432
a(S'a'
g109
tp1433
a(S'big'
g1076
tp1434
a(S"'ol"
g497
tp1435
a(S'NY'
g3
tp1436
a(S'steak'
g16
tp1437
a(S'.'
S'.'
tp1438
aa(lp1439
(S"You'll"
g16
tp1440
a(S'also'
g410
tp1441
a(S'have'
g71
tp1442
a(S'a'
g109
tp1443
a(S'great'
g464
tp1444
a(S'view'
g16
tp1445
a(S'of'
g227
tp1446
a(S'their'
g403
tp1447
a(S'Sicilian'
g22
tp1448
a(S'style'
g1361
tp1449
a(S'pizza'
g16
tp1450
a(S'('
S'('
tp1451
a(S'aka'
g37
tp1452
a(S'square'
g16
tp1453
a(S'cut'
g16
tp1454
a(S'pizza'
g16
tp1455
a(S')'
S')'
tp1456
a(S'since'
S'IN'
p1457
tp1458
a(S"they're"
g16
tp1459
a(S'showcased'
g45
tp1460
a(S'along'
g37
tp1461
a(S'the'
g7
tp1462
a(S'window'
g16
tp1463
a(S'.'
S'.'
tp1464
aa(lp1465
(S'Their'
g232
tp1466
a(S'duck'
g16
tp1467
a(S'in'
g34
tp1468
a(S'red'
g22
tp1469
a(S'curry'
g16
tp1470
a(S'with'
g12
tp1471
a(S'pineapple'
g16
tp1472
a(S','
S','
tp1473
a(S'peppers'
g69
tp1474
a(S'and'
g18
tp1475
a(S'basil'
g16
tp1476
a(S'is'
g203
tp1477
a(S'spicy'
g43
tp1478
a(S'good'
g22
tp1479
a(S'.'
S'.'
tp1480
aa(lp1481
(S'usually'
S'RB'
p1482
tp1483
a(S'with'
g12
tp1484
a(S'seafood'
g16
tp1485
a(S','
S','
tp1486
a(S'you'
g343
tp1487
a(S'get'
g71
tp1488
a(S'small'
S'JJ'
p1489
tp1490
a(S'portions'
g69
tp1491
a(S','
S','
tp1492
a(S'but'
g98
tp1493
a(S'this'
g712
tp1494
a(S'was'
g5
tp1495
a(S'not'
g55
tp1496
a(S'small'
g1489
tp1497
a(S'.'
S'.'
tp1498
aa(lp1499
(S'A'
g103
tp1500
a(S'venti'
g22
tp1501
a(S'coffee'
g16
tp1502
a(S'is'
g203
tp1503
a(S'ALSO'
g3
tp1504
a(S'better'
g669
tp1505
a(S'than'
S'IN'
p1506
tp1507
a(S'an'
g103
tp1508
a(S'iPhone'
g16
tp1509
a(S'in'
g34
tp1510
a(S'the'
g7
tp1511
a(S'toilet'
g16
tp1512
a(S'!'
S'.'
tp1513
aa(lp1514
(S'Piping'
g122
tp1515
a(S'hot'
g22
tp1516
a(S'and'
g18
tp1517
a(S'flavorful'
g22
tp1518
a(S'meat'
g16
tp1519
a(S'.'
S'.'
tp1520
aa(lp1521
(S'I'
g92
tp1522
a(S'am'
S'VBP'
p1523
tp1524
a(S'comparing'
g122
tp1525
a(S'it'
g192
tp1526
a(S'to'
g25
tp1527
a(S"Kelly's"
g3
tp1528
a(S'Roast'
g3
tp1529
a(S"Beef's"
g3
tp1530
a(S'lobster'
g16
tp1531
a(S'roll'
g16
tp1532
a(S'in'
g34
tp1533
a(S'revere'
g22
tp1534
a(S'beach'
g16
tp1535
a(S','
S','
tp1536
a(S'MA'
g3
tp1537
a(S'b'
S'SYM'
p1538
tp1539
a(S'c'
g16
tp1540
a(S"that's"
g862
tp1541
a(S'the'
g7
tp1542
a(S'best'
g67
tp1543
a(S'lobster'
g16
tp1544
a(S'roll'
g16
tp1545
a(S'by'
g310
tp1546
a(S'far'
g1148
tp1547
a(S'and'
g18
tp1548
a(S'it'
g192
tp1549
a(S'wassss'
g43
tp1550
a(S'.'
S'.'
tp1551
a(S'.'
S'.'
tp1552
a(S'.'
S'.'
tp1553
a(S'.'
S'.'
tp1554
a(S'.'
S'.'
tp1555
a(S'.'
S'.'
tp1556
a(S'.'
S'.'
tp1557
a(S'pretty'
g43
tp1558
a(S'close'
g43
tp1559
a(S'.'
S'.'
tp1560
aa(lp1561
(S'And'
S'CC'
p1562
tp1563
a(S'the'
g7
tp1564
a(S'fried'
g22
tp1565
a(S'ipswich'
g22
tp1566
a(S'clams'
g69
tp1567
a(S'yum'
g71
tp1568
a(S'!'
S'.'
tp1569
aa(lp1570
(S'One'
g497
tp1571
a(S'serving'
g16
tp1572
a(S'of'
g227
tp1573
a(S'rice'
g16
tp1574
a(S'is'
g203
tp1575
a(S'good'
g22
tp1576
a(S'enough'
g43
tp1577
a(S'to'
g25
tp1578
a(S'feed'
g32
tp1579
a(S'one'
g497
tp1580
a(S'person'
S'NN'
p1581
tp1582
a(S'.'
S'.'
tp1583
aa(lp1584
(S'We'
g803
tp1585
a(S'had'
g5
tp1586
a(S'the'
g7
tp1587
a(S'Melanzane'
g3
tp1588
a(S'A'
g3
tp1589
a(S';'
S':'
tp1590
a(S';'
S':'
tp1591
a(S'a'
g109
tp1592
a(S'Parmigiana'
g3
tp1593
a(S'an'
g103
tp1594
a(S'eggplant'
g22
tp1595
a(S'dish'
g16
tp1596
a(S'.'
S'.'
tp1597
aa(lp1598
(S'By'
S'IN'
p1599
tp1600
a(S'the'
g7
tp1601
a(S'end'
g16
tp1602
a(S'we'
g607
tp1603
a(S'were'
g868
tp1604
a(S'over'
g43
tp1605
a(S'stuffed'
g22
tp1606
a(S'and'
g18
tp1607
a(S'over'
g37
tp1608
a(S'impressed'
g22
tp1609
a(S'.'
S'.'
tp1610
aa(lp1611
(S'Two'
S'CD'
p1612
tp1613
a(S'of'
g227
tp1614
a(S'us'
S'PRP'
p1615
tp1616
a(S'ordered'
g5
tp1617
a(S'the'
g7
tp1618
a(S'Riz'
g3
tp1619
a(S'St'
g3
tp1620
a(S'Jacques'
g3
tp1621
a(S'the'
g7
tp1622
a(S'scallops'
g69
tp1623
a(S'were'
g868
tp1624
a(S'perfect'
g22
tp1625
a(S'but'
g98
tp1626
a(S'the'
g7
tp1627
a(S'black'
g146
tp1628
a(S'risotto'
g16
tp1629
a(S'whoa'
g16
tp1630
a(S','
S','
tp1631
a(S'the'
g7
tp1632
a(S'black'
g146
tp1633
a(S'risotto'
g16
tp1634
a(S'with'
g12
tp1635
a(S'visible'
g22
tp1636
a(S'melted'
g45
tp1637
a(S'butter'
g16
tp1638
a(S'on'
g390
tp1639
a(S'top'
g16
tp1640
a(S'was'
g5
tp1641
a(S'divine'
g16
tp1642
a(S'.'
S'.'
tp1643
aa(lp1644
(S'I'
g92
tp1645
a(S'had'
g5
tp1646
a(S'the'
g7
tp1647
a(S'shaken'
g45
tp1648
a(S'beef'
g16
tp1649
a(S'which'
g242
tp1650
a(S'was'
g5
tp1651
a(S'to'
g25
tp1652
a(S'DIE'
g3
tp1653
a(S'for'
g60
tp1654
a(S'!'
S'.'
tp1655
aa(lp1656
(S'As'
g37
tp1657
a(S'a'
g109
tp1658
a(S'vegetarian'
g22
tp1659
a(S','
S','
tp1660
a(S'I'
g92
tp1661
a(S'know'
g71
tp1662
a(S'that'
g37
tp1663
a(S'it'
g192
tp1664
a(S'can'
g375
tp1665
a(S'be'
g57
tp1666
a(S'difficult'
S'JJ'
p1667
tp1668
a(S'to'
g25
tp1669
a(S'find'
g32
tp1670
a(S'restaurants'
g69
tp1671
a(S'that'
g242
tp1672
a(S'offer'
g71
tp1673
a(S'a'
g109
tp1674
a(S'wide'
S'JJ'
p1675
tp1676
a(S'selection'
g16
tp1677
a(S'of'
g227
tp1678
a(S'GOOD'
g3
tp1679
a(S'veggie'
g16
tp1680
a(S'food'
g254
tp1681
a(S','
S','
tp1682
a(S'but'
g98
tp1683
a(S'I'
g92
tp1684
a(S'have'
g71
tp1685
a(S'found'
g45
tp1686
a(S'a'
g109
tp1687
a(S'winner'
g16
tp1688
a(S'with'
g12
tp1689
a(S'Cha'
g3
tp1690
a(S'Ya'
g3
tp1691
a(S'.'
S'.'
tp1692
aa(lp1693
(S'They'
g536
tp1694
a(S'have'
g71
tp1695
a(S'roses'
g69
tp1696
a(S'on'
g390
tp1697
a(S'each'
g86
tp1698
a(S'table'
g16
tp1699
a(S','
S','
tp1700
a(S'the'
g7
tp1701
a(S'decor'
g16
tp1702
a(S'is'
g203
tp1703
a(S'charming'
g122
tp1704
a(S'for'
g60
tp1705
a(S'a'
g109
tp1706
a(S'small'
g1489
tp1707
a(S'location'
g16
tp1708
a(S'adjacent'
g16
tp1709
a(S'to'
g25
tp1710
a(S'a'
g109
tp1711
a(S'hotel'
g16
tp1712
a(S'.'
S'.'
tp1713
aa(lp1714
(S'I'
g92
tp1715
a(S'suggest'
g71
tp1716
a(S'the'
g7
tp1717
a(S'naked'
g22
tp1718
a(S'roll'
g16
tp1719
a(S'then'
g770
tp1720
a(S'you'
g343
tp1721
a(S'are'
g647
tp1722
a(S'free'
g22
tp1723
a(S'to'
g25
tp1724
a(S'dump'
g32
tp1725
a(S'as'
g43
tp1726
a(S'much'
g22
tp1727
a(S'or'
g289
tp1728
a(S'as'
g43
tp1729
a(S'little'
g22
tp1730
a(S'butter'
g16
tp1731
a(S'on'
g390
tp1732
a(S'it'
g192
tp1733
a(S'as'
g37
tp1734
a(S'you'
g343
tp1735
a(S'like'
g71
tp1736
a(S'.'
S'.'
tp1737
aa(lp1738
(S'I'
g92
tp1739
a(S'was'
g5
tp1740
a(S'able'
S'JJ'
p1741
tp1742
a(S'to'
g25
tp1743
a(S'switch'
g32
tp1744
a(S'the'
g7
tp1745
a(S'beef'
g16
tp1746
a(S'for'
g60
tp1747
a(S'fish'
g16
tp1748
a(S'.'
S'.'
tp1749
aa(lp1750
(S'It'
g273
tp1751
a(S'ended'
g5
tp1752
a(S'up'
g530
tp1753
a(S'being'
g663
tp1754
a(S'good'
g22
tp1755
a(S'anyway'
g43
tp1756
a(S'with'
g12
tp1757
a(S'an'
g103
tp1758
a(S'unattractive'
g22
tp1759
a(S'but'
g98
tp1760
a(S'tasty'
g22
tp1761
a(S'goat'
g16
tp1762
a(S'cheese'
g16
tp1763
a(S'and'
g18
tp1764
a(S'sherry'
g16
tp1765
a(S'dressing'
g16
tp1766
a(S'.'
S'.'
tp1767
aa(lp1768
(S'i'
g16
tp1769
a(S'had'
g5
tp1770
a(S'the'
g7
tp1771
a(S'Kalbi'
g3
tp1772
a(S'Ribs'
g3
tp1773
a(S'and'
g18
tp1774
a(S'rice'
g16
tp1775
a(S'and'
g18
tp1776
a(S"wasn't"
g32
tp1777
a(S'the'
g7
tp1778
a(S'biggest'
S'JJS'
p1779
tp1780
a(S'fan'
g16
tp1781
a(S'of'
g227
tp1782
a(S'as'
g37
tp1783
a(S'it'
g192
tp1784
a(S'was'
g5
tp1785
a(S'also'
g410
tp1786
a(S'served'
g45
tp1787
a(S'with'
g12
tp1788
a(S'a'
g109
tp1789
a(S'side'
g16
tp1790
a(S'salad'
g16
tp1791
a(S'and'
g18
tp1792
a(S'nothing'
S'NN'
p1793
tp1794
a(S'else'
g43
tp1795
a(S'.'
S'.'
tp1796
aa(lp1797
(S'We'
g803
tp1798
a(S'shared'
g5
tp1799
a(S'the'
g7
tp1800
a(S'Baked'
g3
tp1801
a(S'Cambozola'
g3
tp1802
a(S','
S','
tp1803
a(S'which'
g242
tp1804
a(S'are'
g647
tp1805
a(S'long'
g22
tp1806
a(S'strips'
g69
tp1807
a(S'of'
g227
tp1808
a(S'toasted'
g22
tp1809
a(S'bread'
g16
tp1810
a(S'dipped'
g5
tp1811
a(S'in'
g34
tp1812
a(S'a'
g109
tp1813
a(S'decadent'
g16
tp1814
a(S'cheese'
g16
tp1815
a(S'sauce'
g71
tp1816
a(S'dip'
g16
tp1817
a(S'and'
g18
tp1818
a(S'roasted'
g45
tp1819
a(S'garlic'
g16
tp1820
a(S'on'
g390
tp1821
a(S'the'
g7
tp1822
a(S'side'
g16
tp1823
a(S','
S','
tp1824
a(S'a'
g109
tp1825
a(S'delicious'
g22
tp1826
a(S'start'
g16
tp1827
a(S'to'
g25
tp1828
a(S'our'
g221
tp1829
a(S'entrees'
g69
tp1830
a(S'.'
S'.'
tp1831
aa(lp1832
(S"Don't"
g3
tp1833
a(S'get'
g32
tp1834
a(S'me'
g447
tp1835
a(S'wrong'
g22
tp1836
a(S','
S','
tp1837
a(S'I'
g92
tp1838
a(S'like'
g71
tp1839
a(S'an'
g103
tp1840
a(S'occasional'
g22
tp1841
a(S'foofy'
g16
tp1842
a(S'roll'
g16
tp1843
a(S','
S','
tp1844
a(S'just'
g584
tp1845
a(S'like'
g37
tp1846
a(S"you'll"
g69
tp1847
a(S'sometimes'
g43
tp1848
a(S'catch'
g32
tp1849
a(S'me'
g447
tp1850
a(S'drinking'
g122
tp1851
a(S'beverages'
g69
tp1852
a(S'with'
g12
tp1853
a(S'umbrellas'
g69
tp1854
a(S'in'
g34
tp1855
a(S'them'
S'PRP'
p1856
tp1857
a(S','
S','
tp1858
a(S'but'
g98
tp1859
a(S'I'
g92
tp1860
a(S'like'
g71
tp1861
a(S'roll'
g16
tp1862
a(S'options'
S'NNS'
p1863
tp1864
a(S'with'
g12
tp1865
a(S'fresh'
g22
tp1866
a(S','
S','
tp1867
a(S'raw'
g22
tp1868
a(S'ingredients'
g69
tp1869
a(S'.'
S'.'
tp1870
aa(lp1871
(S'take'
g32
tp1872
a(S'their'
g403
tp1873
a(S'time'
g911
tp1874
a(S','
S','
tp1875
a(S'which'
g242
tp1876
a(S'is'
g203
tp1877
a(S'fine'
g22
tp1878
a(S','
S','
tp1879
a(S'but'
g98
tp1880
a(S'we'
g607
tp1881
a(S'also'
g410
tp1882
a(S'had'
g5
tp1883
a(S'to'
g25
tp1884
a(S'ask'
g32
tp1885
a(S'twice'
g43
tp1886
a(S'for'
g60
tp1887
a(S'a'
g109
tp1888
a(S'couple'
g22
tp1889
a(S'things'
S'NNS'
p1890
tp1891
a(S'including'
S'VBG'
p1892
tp1893
a(S'the'
g7
tp1894
a(S'cheese'
g22
tp1895
a(S'menu'
g16
tp1896
a(S'and'
g18
tp1897
a(S'peligrino'
g16
tp1898
a(S'.'
S'.'
tp1899
aa(lp1900
(S'I'
g92
tp1901
a(S'hate'
g71
tp1902
a(S'places'
g69
tp1903
a(S'that'
g242
tp1904
a(S'really'
g735
tp1905
a(S'load'
g862
tp1906
a(S'up'
g530
tp1907
a(S'the'
g7
tp1908
a(S'plate'
g16
tp1909
a(S'with'
g12
tp1910
a(S'mediocre'
g16
tp1911
a(S'('
S'('
tp1912
a(S'or'
g289
tp1913
a(S'worse'
g669
tp1914
a(S')'
S')'
tp1915
a(S'food'
g254
tp1916
a(S'.'
S'.'
tp1917
aa(lp1918
(S'It'
g273
tp1919
a(S'came'
S'VBD'
p1920
tp1921
a(S'w'
g22
tp1922
a(S'hot'
g22
tp1923
a(S','
S','
tp1924
a(S'thick'
g22
tp1925
a(S'triangles'
g69
tp1926
a(S'of'
g227
tp1927
a(S'pita'
g69
tp1928
a(S'like'
g37
tp1929
a(S'bread'
g16
tp1930
a(S'and'
g18
tp1931
a(S'the'
g7
tp1932
a(S'biggest'
g1779
tp1933
a(S'slice'
g16
tp1934
a(S'of'
g227
tp1935
a(S'cucumber'
g16
tp1936
a(S'I'
g92
tp1937
a(S'think'
g71
tp1938
a(S"I've"
g3
tp1939
a(S'ever'
g260
tp1940
a(S'seen'
g758
tp1941
a(S'.'
S'.'
tp1942
aa(lp1943
(S'so'
g37
tp1944
a(S'it'
g192
tp1945
a(S'tastes'
g862
tp1946
a(S'strangely'
g43
tp1947
a(S'like'
g37
tp1948
a(S'the'
g7
tp1949
a(S'best'
g67
tp1950
a(S'pizza'
g16
tp1951
a(S"i've"
g16
tp1952
a(S'ever'
g260
tp1953
a(S'had'
g5
tp1954
a(S'everytime'
g16
tp1955
a(S'i'
g16
tp1956
a(S'order'
g422
tp1957
a(S'it'
g192
tp1958
a(S'.'
S'.'
tp1959
aa(lp1960
(S'When'
S'WRB'
p1961
tp1962
a(S'you'
g343
tp1963
a(S'cut'
g71
tp1964
a(S'your'
g398
tp1965
a(S'steak'
g16
tp1966
a(S'you'
g343
tp1967
a(S'press'
g71
tp1968
a(S'it'
g192
tp1969
a(S'against'
S'IN'
p1970
tp1971
a(S'the'
g7
tp1972
a(S'plate'
g16
tp1973
a(S'and'
g18
tp1974
a(S'see'
g32
tp1975
a(S'the'
g7
tp1976
a(S'butter'
g16
tp1977
a(S'sizzle'
g16
tp1978
a(S'into'
g360
tp1979
a(S'the'
g7
tp1980
a(S'steak'
g16
tp1981
a(S'.'
S'.'
tp1982
aa(lp1983
(S'We'
g803
tp1984
a(S'started'
g5
tp1985
a(S'off'
g530
tp1986
a(S'with'
g12
tp1987
a(S'steamed'
g22
tp1988
a(S'mussels'
g69
tp1989
a(S'and'
g18
tp1990
a(S'mac'
g16
tp1991
a(S'n'
g22
tp1992
a(S'cheese'
g16
tp1993
a(S'.'
S'.'
tp1994
aa(lp1995
(S'Also'
g1132
tp1996
a(S','
S','
tp1997
a(S'they'
g338
tp1998
a(S'were'
g868
tp1999
a(S'perfectly'
g43
tp2000
a(S'spicy'
g45
tp2001
a(S'('
S'('
tp2002
a(S'for'
g60
tp2003
a(S'my'
g27
tp2004
a(S'taste'
g16
tp2005
a(S')'
S')'
tp2006
a(S'hot'
g862
tp2007
a(S'enough'
g22
tp2008
a(S'to'
g25
tp2009
a(S'make'
g32
tp2010
a(S'my'
g27
tp2011
a(S'mouth'
g16
tp2012
a(S'burn'
g16
tp2013
a(S'just'
g584
tp2014
a(S'a'
g109
tp2015
a(S'little'
g22
tp2016
a(S'bit'
g16
tp2017
a(S','
S','
tp2018
a(S'but'
g98
tp2019
a(S'not'
g55
tp2020
a(S'so'
g43
tp2021
a(S'hot'
g22
tp2022
a(S'that'
g37
tp2023
a(S'I'
g92
tp2024
a(S'had'
g5
tp2025
a(S'to'
g25
tp2026
a(S'gulp'
g32
tp2027
a(S'down'
g530
tp2028
a(S'water'
S'NN'
p2029
tp2030
a(S'to'
g25
tp2031
a(S'put'
g32
tp2032
a(S'the'
g7
tp2033
a(S'fire'
g16
tp2034
a(S'out'
g530
tp2035
a(S'.'
S'.'
tp2036
aa(lp2037
(S'fun'
g16
tp2038
a(S','
S','
tp2039
a(S'eclectic'
g22
tp2040
a(S'crowd'
g16
tp2041
a(S'.'
S'.'
tp2042
a(S'.'
S'.'
tp2043
a(S'.'
S'.'
tp2044
a(S'fabulous'
g22
tp2045
a(S'staff'
S'NN'
p2046
tp2047
a(S'.'
S'.'
tp2048
aa(lp2049
(S'The'
g134
tp2050
a(S'size'
g1275
tp2051
a(S'of'
g227
tp2052
a(S'the'
g7
tp2053
a(S'plates'
g69
tp2054
a(S'are'
g647
tp2055
a(S'not'
g55
tp2056
a(S'small'
g1489
tp2057
a(S'at'
g73
tp2058
a(S'all'
g103
tp2059
a(S'.'
S'.'
tp2060
aa(lp2061
(S'Gluttony'
g3
tp2062
a(S'aside'
g43
tp2063
a(S','
S','
tp2064
a(S'I'
g92
tp2065
a(S'come'
g71
tp2066
a(S'here'
g1220
tp2067
a(S'because'
g37
tp2068
a(S'the'
g7
tp2069
a(S'meat'
g16
tp2070
a(S'is'
g203
tp2071
a(S'done'
g1199
tp2072
a(S'right'
g22
tp2073
a(S'tender'
g16
tp2074
a(S'and'
g18
tp2075
a(S'full'
S'JJ'
p2076
tp2077
a(S'of'
g227
tp2078
a(S'flavor'
g16
tp2079
a(S'.'
S'.'
tp2080
aa(lp2081
(S'I'
g92
tp2082
a(S'split'
g71
tp2083
a(S'with'
g12
tp2084
a(S'my'
g27
tp2085
a(S'friend'
g16
tp2086
a(S'('
S'('
tp2087
a(S'so'
g37
tp2088
a(S'the'
g7
tp2089
a(S'pic'
g16
tp2090
a(S'I'
g92
tp2091
a(S'uploaded'
g5
tp2092
a(S'is'
g203
tp2093
a(S'actually'
g126
tp2094
a(S'half'
g1294
tp2095
a(S'the'
g7
tp2096
a(S'sandwich'
g16
tp2097
a(S')'
S')'
tp2098
a(S'.'
S'.'
tp2099
aa(lp2100
(S'A'
g103
tp2101
a(S'feature'
g16
tp2102
a(S'I'
g92
tp2103
a(S'like'
g71
tp2104
a(S'in'
g34
tp2105
a(S'a'
g109
tp2106
a(S'cheap'
g22
tp2107
a(S'and'
g18
tp2108
a(S'quick'
g22
tp2109
a(S'weekday'
g16
tp2110
a(S'dinner'
g16
tp2111
a(S'place'
g16
tp2112
a(S'is'
g203
tp2113
a(S'cheap'
g22
tp2114
a(S'wine'
g16
tp2115
a(S','
S','
tp2116
a(S'which'
g242
tp2117
a(S"Tommy's"
g3
tp2118
a(S'has'
S'VBZ'
p2119
tp2120
a(S'at'
g73
tp2121
a(S'2'
S'CD'
p2122
tp2123
a(S'.'
S'.'
tp2124
a(S'75'
S'CD'
p2125
tp2126
a(S'for'
g60
tp2127
a(S'small'
g1489
tp2128
a(S'cup'
g16
tp2129
a(S'of'
g227
tp2130
a(S'house'
g1152
tp2131
a(S'wine'
g16
tp2132
a(S'.'
S'.'
tp2133
aa(lp2134
(S'In'
g37
tp2135
a(S'N'
g3
tp2136
a(S'Out'
g3
tp2137
a(S'fast'
g43
tp2138
a(S'burger'
g669
tp2139
a(S'perfection'
g16
tp2140
a(S'.'
S'.'
tp2141
aa(lp2142
(S'Really'
g43
tp2143
a(S'incredible'
g22
tp2144
a(S'steak'
g16
tp2145
a(S'diane'
g16
tp2146
a(S'.'
S'.'
tp2147
aa(lp2148
(S'They'
g536
tp2149
a(S'also'
g410
tp2150
a(S'have'
g71
tp2151
a(S'a'
g109
tp2152
a(S'great'
g464
tp2153
a(S'wine'
g16
tp2154
a(S'selection'
g16
tp2155
a(S','
S','
tp2156
a(S'particularly'
S'RB'
p2157
tp2158
a(S'by'
g310
tp2159
a(S'the'
g7
tp2160
a(S'half'
g22
tp2161
a(S'bottle'
g16
tp2162
a(S'and'
g18
tp2163
a(S'bottle'
g16
tp2164
a(S'.'
S'.'
tp2165
aa(lp2166
(S'CROWD'
g3
tp2167
a(S'Since'
S'IN'
p2168
tp2169
a(S'we'
g607
tp2170
a(S'went'
g1252
tp2171
a(S'on'
g390
tp2172
a(S'a'
g109
tp2173
a(S'non'
g22
tp2174
a(S'game'
S'NN'
p2175
tp2176
a(S'night'
g105
tp2177
a(S','
S','
tp2178
a(S'the'
g7
tp2179
a(S'crowd'
g16
tp2180
a(S'was'
g5
tp2181
a(S'yuppies'
g69
tp2182
a(S'in'
g34
tp2183
a(S'their'
g403
tp2184
a(S'30s'
g497
tp2185
a(S'dressed'
g45
tp2186
a(S'up'
g43
tp2187
a(S'to'
g25
tp2188
a(S'the'
g7
tp2189
a(S'nines'
g69
tp2190
a(S';'
S':'
tp2191
a(S'collared'
g45
tp2192
a(S'shirts'
g69
tp2193
a(S','
S','
tp2194
a(S'stilettos'
g16
tp2195
a(S','
S','
tp2196
a(S'the'
g7
tp2197
a(S'little'
g22
tp2198
a(S'black'
g146
tp2199
a(S'dress'
g16
tp2200
a(S','
S','
tp2201
a(S'etc'
S'FW'
p2202
tp2203
a(S'.'
S'.'
tp2204
aa(lp2205
(S'I'
g92
tp2206
a(S'mean'
g71
tp2207
a(S','
S','
tp2208
a(S"c'mon"
g16
tp2209
a(S','
S','
tp2210
a(S"you're"
g16
tp2211
a(S'paying'
S'VBG'
p2212
tp2213
a(S'for'
g60
tp2214
a(S'quality'
g16
tp2215
a(S'over'
g37
tp2216
a(S'here'
g1220
tp2217
a(S'.'
S'.'
tp2218
aa(lp2219
(S'Cheese'
g22
tp2220
a(S'.'
S'.'
tp2221
a(S'.'
S'.'
tp2222
a(S'.'
S'.'
tp2223
a(S'check'
g16
tp2224
a(S'.'
S'.'
tp2225
a(S'.'
S'.'
tp2226
a(S'.'
S'.'
tp2227
a(S'Grilled'
g22
tp2228
a(S'onions'
g69
tp2229
a(S'.'
S'.'
tp2230
a(S'.'
S'.'
tp2231
a(S'.'
S'.'
tp2232
aa(lp2233
(S'Kimchi'
g3
tp2234
a(S'Side'
g3
tp2235
a(S'dish'
g16
tp2236
a(S'followed'
g45
tp2237
a(S'by'
g310
tp2238
a(S'bowls'
g16
tp2239
a(S'of'
g227
tp2240
a(S'rice'
g16
tp2241
a(S'.'
S'.'
tp2242
aa(lp2243
(S'The'
g134
tp2244
a(S'ambiance'
g16
tp2245
a(S'was'
g5
tp2246
a(S'lovely'
g43
tp2247
a(S','
S','
tp2248
a(S'white'
S'JJ'
p2249
tp2250
a(S'table'
g22
tp2251
a(S'cloths'
g69
tp2252
a(S','
S','
tp2253
a(S'waiters'
g69
tp2254
a(S'with'
g12
tp2255
a(S'sparkly'
g22
tp2256
a(S'silver'
g16
tp2257
a(S'trimmed'
g5
tp2258
a(S'vests'
g69
tp2259
a(S','
S','
tp2260
a(S'little'
g22
tp2261
a(S'vases'
g69
tp2262
a(S'of'
g227
tp2263
a(S'flowers'
g69
tp2264
a(S'on'
g390
tp2265
a(S'the'
g7
tp2266
a(S'table'
g16
tp2267
a(S'.'
S'.'
tp2268
aa(lp2269
(S'This'
g460
tp2270
a(S'was'
g5
tp2271
a(S'followed'
g45
tp2272
a(S'by'
g310
tp2273
a(S'another'
S'DT'
p2274
tp2275
a(S'taste'
g16
tp2276
a(S'the'
g7
tp2277
a(S'second'
g22
tp2278
a(S','
S','
tp2279
a(S'a'
g109
tp2280
a(S'very'
g43
tp2281
a(S'flavorful'
g22
tp2282
a(S'spinach'
g16
tp2283
a(S'and'
g18
tp2284
a(S'cheese'
g22
tp2285
a(S'dish'
g16
tp2286
a(S'served'
g5
tp2287
a(S'warm'
g22
tp2288
a(S'covered'
g45
tp2289
a(S'in'
g34
tp2290
a(S'toasted'
g22
tp2291
a(S'pumpkin'
g16
tp2292
a(S'seeds'
g69
tp2293
a(S'.'
S'.'
tp2294
aa.