(lp1
(lp2
(S'The'
S'DT'
p3
tp4
a(S'pineapple'
S'NN'
p5
tp6
a(S'fried'
S'JJ'
p7
tp8
a(S'rice'
g5
tp9
a(S'is'
S'VBZ'
p10
tp11
a(S'awesome'
g7
tp12
a(S'and'
S'CC'
p13
tp14
a(S'the'
S'DT'
p15
tp16
a(S'girl'
g5
tp17
a(S'behind'
S'IN'
p18
tp19
a(S'the'
g15
tp20
a(S'counter'
g5
tp21
a(S'is'
g10
tp22
a(S'so'
S'RB'
p23
tp24
a(S'sweet'
g7
tp25
a(S'.'
S'.'
tp26
a(S'.'
S'.'
tp27
a(S'.'
S'.'
tp28
aa(lp29
(S'great'
S'JJ'
p30
tp31
a(S'bar'
g5
tp32
a(S'old'
S'JJ'
p33
tp34
a(S'school'
S'NN'
p35
tp36
a(S','
S','
tp37
a(S'comfy'
S'VBP'
p38
tp39
a(S'leather'
S'JJR'
p40
tp41
a(S'banquet'
g5
tp42
a(S'old'
g33
tp43
a(S'school'
g35
tp44
a(S'.'
S'.'
tp45
a(S'.'
S'.'
tp46
a(S'.'
S'.'
tp47
a(S'everything'
S'NN'
p48
tp49
a(S'down'
S'RP'
p50
tp51
a(S'just'
S'RB'
p52
tp53
a(S'right'
g23
tp54
a(S'.'
S'.'
tp55
a(S'.'
S'.'
tp56
a(S'.'
S'.'
tp57
a(S'nice'
g7
tp58
a(S'martini'
g5
tp59
a(S'to'
S'TO'
p60
tp61
a(S'start'
S'VB'
p62
tp63
a(S','
S','
tp64
a(S'good'
g7
tp65
a(S'wine'
g5
tp66
a(S'list'
g5
tp67
a(S','
S','
tp68
a(S'great'
g30
tp69
a(S'steak'
g5
tp70
a(S'!'
S'.'
tp71
aa(lp72
(S'My'
S'PRP$'
p73
tp74
a(S'wife'
S'NN'
p75
tp76
a(S'and'
g13
tp77
a(S'I'
S'PRP'
p78
tp79
a(S'came'
S'VBD'
p80
tp81
a(S'across'
g18
tp82
a(S'Gamines'
S'NNS'
p83
tp84
a(S'after'
S'IN'
p85
tp86
a(S'walking'
S'VBG'
p87
tp88
a(S'into'
S'IN'
p89
tp90
a(S'a'
S'DT'
p91
tp92
a(S'store'
g5
tp93
a(S'in'
S'IN'
p94
tp95
a(S'the'
g15
tp96
a(S'Cow'
S'NNP'
p97
tp98
a(S'Hollow'
g97
tp99
a(S'area'
S'NN'
p100
tp101
a(S'on'
S'IN'
p102
tp103
a(S'Union'
S'NNP'
p104
tp105
a(S'Street'
S'NNP'
p106
tp107
a(S'That'
S'WDT'
p108
tp109
a(S'Takes'
S'VBZ'
p110
tp111
a(S'the'
g15
tp112
a(S'Cake'
g97
tp113
a(S'.'
S'.'
tp114
aa(lp115
(S'We'
S'PRP'
p116
tp117
a(S'usually'
S'RB'
p118
tp119
a(S'come'
g38
tp120
a(S'here'
S'RB'
p121
tp122
a(S'before'
g18
tp123
a(S'or'
S'CC'
p124
tp125
a(S'after'
g85
tp126
a(S'a'
g91
tp127
a(S'movie'
S'NN'
p128
tp129
a(S'and'
g13
tp130
a(S'get'
g62
tp131
a(S'the'
g15
tp132
a(S'corned'
g7
tp133
a(S'beef'
g5
tp134
a(S','
S','
tp135
a(S'mashed'
S'VBD'
p136
tp137
a(S'potatoes'
g83
tp138
a(S'and'
g13
tp139
a(S'one'
S'CD'
p140
tp141
a(S'of'
S'IN'
p142
tp143
a(S'the'
g15
tp144
a(S'twenty'
g7
tp145
a(S'bazillion'
g5
tp146
a(S'beers'
g83
tp147
a(S'they'
S'PRP'
p148
tp149
a(S'have'
g38
tp150
a(S'on'
g102
tp151
a(S'the'
g15
tp152
a(S'menu'
g5
tp153
a(S'.'
S'.'
tp154
aa(lp155
(S'('
S'('
tp156
a(S'one'
g140
tp157
a(S'end'
g5
tp158
a(S'of'
g142
tp159
a(S'year'
S'NN'
p160
tp161
a(S'Christmas'
g97
tp162
a(S'time'
S'NN'
p163
tp164
a(S'in'
g94
tp165
a(S'the'
g15
tp166
a(S'group'
S'NN'
p167
tp168
a(S'dining'
g87
tp169
a(S'area'
g100
tp170
a(S','
S','
tp171
a(S'and'
g13
tp172
a(S'once'
g23
tp173
a(S'near'
g18
tp174
a(S'the'
g15
tp175
a(S'kitchen'
g5
tp176
a(S'area'
g100
tp177
a(S'at'
S'IN'
p178
tp179
a(S'a'
g91
tp180
a(S'long'
g7
tp181
a(S'table'
g5
tp182
a(S')'
S')'
tp183
a(S'The'
g3
tp184
a(S'food'
S'NN'
p185
tp186
a(S'is'
g10
tp187
a(S'appealing'
g87
tp188
a(S'to'
g60
tp189
a(S'the'
g15
tp190
a(S'eye'
S'NN'
p191
tp192
a(S','
S','
tp193
a(S'fresh'
g7
tp194
a(S'and'
g13
tp195
a(S'plentiful'
g7
tp196
a(S'in'
g94
tp197
a(S'terms'
S'NNS'
p198
tp199
a(S'of'
g142
tp200
a(S'group'
g167
tp201
a(S'family'
S'NN'
p202
tp203
a(S'style'
S'NN'
p204
tp205
a(S'dining'
g5
tp206
a(S'.'
S'.'
tp207
aa(lp208
(S'Everywhere'
g23
tp209
a(S'else'
g23
tp210
a(S'I'
g78
tp211
a(S'go'
g38
tp212
a(S','
S','
tp213
a(S"it's"
g7
tp214
a(S'always'
S'RB'
p215
tp216
a(S'just'
g52
tp217
a(S'under'
S'IN'
p218
tp219
a(S'or'
g124
tp220
a(S'just'
g52
tp221
a(S'over'
g18
tp222
a(S'where'
S'WRB'
p223
tp224
a(S"I'd"
g97
tp225
a(S'like'
g18
tp226
a(S'my'
S'PRP$'
p227
tp228
a(S'steak'
g5
tp229
a(S'.'
S'.'
tp230
aa(lp231
(S'I'
g78
tp232
a(S'got'
g136
tp233
a(S'the'
g15
tp234
a(S'hot'
g7
tp235
a(S'fudge'
g5
tp236
a(S'with'
S'IN'
p237
tp238
a(S'toasted'
g7
tp239
a(S'almond'
g5
tp240
a(S'ice'
g5
tp241
a(S'cream'
g5
tp242
a(S'and'
g13
tp243
a(S'I'
g78
tp244
a(S'was'
g136
tp245
a(S'in'
g94
tp246
a(S'heaven'
g5
tp247
a(S'.'
S'.'
tp248
aa(lp249
(S'The'
g3
tp250
a(S'housemade'
g5
tp251
a(S'soup'
g5
tp252
a(S'noodles'
g83
tp253
a(S','
S','
tp254
a(S'however'
S'RB'
p255
tp256
a(S','
S','
tp257
a(S'were'
S'VBD'
p258
tp259
a(S'really'
S'RB'
p260
tp261
a(S'good'
g7
tp262
a(S'!'
S'.'
tp263
aa(lp264
(S'best'
S'JJS'
p265
tp266
a(S'pizza'
g5
tp267
a(S'in'
g94
tp268
a(S'sf'
g5
tp269
a(S'so'
g23
tp270
a(S'far'
S'RB'
p271
tp272
a(S','
S','
tp273
a(S'i'
g7
tp274
a(S'love'
g38
tp275
a(S'new'
S'JJ'
p276
tp277
a(S'york'
g5
tp278
a(S'style'
g204
tp279
a(S'pizza'
g5
tp280
a(S','
S','
tp281
a(S'also'
S'RB'
p282
tp283
a(S'loving'
g87
tp284
a(S'standing'
g87
tp285
a(S'and'
g13
tp286
a(S'eating'
g87
tp287
a(S'them'
S'PRP'
p288
tp289
a(S','
S','
tp290
a(S'nyc'
g7
tp291
a(S'style'
g204
tp292
a(S'yo'
g5
tp293
a(S'.'
S'.'
tp294
a(S'.'
S'.'
tp295
a(S'.'
S'.'
tp296
a(S'they'
g148
tp297
a(S'add'
g38
tp298
a(S'the'
g15
tp299
a(S'toppings'
g83
tp300
a(S'you'
S'PRP'
p301
tp302
a(S'want'
g38
tp303
a(S'to'
g60
tp304
a(S'the'
g15
tp305
a(S'pre'
g5
tp306
a(S'baked'
g136
tp307
a(S'plain'
g7
tp308
a(S'pizza'
g5
tp309
a(S'and'
g13
tp310
a(S're'
g62
tp311
a(S'bake'
g5
tp312
a(S'to'
g60
tp313
a(S'order'
S'NN'
p314
tp315
a(S','
S','
tp316
a(S'so'
g23
tp317
a(S"it's"
g7
tp318
a(S'always'
g215
tp319
a(S'super'
g38
tp320
a(S'fresh'
g7
tp321
a(S'.'
S'.'
tp322
aa(lp323
(S'However'
S'RB'
p324
tp325
a(S','
S','
tp326
a(S'I'
g78
tp327
a(S'was'
g136
tp328
a(S'with'
g237
tp329
a(S'my'
g227
tp330
a(S'two'
S'CD'
p331
tp332
a(S'girlfriends'
g83
tp333
a(S'and'
g13
tp334
a(S'we'
S'PRP'
p335
tp336
a(S'were'
g258
tp337
a(S'pretty'
g23
tp338
a(S'engrossed'
S'VBN'
p339
tp340
a(S'in'
g94
tp341
a(S'our'
S'PRP$'
p342
tp343
a(S'own'
g7
tp344
a(S'conversation'
g5
tp345
a(S','
S','
tp346
a(S'even'
g23
tp347
a(S'though'
g18
tp348
a(S'I'
g78
tp349
a(S'kept'
g136
tp350
a(S'stealing'
g87
tp351
a(S'glances'
g83
tp352
a(S'over'
g18
tp353
a(S'to'
g60
tp354
a(S'the'
g15
tp355
a(S'guy'
g5
tp356
a(S'sitting'
g87
tp357
a(S'next'
g7
tp358
a(S'to'
g60
tp359
a(S'me'
S'PRP'
p360
tp361
a(S'.'
S'.'
tp362
aa(lp363
(S'Great'
g97
tp364
a(S'fresh'
g7
tp365
a(S'turkey'
g5
tp366
a(S'sandwich'
g5
tp367
a(S'and'
g13
tp368
a(S'open'
g7
tp369
a(S'faced'
g136
tp370
a(S'meatball'
g7
tp371
a(S'sub'
g5
tp372
a(S'.'
S'.'
tp373
aa(lp374
(S'Btw'
g97
tp375
a(S','
S','
tp376
a(S'the'
g15
tp377
a(S'2nd'
g140
tp378
a(S'cheapest'
g265
tp379
a(S'red'
g7
tp380
a(S'wine'
g5
tp381
a(S'was'
g136
tp382
a(S'good'
g7
tp383
a(S','
S','
tp384
a(S'tasted'
g339
tp385
a(S'like'
g18
tp386
a(S'200'
S'CD'
p387
tp388
a(S'bucks'
g83
tp389
a(S'.'
S'.'
tp390
aa(lp391
(S'I'
g78
tp392
a(S'got'
g136
tp393
a(S'the'
g15
tp394
a(S'thanksgiving'
g5
tp395
a(S'dinner'
g5
tp396
a(S'('
S'('
tp397
a(S'turkey'
g5
tp398
a(S','
S','
tp399
a(S'mash'
g5
tp400
a(S'potatoes'
g83
tp401
a(S','
S','
tp402
a(S'gravy'
g5
tp403
a(S','
S','
tp404
a(S'stuffing'
g87
tp405
a(S')'
S')'
tp406
a(S'and'
g13
tp407
a(S'they'
g148
tp408
a(S'were'
g258
tp409
a(S'all'
S'DT'
p410
tp411
a(S'so'
g23
tp412
a(S'delicious'
g7
tp413
a(S'!'
S'.'
tp414
a(S'!'
S'.'
tp415
a(S'!'
S'.'
tp416
aa(lp417
(S'My'
g73
tp418
a(S'favorite'
g7
tp419
a(S'things'
S'NNS'
p420
tp421
a(S'about'
g18
tp422
a(S"Mama's"
g97
tp423
a(S'.'
S'.'
tp424
a(S'.'
S'.'
tp425
a(S'.'
S'.'
tp426
a(S'the'
g15
tp427
a(S'fresh'
g7
tp428
a(S'squeezed'
g7
tp429
a(S'juice'
g5
tp430
a(S','
S','
tp431
a(S'strong'
S'JJ'
p432
tp433
a(S','
S','
tp434
a(S'hot'
g7
tp435
a(S','
S','
tp436
a(S'tasty'
g7
tp437
a(S'coffee'
g5
tp438
a(S'and'
g13
tp439
a(S'this'
S'DT'
p440
tp441
a(S'incredible'
g7
tp442
a(S'homemade'
g5
tp443
a(S'jelly'
g23
tp444
a(S'!'
S'.'
tp445
aa(lp446
(S'The'
g3
tp447
a(S'sashimi'
g5
tp448
a(S'are'
S'VBP'
p449
tp450
a(S'always'
g215
tp451
a(S'fresh'
g7
tp452
a(S'.'
S'.'
tp453
aa(lp454
(S"Didn't"
g97
tp455
a(S'care'
g62
tp456
a(S'that'
g18
tp457
a(S'much'
g23
tp458
a(S'for'
S'IN'
p459
tp460
a(S'the'
g15
tp461
a(S'Garlic'
g97
tp462
a(S'Bread'
g97
tp463
a(S','
S','
tp464
a(S'but'
S'CC'
p465
tp466
a(S'edible'
g7
tp467
a(S'.'
S'.'
tp468
aa(lp469
(S'This'
S'DT'
p470
tp471
a(S'was'
g136
tp472
a(S'my'
g227
tp473
a(S'first'
g7
tp474
a(S"Ruth's"
g97
tp475
a(S'Chris'
g97
tp476
a(S'Steak'
g97
tp477
a(S'House'
S'NNP'
p478
tp479
a(S'experience'
g5
tp480
a(S','
S','
tp481
a(S'and'
g13
tp482
a(S'I'
g78
tp483
a(S'must'
S'MD'
p484
tp485
a(S'say'
g62
tp486
a(S','
S','
tp487
a(S'it'
S'PRP'
p488
tp489
a(S'was'
g136
tp490
a(S'lovely'
g23
tp491
a(S'.'
S'.'
tp492
aa(lp493
(S'Being'
g87
tp494
a(S'a'
g91
tp495
a(S'meat'
g5
tp496
a(S'junkie'
g5
tp497
a(S'carnivore'
g5
tp498
a(S','
S','
tp499
a(S'this'
g440
tp500
a(S'place'
g5
tp501
a(S'was'
g136
tp502
a(S'a'
g91
tp503
a(S'delight'
g5
tp504
a(S'.'
S'.'
tp505
aa(lp506
(S'First'
g97
tp507
a(S'of'
g142
tp508
a(S'all'
S'PDT'
p509
tp510
a(S'the'
g15
tp511
a(S'food'
g185
tp512
a(S'is'
g10
tp513
a(S'pretty'
g23
tp514
a(S'damn'
g7
tp515
a(S'amazing'
g7
tp516
a(S','
S','
tp517
a(S'and'
g13
tp518
a(S'specifically'
g23
tp519
a(S'I'
g78
tp520
a(S'could'
S'MD'
p521
tp522
a(S'live'
g62
tp523
a(S'off'
g18
tp524
a(S'of'
g142
tp525
a(S'their'
S'PRP$'
p526
tp527
a(S'hot'
g7
tp528
a(S'chocolate'
g5
tp529
a(S'with'
g237
tp530
a(S'the'
g15
tp531
a(S'lovely'
g7
tp532
a(S'icey'
g5
tp533
a(S'whipped'
g136
tp534
a(S'cream'
g5
tp535
a(S'for'
g459
tp536
a(S'the'
g15
tp537
a(S'rest'
g5
tp538
a(S'of'
g142
tp539
a(S'my'
g227
tp540
a(S'life'
S'NN'
p541
tp542
a(S'.'
S'.'
tp543
aa(lp544
(S'The'
g3
tp545
a(S'shrimp'
g5
tp546
a(S'were'
g258
tp547
a(S'nothing'
S'NN'
p548
tp549
a(S'to'
g60
tp550
a(S'write'
g62
tp551
a(S'home'
g5
tp552
a(S'about'
g18
tp553
a(S'but'
g465
tp554
a(S'this'
g440
tp555
a(S'was'
g136
tp556
a(S'one'
g140
tp557
a(S'of'
g142
tp558
a(S'the'
g15
tp559
a(S'rare'
g7
tp560
a(S'times'
g83
tp561
a(S'I'
g78
tp562
a(S'enjoyed'
g38
tp563
a(S'('
S'('
tp564
a(S'however'
g255
tp565
a(S'limited'
g136
tp566
a(S'a'
g91
tp567
a(S'portion'
S'NN'
p568
tp569
a(S'I'
g78
tp570
a(S'ate'
g38
tp571
a(S')'
S')'
tp572
a(S'red'
g7
tp573
a(S'peppers'
g83
tp574
a(S'.'
S'.'
tp575
aa(lp576
(S'A'
g410
tp577
a(S'lil'
g7
tp578
a(S'bite'
g5
tp579
a(S'of'
g142
tp580
a(S'what'
S'WP'
p581
tp582
a(S'everyone'
S'NN'
p583
tp584
a(S'had'
g136
tp585
a(S'to'
g60
tp586
a(S'eat'
g62
tp587
a(S'.'
S'.'
tp588
a(S'.'
S'.'
tp589
a(S'.'
S'.'
tp590
a(S'.'
S'.'
tp591
a(S'and'
g13
tp592
a(S'I'
g78
tp593
a(S'was'
g136
tp594
a(S'in'
g94
tp595
a(S'heaven'
g5
tp596
a(S'.'
S'.'
tp597
a(S'.'
S'.'
tp598
a(S'.'
S'.'
tp599
a(S'a'
g91
tp600
a(S'lil'
g5
tp601
a(S'chicken'
g5
tp602
a(S'here'
g121
tp603
a(S'.'
S'.'
tp604
a(S'.'
S'.'
tp605
a(S'.'
S'.'
tp606
a(S'.'
S'.'
tp607
a(S'a'
g91
tp608
a(S'bit'
g5
tp609
a(S'of'
g142
tp610
a(S'feta'
g5
tp611
a(S'there'
g23
tp612
a(S'.'
S'.'
tp613
a(S'.'
S'.'
tp614
a(S'.'
S'.'
tp615
a(S'.'
S'.'
tp616
a(S'.'
S'.'
tp617
a(S'.'
S'.'
tp618
a(S'.'
S'.'
tp619
a(S'sweet'
g7
tp620
a(S'n'
g23
tp621
a(S'glorious'
g7
tp622
a(S'grilled'
g339
tp623
a(S'mussels'
g83
tp624
a(S'and'
g13
tp625
a(S'shrimp'
g5
tp626
a(S'.'
S'.'
tp627
a(S'.'
S'.'
tp628
a(S'.'
S'.'
tp629
a(S'.'
S'.'
tp630
a(S'.'
S'.'
tp631
a(S'.'
S'.'
tp632
a(S'and'
g13
tp633
a(S"can't"
g7
tp634
a(S'forget'
g62
tp635
a(S'those'
S'DT'
p636
tp637
a(S'lamb'
g7
tp638
a(S'riblets'
g83
tp639
a(S'.'
S'.'
tp640
a(S'.'
S'.'
tp641
a(S'.'
S'.'
tp642
a(S'OMG'
S'UH'
p643
tp644
a(S'!'
S'.'
tp645
aa(lp646
(S'For'
S'IN'
p647
tp648
a(S'a'
g91
tp649
a(S'starter'
g5
tp650
a(S','
S','
tp651
a(S'we'
g335
tp652
a(S'ordered'
g136
tp653
a(S'the'
g15
tp654
a(S'soup'
g5
tp655
a(S'of'
g142
tp656
a(S'the'
g15
tp657
a(S'evening'
g87
tp658
a(S'a'
g91
tp659
a(S'roasted'
g7
tp660
a(S'corn'
S'NN'
p661
tp662
a(S'bisque'
g5
tp663
a(S'and'
g13
tp664
a(S'the'
g15
tp665
a(S'risotto'
g5
tp666
a(S'croquettes'
g83
tp667
a(S'.'
S'.'
tp668
aa(lp669
(S'They'
S'PRP'
p670
tp671
a(S'have'
g38
tp672
a(S'many'
S'JJ'
p673
tp674
a(S'different'
S'JJ'
p675
tp676
a(S'flavors'
g83
tp677
a(S'of'
g142
tp678
a(S'hot'
g7
tp679
a(S'sauce'
g5
tp680
a(S'line'
S'NN'
p681
tp682
a(S'up'
g18
tp683
a(S'agains'
g83
tp684
a(S'the'
g15
tp685
a(S'wall'
g5
tp686
a(S','
S','
tp687
a(S'kinda'
g62
tp688
a(S'cool'
g7
tp689
a(S'decoration'
g5
tp690
a(S'.'
S'.'
tp691
aa(lp692
(S'Well'
g23
tp693
a(S','
S','
tp694
a(S'Im'
g97
tp695
a(S'sure'
g136
tp696
a(S'many'
g673
tp697
a(S'of'
g142
tp698
a(S'you'
g301
tp699
a(S"wouldn't"
g38
tp700
a(S'expect'
g62
tp701
a(S'much'
g7
tp702
a(S'from'
S'IN'
p703
tp704
a(S'fried'
g7
tp705
a(S'catfish'
g5
tp706
a(S','
S','
tp707
a(S'but'
g465
tp708
a(S'these'
S'DT'
p709
tp710
a(S'little'
g7
tp711
a(S'buggers'
g83
tp712
a(S'were'
g258
tp713
a(S'phenomenal'
g7
tp714
a(S'.'
S'.'
tp715
aa(lp716
(S'Love'
g62
tp717
a(S'the'
g15
tp718
a(S'chicken'
g5
tp719
a(S'satay'
g5
tp720
a(S','
S','
tp721
a(S'MUST'
g97
tp722
a(S'HAVE'
g38
tp723
a(S'the'
g15
tp724
a(S'pineapple'
g5
tp725
a(S'rice'
g5
tp726
a(S'('
S'('
tp727
a(S'HEAVEN'
g97
tp728
a(S')'
S')'
tp729
a(S'we'
g335
tp730
a(S'always'
g215
tp731
a(S'order'
g314
tp732
a(S'the'
g15
tp733
a(S'fish'
g5
tp734
a(S'.'
S'.'
tp735
a(S'.'
S'.'
tp736
a(S'.'
S'.'
tp737
a(S'yummy'
g5
tp738
a(S'!'
S'.'
tp739
aa(lp740
(S'The'
g3
tp741
a(S'Busto'
g97
tp742
a(S'Salad'
g97
tp743
a(S'is'
g10
tp744
a(S'BOMB'
g97
tp745
a(S'!'
S'.'
tp746
a(S'!'
S'.'
tp747
a(S'!'
S'.'
tp748
a(S'!'
S'.'
tp749
aa(lp750
(S'But'
S'CC'
p751
tp752
a(S'its'
g73
tp753
a(S'not'
S'RB'
p754
tp755
a(S'just'
g52
tp756
a(S'the'
g15
tp757
a(S'pizza'
g5
tp758
a(S'its'
g73
tp759
a(S'the'
g15
tp760
a(S'atmosphere'
g5
tp761
a(S'in'
g94
tp762
a(S'the'
g15
tp763
a(S'place'
g5
tp764
a(S'and'
g13
tp765
a(S'the'
g15
tp766
a(S'great'
g30
tp767
a(S'staff'
S'NN'
p768
tp769
a(S'that'
g108
tp770
a(S'made'
g136
tp771
a(S'it'
g488
tp772
a(S'all'
g410
tp773
a(S'such'
g509
tp774
a(S'a'
g91
tp775
a(S'pleasant'
g5
tp776
a(S'and'
g13
tp777
a(S'satisfying'
g87
tp778
a(S'experience'
g5
tp779
a(S'every'
S'DT'
p780
tp781
a(S'time'
g163
tp782
a(S'I'
g78
tp783
a(S'eat'
g38
tp784
a(S'there'
g23
tp785
a(S'.'
S'.'
tp786
aa(lp787
(S'I'
g78
tp788
a(S'def'
g38
tp789
a(S'will'
S'MD'
p790
tp791
a(S'come'
g62
tp792
a(S'back'
g23
tp793
a(S'to'
g60
tp794
a(S'satisfy'
g62
tp795
a(S'my'
g227
tp796
a(S'shrimp'
g7
tp797
a(S'cravings'
g83
tp798
a(S'and'
g13
tp799
a(S'maybe'
g23
tp800
a(S'ordered'
g136
tp801
a(S'a'
g91
tp802
a(S'bottle'
g7
tp803
a(S'drink'
g5
tp804
a(S'instead'
S'RB'
p805
tp806
a(S'!'
S'.'
tp807
aa(lp808
(S'The'
g3
tp809
a(S'corn'
g661
tp810
a(S'beef'
g5
tp811
a(S'is'
g10
tp812
a(S'salty'
g5
tp813
a(S','
S','
tp814
a(S'but'
g465
tp815
a(S'very'
g23
tp816
a(S'good'
g7
tp817
a(S'.'
S'.'
tp818
aa(lp819
(S'Their'
g73
tp820
a(S'focaccia'
g7
tp821
a(S'style'
g204
tp822
a(S'is'
g10
tp823
a(S'not'
g754
tp824
a(S'my'
g227
tp825
a(S'favorite'
g7
tp826
a(S','
S','
tp827
a(S'more'
g40
tp828
a(S'of'
g142
tp829
a(S'a'
g91
tp830
a(S'flatbread'
g5
tp831
a(S','
S','
tp832
a(S'but'
g465
tp833
a(S'overall'
g7
tp834
a(S'everything'
g48
tp835
a(S'was'
g136
tp836
a(S'great'
g30
tp837
a(S'.'
S'.'
tp838
aa(lp839
(S'One'
g140
tp840
a(S'of'
g142
tp841
a(S'my'
g227
tp842
a(S'favorites'
g83
tp843
a(S'is'
g10
tp844
a(S'their'
g526
tp845
a(S'special'
g7
tp846
a(S'on'
g102
tp847
a(S'the'
g15
tp848
a(S'board'
S'NN'
p849
tp850
a(S'I'
g78
tp851
a(S'think'
g38
tp852
a(S"it's"
g23
tp853
a(S'called'
g339
tp854
a(S'the'
g15
tp855
a(S'The'
g3
tp856
a(S'Lady'
g97
tp857
a(S'Monkey'
g97
tp858
a(S'Roll'
g97
tp859
a(S'.'
S'.'
tp860
a(S'.'
S'.'
tp861
a(S'.'
S'.'
tp862
a(S'.'
S'.'
tp863
a(S'.'
S'.'
tp864
a(S'its'
g73
tp865
a(S"banana's"
g5
tp866
a(S'with'
g237
tp867
a(S'cream'
g5
tp868
a(S'cheese'
g5
tp869
a(S'and'
g13
tp870
a(S'fish'
g5
tp871
a(S'.'
S'.'
tp872
a(S'.'
S'.'
tp873
a(S'.'
S'.'
tp874
a(S'.'
S'.'
tp875
a(S'.'
S'.'
tp876
a(S'incredible'
g7
tp877
a(S'!'
S'.'
tp878
aa(lp879
(S'I'
g78
tp880
a(S'have'
g38
tp881
a(S'worked'
g339
tp882
a(S'in'
g94
tp883
a(S'the'
g15
tp884
a(S'neighborhood'
g5
tp885
a(S'for'
g459
tp886
a(S'6'
S'CD'
p887
tp888
a(S'years'
S'NNS'
p889
tp890
a(S'and'
g13
tp891
a(S'miss'
g62
tp892
a(S'the'
g15
tp893
a(S'days'
S'NNS'
p894
tp895
a(S'of'
g142
tp896
a(S'5'
S'CD'
p897
tp898
a(S'thai'
g5
tp899
a(S'or'
g124
tp900
a(S'burrito'
g5
tp901
a(S'.'
S'.'
tp902
aa(lp903
(S'It'
S'PRP'
p904
tp905
a(S'was'
g136
tp906
a(S'definitely'
g23
tp907
a(S'obvious'
g7
tp908
a(S'that'
g18
tp909
a(S'this'
g440
tp910
a(S'fish'
g5
tp911
a(S'was'
g136
tp912
a(S'fresh'
g7
tp913
a(S','
S','
tp914
a(S'and'
g13
tp915
a(S'not'
g754
tp916
a(S'all'
g410
tp917
a(S'fishy'
g83
tp918
a(S'like'
g18
tp919
a(S'some'
S'DT'
p920
tp921
a(S'places'
g83
tp922
a(S'('
S'('
tp923
a(S'I'
g78
tp924
a(S"won't"
g38
tp925
a(S'name'
g23
tp926
a(S'any'
S'DT'
p927
tp928
a(S'names'
g83
tp929
a(S')'
S')'
tp930
a(S'.'
S'.'
tp931
aa(lp932
(S'The'
g3
tp933
a(S'dishes'
g83
tp934
a(S'are'
g449
tp935
a(S'wonderful'
g7
tp936
a(S'The'
g3
tp937
a(S'San'
S'NNP'
p938
tp939
a(S'Marino'
g97
tp940
a(S'yummy'
g97
tp941
a(S'risotto'
g136
tp942
a(S'dish'
g7
tp943
a(S'with'
g237
tp944
a(S'shrimp'
g5
tp945
a(S'.'
S'.'
tp946
aa(lp947
(S'It'
g904
tp948
a(S'was'
g136
tp949
a(S'truly'
g23
tp950
a(S'made'
g339
tp951
a(S'by'
S'IN'
p952
tp953
a(S'the'
g15
tp954
a(S'spicy'
g5
tp955
a(S'housemade'
g5
tp956
a(S'sambal'
g5
tp957
a(S';'
S':'
tp958
a(S'the'
g15
tp959
a(S'sauce'
g5
tp960
a(S'was'
g136
tp961
a(S'so'
g23
tp962
a(S'delicious'
g7
tp963
a(S'and'
g13
tp964
a(S'flavorful'
g7
tp965
a(S'!'
S'.'
tp966
aa(lp967
(S'I'
g78
tp968
a(S'am'
S'VBP'
p969
tp970
a(S'happy'
g7
tp971
a(S'to'
g60
tp972
a(S'the'
g15
tp973
a(S'point'
g5
tp974
a(S'of'
g142
tp975
a(S'ecstasy'
g5
tp976
a(S'when'
S'WRB'
p977
tp978
a(S'I'
g78
tp979
a(S'think'
g38
tp980
a(S'about'
g18
tp981
a(S'Korean'
g97
tp982
a(S'BBQ'
g97
tp983
a(S'and'
g13
tp984
a(S'late'
g7
tp985
a(S'night'
S'NN'
p986
tp987
a(S'eating'
g5
tp988
a(S'.'
S'.'
tp989
aa(lp990
(S'Its'
S'PRP$'
p991
tp992
a(S'worth'
g5
tp993
a(S'making'
g87
tp994
a(S'a'
g91
tp995
a(S'trip'
S'NN'
p996
tp997
a(S'to'
g60
tp998
a(S'the'
g15
tp999
a(S'city'
S'NN'
p1000
tp1001
a(S'just'
g52
tp1002
a(S'to'
g60
tp1003
a(S'have'
g62
tp1004
a(S'a'
g91
tp1005
a(S'bowl'
g5
tp1006
a(S'of'
g142
tp1007
a(S'the'
g15
tp1008
a(S'soup'
g5
tp1009
a(S'!'
S'.'
tp1010
aa(lp1011
(S'The'
g3
tp1012
a(S'desserts'
g83
tp1013
a(S'here'
g121
tp1014
a(S'are'
g449
tp1015
a(S'out'
g18
tp1016
a(S'of'
g142
tp1017
a(S'control'
g5
tp1018
a(S','
S','
tp1019
a(S'the'
g15
tp1020
a(S'display'
g5
tp1021
a(S'case'
S'NN'
p1022
tp1023
a(S'is'
g10
tp1024
a(S'packed'
g339
tp1025
a(S'with'
g237
tp1026
a(S'house'
S'NN'
p1027
tp1028
a(S'made'
g339
tp1029
a(S'chocolates'
g83
tp1030
a(S','
S','
tp1031
a(S'cakes'
g83
tp1032
a(S'and'
g13
tp1033
a(S'other'
S'JJ'
p1034
tp1035
a(S'tasty'
g7
tp1036
a(S'treats'
g83
tp1037
a(S'.'
S'.'
tp1038
aa(lp1039
(S'i'
g5
tp1040
a(S'asked'
g136
tp1041
a(S'for'
g459
tp1042
a(S'medium'
g5
tp1043
a(S'rare'
g7
tp1044
a(S'but'
g465
tp1045
a(S'i'
g7
tp1046
a(S'think'
g38
tp1047
a(S'it'
g488
tp1048
a(S'came'
g80
tp1049
a(S'out'
g50
tp1050
a(S'kind'
S'NN'
p1051
tp1052
a(S'of'
g142
tp1053
a(S'medium'
g5
tp1054
a(S'.'
S'.'
tp1055
aa(lp1056
(S'I'
g78
tp1057
a(S'got'
g136
tp1058
a(S'my'
g227
tp1059
a(S'cheese'
g5
tp1060
a(S'and'
g13
tp1061
a(S'my'
g227
tp1062
a(S'meats'
g83
tp1063
a(S'and'
g13
tp1064
a(S'sidled'
g136
tp1065
a(S'over'
g23
tp1066
a(S'to'
g60
tp1067
a(S'the'
g15
tp1068
a(S'register'
g5
tp1069
a(S'where'
g223
tp1070
a(S'the'
g15
tp1071
a(S'lady'
g5
tp1072
a(S'behind'
g18
tp1073
a(S'it'
g488
tp1074
a(S'remarked'
g136
tp1075
a(S'on'
g102
tp1076
a(S'how'
S'WRB'
p1077
tp1078
a(S'great'
g30
tp1079
a(S'my'
g227
tp1080
a(S'choices'
g83
tp1081
a(S'were'
g258
tp1082
a(S'.'
S'.'
tp1083
aa(lp1084
(S'ordered'
g339
tp1085
a(S'beef'
g5
tp1086
a(S'salad'
g110
tp1087
a(S'a'
g91
tp1088
a(S'little'
g7
tp1089
a(S'on'
g102
tp1090
a(S'the'
g15
tp1091
a(S'small'
S'JJ'
p1092
tp1093
a(S'side'
g5
tp1094
a(S'but'
g465
tp1095
a(S'SO'
g97
tp1096
a(S'DELISH'
g97
tp1097
a(S'FRESH'
g97
tp1098
a(S'FLAVORFUL'
g97
tp1099
a(S'.'
S'.'
tp1100
aa(lp1101
(S'Love'
g62
tp1102
a(S'its'
g73
tp1103
a(S'appetizers'
g83
tp1104
a(S'and'
g13
tp1105
a(S'flavorful'
g7
tp1106
a(S'lamb'
g5
tp1107
a(S'.'
S'.'
tp1108
aa(lp1109
(S'I'
g78
tp1110
a(S'prefer'
g38
tp1111
a(S"Ruth's"
g97
tp1112
a(S'over'
g18
tp1113
a(S"Harris'"
g97
tp1114
a(S'and'
g13
tp1115
a(S'even'
g23
tp1116
a(S'HOPR'
g97
tp1117
a(S'.'
S'.'
tp1118
aa(lp1119
(S'I'
g78
tp1120
a(S'had'
g136
tp1121
a(S'a'
g91
tp1122
a(S'Chicken'
g97
tp1123
a(S'ceaser'
g5
tp1124
a(S'salad'
g5
tp1125
a(S'which'
g108
tp1126
a(S'was'
g136
tp1127
a(S'pretty'
g23
tp1128
a(S'heavy'
g7
tp1129
a(S'on'
g102
tp1130
a(S'the'
g15
tp1131
a(S'chicken'
g5
tp1132
a(S','
S','
tp1133
a(S'I'
g78
tp1134
a(S"couldn't"
g38
tp1135
a(S'finish'
g62
tp1136
a(S'it'
g488
tp1137
a(S'.'
S'.'
tp1138
aa(lp1139
(S'It'
g904
tp1140
a(S'has'
S'VBZ'
p1141
tp1142
a(S'been'
S'VBN'
p1143
tp1144
a(S'fairly'
S'RB'
p1145
tp1146
a(S'regular'
g7
tp1147
a(S'with'
g237
tp1148
a(S"it's"
g5
tp1149
a(S'fare'
g5
tp1150
a(S'.'
S'.'
tp1151
aa(lp1152
(S'I'
g78
tp1153
a(S'am'
g969
tp1154
a(S'a'
g91
tp1155
a(S'BIG'
g97
tp1156
a(S'fan'
g5
tp1157
a(S'of'
g142
tp1158
a(S'good'
g7
tp1159
a(S'ice'
g5
tp1160
a(S'.'
S'.'
tp1161
aa(lp1162
(S'For'
g647
tp1163
a(S'my'
g227
tp1164
a(S'fellow'
g7
tp1165
a(S'vegetarians'
g83
tp1166
a(S','
S','
tp1167
a(S'there'
S'EX'
p1168
tp1169
a(S'is'
g10
tp1170
a(S'also'
g282
tp1171
a(S'a'
g91
tp1172
a(S'good'
g7
tp1173
a(S'selection'
g5
tp1174
a(S'of'
g142
tp1175
a(S'fish'
g7
tp1176
a(S'and'
g13
tp1177
a(S'salads'
g83
tp1178
a(S'.'
S'.'
tp1179
aa(lp1180
(S'A'
g410
tp1181
a(S'little'
g7
tp1182
a(S'salty'
g5
tp1183
a(S'for'
g459
tp1184
a(S'my'
g227
tp1185
a(S'taste'
g5
tp1186
a(S'but'
g465
tp1187
a(S'perfect'
g7
tp1188
a(S'portion'
g568
tp1189
a(S'and'
g13
tp1190
a(S'vegetables'
g83
tp1191
a(S'still'
S'RB'
p1192
tp1193
a(S'firm'
g38
tp1194
a(S'.'
S'.'
tp1195
aa(lp1196
(S'More'
S'RBR'
p1197
tp1198
a(S'o'
g7
tp1199
a(S'v'
g5
tp1200
a(S'e'
g5
tp1201
a(S'r'
g5
tp1202
a(S','
S','
tp1203
a(S'my'
g227
tp1204
a(S'r'
g5
tp1205
a(S'e'
g5
tp1206
a(S'v'
g5
tp1207
a(S'ie'
g7
tp1208
a(S'w'
g5
tp1209
a(S'of'
g142
tp1210
a(S'th'
g5
tp1211
a(S'is'
g10
tp1212
a(S'place'
g5
tp1213
a(S'had'
g136
tp1214
a(S'been'
g1143
tp1215
a(S'd'
g7
tp1216
a(S'e'
g5
tp1217
a(S'tled'
g136
tp1218
a(S't'
g7
tp1219
a(S'w'
g5
tp1220
a(S'ice'
g5
tp1221
a(S'.'
S'.'
tp1222
aa(lp1223
(S'Chow'
g97
tp1224
a(S'mein'
g5
tp1225
a(S'is'
g10
tp1226
a(S'probably'
S'RB'
p1227
tp1228
a(S'the'
g15
tp1229
a(S'least'
g265
tp1230
a(S'oh'
g7
tp1231
a(S'my'
g227
tp1232
a(S'it'
g488
tp1233
a(S'is'
g10
tp1234
a(S'how'
g1077
tp1235
a(S'much'
g7
tp1236
a(S'again'
S'RB'
p1237
tp1238
a(S'item'
g5
tp1239
a(S'on'
g102
tp1240
a(S'the'
g15
tp1241
a(S'menu'
g5
tp1242
a(S'.'
S'.'
tp1243
aa(lp1244
(S'The'
g3
tp1245
a(S'soup'
g5
tp1246
a(S'had'
g136
tp1247
a(S'Lentil'
g97
tp1248
a(S','
S','
tp1249
a(S'Onion'
g97
tp1250
a(S','
S','
tp1251
a(S'Fresh'
g97
tp1252
a(S'Parsley'
g97
tp1253
a(S'and'
g13
tp1254
a(S'with'
g237
tp1255
a(S'special'
g7
tp1256
a(S'spices'
g83
tp1257
a(S'.'
S'.'
tp1258
aa(lp1259
(S'('
S'('
tp1260
a(S'or'
g124
tp1261
a(S'over'
g23
tp1262
a(S'roasted'
g7
tp1263
a(S'olives'
g83
tp1264
a(S','
S','
tp1265
a(S'saffron'
g5
tp1266
a(S'potatoes'
g83
tp1267
a(S','
S','
tp1268
a(S'and'
g13
tp1269
a(S'roasted'
g136
tp1270
a(S'tomatoes'
g83
tp1271
a(S'They'
g670
tp1272
a(S'had'
g136
tp1273
a(S'3'
g140
tp1274
a(S'choices'
g83
tp1275
a(S'of'
g142
tp1276
a(S'fish'
g7
tp1277
a(S'that'
g410
tp1278
a(S'day'
S'NN'
p1279
tp1280
a(S','
S','
tp1281
a(S'a'
g91
tp1282
a(S'Sole'
g97
tp1283
a(S','
S','
tp1284
a(S'a'
g91
tp1285
a(S'halibut'
g5
tp1286
a(S','
S','
tp1287
a(S'and'
g13
tp1288
a(S'a'
g91
tp1289
a(S'snapper'
g5
tp1290
a(S'.'
S'.'
tp1291
aa(lp1292
(S'It'
g904
tp1293
a(S'did'
S'VBD'
p1294
tp1295
a(S'have'
g62
tp1296
a(S'a'
g91
tp1297
a(S'nice'
g7
tp1298
a(S'kick'
g5
tp1299
a(S','
S','
tp1300
a(S'which'
g108
tp1301
a(S'I'
g78
tp1302
a(S'appreciated'
g136
tp1303
a(S'since'
S'IN'
p1304
tp1305
a(S'I'
g78
tp1306
a(S'love'
g38
tp1307
a(S'spicy'
g5
tp1308
a(S'food'
g185
tp1309
a(S'.'
S'.'
tp1310
aa(lp1311
(S'Filet'
g97
tp1312
a(S'Mignon'
g97
tp1313
a(S'is'
g10
tp1314
a(S'the'
g15
tp1315
a(S'only'
g7
tp1316
a(S'steak'
g5
tp1317
a(S'I'
g78
tp1318
a(S'get'
g38
tp1319
a(S'and'
g13
tp1320
a(S'I'
g78
tp1321
a(S'got'
g136
tp1322
a(S'it'
g488
tp1323
a(S'good'
g7
tp1324
a(S'!'
S'.'
tp1325
aa(lp1326
(S'The'
g3
tp1327
a(S'food'
g185
tp1328
a(S'is'
g10
tp1329
a(S'always'
g215
tp1330
a(S'good'
g7
tp1331
a(S'and'
g13
tp1332
a(S'fresh'
g7
tp1333
a(S'.'
S'.'
tp1334
aa(lp1335
(S'One'
g140
tp1336
a(S'of'
g142
tp1337
a(S'the'
g15
tp1338
a(S'very'
g23
tp1339
a(S'few'
S'JJ'
p1340
tp1341
a(S'places'
g83
tp1342
a(S'that'
g108
tp1343
a(S'open'
g38
tp1344
a(S'til'
g5
tp1345
a(S'late'
g23
tp1346
a(S','
S','
tp1347
a(S'it'
g488
tp1348
a(S"didn't"
g136
tp1349
a(S'take'
g62
tp1350
a(S'us'
S'PRP'
p1351
tp1352
a(S'long'
g23
tp1353
a(S'to'
g60
tp1354
a(S'devour'
g62
tp1355
a(S'the'
g15
tp1356
a(S'banchan'
g5
tp1357
a(S','
S','
tp1358
a(S'dol'
g5
tp1359
a(S'sot'
g5
tp1360
a(S'bi'
g5
tp1361
a(S'bim'
g5
tp1362
a(S'bap'
g5
tp1363
a(S','
S','
tp1364
a(S'kim'
g62
tp1365
a(S'chee'
g5
tp1366
a(S'fried'
g7
tp1367
a(S'rice'
g5
tp1368
a(S','
S','
tp1369
a(S'beef'
g5
tp1370
a(S'tofu'
g5
tp1371
a(S'stew'
g5
tp1372
a(S'and'
g13
tp1373
a(S'bul'
g5
tp1374
a(S'gogi'
g5
tp1375
a(S'.'
S'.'
tp1376
aa(lp1377
(S'One'
g140
tp1378
a(S'of'
g142
tp1379
a(S'my'
g227
tp1380
a(S'two'
g331
tp1381
a(S'favorite'
g7
tp1382
a(S'pizza'
g5
tp1383
a(S'places'
g83
tp1384
a(S'in'
g94
tp1385
a(S'the'
g15
tp1386
a(S'city'
g1000
tp1387
a(S'!'
S'.'
tp1388
a(S'!'
S'.'
tp1389
aa(lp1390
(S'here'
g121
tp1391
a(S'.'
S'.'
tp1392
a(S'.'
S'.'
tp1393
a(S'.'
S'.'
tp1394
a(S'just'
g52
tp1395
a(S'a'
g91
tp1396
a(S'solid'
g7
tp1397
a(S'wine'
g5
tp1398
a(S'list'
g5
tp1399
a(S','
S','
tp1400
a(S'lots'
g83
tp1401
a(S'of'
g142
tp1402
a(S'meat'
g5
tp1403
a(S','
S','
tp1404
a(S'and'
g13
tp1405
a(S'Mr'
g97
tp1406
a(S'.'
S'.'
tp1407
a(S'Ray'
g97
tp1408
a(S'Charles'
S'NNP'
p1409
tp1410
a(S'and'
g13
tp1411
a(S'Ms'
g97
tp1412
a(S'.'
S'.'
tp1413
a(S'Billie'
g97
tp1414
a(S'Holiday'
g97
tp1415
a(S'setting'
g87
tp1416
a(S'the'
g15
tp1417
a(S'moody'
g5
tp1418
a(S'.'
S'.'
tp1419
aa(lp1420
(S'The'
g3
tp1421
a(S'cheese'
g5
tp1422
a(S','
S','
tp1423
a(S'sauce'
g5
tp1424
a(S','
S','
tp1425
a(S'crust'
g5
tp1426
a(S'amp'
g5
tp1427
a(S';'
S':'
tp1428
a(S'pepperoni'
S'CC'
p1429
tp1430
a(S'are'
g449
tp1431
a(S'perfect'
g7
tp1432
a(S'.'
S'.'
tp1433
aa(lp1434
(S'The'
g3
tp1435
a(S'Rojo'
g97
tp1436
a(S'Hot'
g97
tp1437
a(S'Sauce'
g97
tp1438
a(S'I'
g78
tp1439
a(S'loved'
g136
tp1440
a(S'but'
g465
tp1441
a(S'the'
g15
tp1442
a(S'mild'
g7
tp1443
a(S'sauce'
g5
tp1444
a(S'could'
g521
tp1445
a(S'use'
g62
tp1446
a(S'some'
g920
tp1447
a(S'more'
g1197
tp1448
a(S'work'
g5
tp1449
a(S'on'
g102
tp1450
a(S'me'
g360
tp1451
a(S'no'
g410
tp1452
a(S'likey'
g7
tp1453
a(S'tomato'
g5
tp1454
a(S'paste'
g5
tp1455
a(S'.'
S'.'
tp1456
a(S'.'
S'.'
tp1457
a(S'Next'
g7
tp1458
a(S'time'
g163
tp1459
a(S"I'm"
g97
tp1460
a(S'my'
g227
tp1461
a(S"Sister's"
g97
tp1462
a(S'pad'
g5
tp1463
a(S'in'
g94
tp1464
a(S'the'
g15
tp1465
a(S'Dog'
g97
tp1466
a(S'Patch'
g97
tp1467
a(S'District'
g97
tp1468
a(S'amp'
g5
tp1469
a(S';'
S':'
tp1470
a(S'need'
g1429
tp1471
a(S'a'
g91
tp1472
a(S'takeout'
g5
tp1473
a(S'meal'
g5
tp1474
a(S"I'll"
g97
tp1475
a(S'most'
S'RBS'
p1476
tp1477
a(S'def'
g7
tp1478
a(S'roll'
g5
tp1479
a(S'through'
g18
tp1480
a(S'to'
g60
tp1481
a(S'dis'
g62
tp1482
a(S'place'
g5
tp1483
a(S'also'
g282
tp1484
a(S'the'
g15
tp1485
a(S'chips'
S'NNS'
p1486
tp1487
a(S'amp'
g38
tp1488
a(S';'
S':'
tp1489
a(S'guac'
g83
tp1490
a(S'were'
g258
tp1491
a(S'to'
g60
tp1492
a(S'die'
g62
tp1493
a(S'for'
g459
tp1494
a(S'.'
S'.'
tp1495
a(S'.'
S'.'
tp1496
a(S'.'
S'.'
tp1497
aa(lp1498
(S'Following'
g87
tp1499
a(S'the'
g15
tp1500
a(S'Yelper'
g97
tp1501
a(S'zeitgeist'
g5
tp1502
a(S'I'
g78
tp1503
a(S'tried'
g136
tp1504
a(S'the'
g15
tp1505
a(S'buffalo'
g5
tp1506
a(S'burger'
g5
tp1507
a(S','
S','
tp1508
a(S'and'
g13
tp1509
a(S'I'
g78
tp1510
a(S"don't"
g38
tp1511
a(S'regret'
g62
tp1512
a(S'it'
g488
tp1513
a(S'('
S'('
tp1514
a(S'the'
g15
tp1515
a(S'focaccia'
g5
tp1516
a(S'esque'
g5
tp1517
a(S'bun'
g5
tp1518
a(S'is'
g10
tp1519
a(S'especially'
S'RB'
p1520
tp1521
a(S'good'
g7
tp1522
a(S')'
S')'
tp1523
a(S'.'
S'.'
tp1524
aa(lp1525
(S'The'
g3
tp1526
a(S'red'
g7
tp1527
a(S'checked'
g7
tp1528
a(S'tablecloths'
g83
tp1529
a(S'and'
g13
tp1530
a(S'the'
g15
tp1531
a(S'raffle'
g5
tp1532
a(S'drawing'
g87
tp1533
a(S'were'
g258
tp1534
a(S'exactly'
g23
tp1535
a(S'like'
g18
tp1536
a(S'the'
g15
tp1537
a(S'annual'
S'JJ'
p1538
tp1539
a(S'crab'
g5
tp1540
a(S'feed'
g5
tp1541
a(S','
S','
tp1542
a(S'and'
g13
tp1543
a(S'we'
g335
tp1544
a(S'all'
g410
tp1545
a(S'felt'
g136
tp1546
a(S'a'
g91
tp1547
a(S'little'
g7
tp1548
a(S'bit'
g5
tp1549
a(S'better'
g1197
tp1550
a(S'for'
g459
tp1551
a(S'some'
g920
tp1552
a(S'old'
g33
tp1553
a(S'San'
g938
tp1554
a(S'Francisco'
S'NNP'
p1555
tp1556
a(S'institutions'
S'NNS'
p1557
tp1558
a(S'still'
g1192
tp1559
a(S'being'
S'VBG'
p1560
tp1561
a(S'around'
g23
tp1562
a(S'.'
S'.'
tp1563
aa(lp1564
(S"I've"
g97
tp1565
a(S'had'
g136
tp1566
a(S'two'
g331
tp1567
a(S'entrees'
g83
tp1568
a(S'in'
g94
tp1569
a(S'the'
g15
tp1570
a(S'past'
g7
tp1571
a(S'several'
S'JJ'
p1572
tp1573
a(S'years'
g889
tp1574
a(S"I've"
g97
tp1575
a(S'been'
g1143
tp1576
a(S'a'
g91
tp1577
a(S'customer'
S'NN'
p1578
tp1579
a(S','
S','
tp1580
a(S'undoubtedly'
g23
tp1581
a(S'because'
g18
tp1582
a(S'now'
S'RB'
p1583
tp1584
a(S'I'
g78
tp1585
a(S'cannot'
g38
tp1586
a(S'consider'
g62
tp1587
a(S'ordering'
g87
tp1588
a(S'anything'
S'NN'
p1589
tp1590
a(S'but'
g465
tp1591
a(S'the'
g15
tp1592
a(S'chicken'
g5
tp1593
a(S'enchiladas'
g5
tp1594
a(S'verdes'
g83
tp1595
a(S'.'
S'.'
tp1596
aa(lp1597
(S'The'
g3
tp1598
a(S'portions'
g83
tp1599
a(S'are'
g449
tp1600
a(S'huge'
S'JJ'
p1601
tp1602
a(S'('
S'('
tp1603
a(S'family'
g202
tp1604
a(S'style'
g204
tp1605
a(S')'
S')'
tp1606
a(S'amp'
g5
tp1607
a(S';'
S':'
tp1608
a(S'the'
g15
tp1609
a(S'prices'
S'NNS'
p1610
tp1611
a(S'are'
g449
tp1612
a(S'pretty'
g23
tp1613
a(S'reasonable'
g7
tp1614
a(S'.'
S'.'
tp1615
aa(lp1616
(S'Say'
g97
tp1617
a(S'no'
g410
tp1618
a(S'to'
g60
tp1619
a(S'the'
g15
tp1620
a(S'complimentary'
g7
tp1621
a(S'glasses'
g83
tp1622
a(S'and'
g13
tp1623
a(S'drink'
g62
tp1624
a(S'your'
S'PRP$'
p1625
tp1626
a(S'8'
S'CD'
p1627
tp1628
a(S'Riesling'
g87
tp1629
a(S'from'
g703
tp1630
a(S'the'
g15
tp1631
a(S'paper'
S'NN'
p1632
tp1633
a(S'cups'
g5
tp1634
a(S'they'
g148
tp1635
a(S'have'
g38
tp1636
a(S'by'
g952
tp1637
a(S'the'
g15
tp1638
a(S'cash'
S'NN'
p1639
tp1640
a(S'register'
g5
tp1641
a(S','
S','
tp1642
a(S'trust'
g62
tp1643
a(S'me'
g360
tp1644
a(S','
S','
tp1645
a(S"it's"
g110
tp1646
a(S'really'
g260
tp1647
a(S'more'
g40
tp1648
a(S'fun'
g5
tp1649
a(S'that'
g410
tp1650
a(S'way'
S'NN'
p1651
tp1652
a(S'.'
S'.'
tp1653
aa(lp1654
(S'The'
g3
tp1655
a(S'icing'
g5
tp1656
a(S'on'
g102
tp1657
a(S'the'
g15
tp1658
a(S'cake'
g5
tp1659
a(S'was'
g136
tp1660
a(S'the'
g15
tp1661
a(S'Sprite'
g97
tp1662
a(S'we'
g335
tp1663
a(S'ordered'
g136
tp1664
a(S'.'
S'.'
tp1665
aa(lp1666
(S'and'
g13
tp1667
a(S'returned'
g339
tp1668
a(S'to'
g60
tp1669
a(S'our'
g342
tp1670
a(S'table'
g5
tp1671
a(S'with'
g237
tp1672
a(S'a'
g91
tp1673
a(S'bowl'
g5
tp1674
a(S'twice'
g23
tp1675
a(S'as'
g23
tp1676
a(S'big'
S'JJ'
p1677
tp1678
a(S'as'
g18
tp1679
a(S'the'
g15
tp1680
a(S'two'
g331
tp1681
a(S'previous'
S'JJ'
p1682
tp1683
a(S'ones'
S'NNS'
p1684
tp1685
a(S','
S','
tp1686
a(S'filled'
g339
tp1687
a(S'with'
g237
tp1688
a(S'kimchi'
g83
tp1689
a(S'.'
S'.'
tp1690
aa(lp1691
(S'Fresh'
g7
tp1692
a(S'fish'
g5
tp1693
a(S','
S','
tp1694
a(S'creative'
g7
tp1695
a(S'dishes'
g83
tp1696
a(S'.'
S'.'
tp1697
aa(lp1698
(S'('
S'('
tp1699
a(S"they're"
g5
tp1700
a(S'grilled'
g339
tp1701
a(S'cheese'
g5
tp1702
a(S','
S','
tp1703
a(S'which'
g108
tp1704
a(S'was'
g136
tp1705
a(S'really'
g260
tp1706
a(S'cheap'
g7
tp1707
a(S'at'
g178
tp1708
a(S'3'
g140
tp1709
a(S'went'
S'VBD'
p1710
tp1711
a(S'up'
g23
tp1712
a(S'to'
g60
tp1713
a(S'4'
S'CD'
p1714
tp1715
a(S'.'
S'.'
tp1716
a(S'50'
S'CD'
p1717
tp1718
a(S','
S','
tp1719
a(S'which'
g108
tp1720
a(S'is'
g10
tp1721
a(S'still'
g1192
tp1722
a(S'good'
g7
tp1723
a(S'considering'
S'VBG'
p1724
tp1725
a(S'it'
g488
tp1726
a(S'comes'
S'VBZ'
p1727
tp1728
a(S'with'
g237
tp1729
a(S'a'
g91
tp1730
a(S'side'
g5
tp1731
a(S'salad'
g5
tp1732
a(S'.'
S'.'
tp1733
a(S')'
S')'
tp1734
aa(lp1735
(S'Good'
g7
tp1736
a(S'ice'
g5
tp1737
a(S'cream'
g5
tp1738
a(S'.'
S'.'
tp1739
aa(lp1740
(S'But'
g751
tp1741
a(S'come'
g339
tp1742
a(S'on'
g102
tp1743
a(S'.'
S'.'
tp1744
a(S'.'
S'.'
tp1745
a(S'.'
S'.'
tp1746
a(S"it's"
g5
tp1747
a(S'located'
g339
tp1748
a(S'on'
g102
tp1749
a(S'Powell'
g97
tp1750
a(S'Street'
g106
tp1751
a(S','
S','
tp1752
a(S'half'
g509
tp1753
a(S'a'
g91
tp1754
a(S'block'
g5
tp1755
a(S'from'
g703
tp1756
a(S'Union'
g104
tp1757
a(S'Square'
g97
tp1758
a(S','
S','
tp1759
a(S'so'
g18
tp1760
a(S'of'
g142
tp1761
a(S'course'
S'NN'
p1762
tp1763
a(S'you'
g301
tp1764
a(S'will'
g790
tp1765
a(S'see'
g62
tp1766
a(S'lots'
g83
tp1767
a(S'of'
g142
tp1768
a(S'tourists'
g83
tp1769
a(S'eating'
g87
tp1770
a(S'here'
g121
tp1771
a(S'after'
g85
tp1772
a(S'a'
g91
tp1773
a(S'day'
g1279
tp1774
a(S'of'
g142
tp1775
a(S'shopping'
g5
tp1776
a(S'!'
S'.'
tp1777
a(S'!'
S'.'
tp1778
a(S'!'
S'.'
tp1779
a(S'!'
S'.'
tp1780
aa(lp1781
(S'The'
g3
tp1782
a(S'fish'
g5
tp1783
a(S'is'
g10
tp1784
a(S'really'
g260
tp1785
a(S'fresh'
g7
tp1786
a(S'here'
g121
tp1787
a(S'.'
S'.'
tp1788
aa(lp1789
(S'My'
g73
tp1790
a(S'boyfriend'
g5
tp1791
a(S'finished'
g136
tp1792
a(S'his'
S'PRP$'
p1793
tp1794
a(S'BBQ'
g97
tp1795
a(S'Pork'
g97
tp1796
a(S'Bun'
g97
tp1797
a(S'before'
g18
tp1798
a(S'I'
g78
tp1799
a(S'even'
g23
tp1800
a(S'had'
g136
tp1801
a(S'a'
g91
tp1802
a(S'chance'
S'NN'
p1803
tp1804
a(S'to'
g60
tp1805
a(S'see'
g62
tp1806
a(S'it'
g488
tp1807
a(S'.'
S'.'
tp1808
a(S'.'
S'.'
tp1809
a(S'.'
S'.'
tp1810
a(S'so'
g18
tp1811
a(S'I'
g78
tp1812
a(S"don't"
g38
tp1813
a(S'know'
g62
tp1814
a(S'how'
g1077
tp1815
a(S'it'
g488
tp1816
a(S'compares'
g110
tp1817
a(S'to'
g60
tp1818
a(S'Good'
g97
tp1819
a(S"Luck's"
g97
tp1820
a(S'.'
S'.'
tp1821
aa(lp1822
(S'Clean'
g7
tp1823
a(S'environment'
S'NN'
p1824
tp1825
a(S'for'
g459
tp1826
a(S'small'
g1092
tp1827
a(S'social'
S'JJ'
p1828
tp1829
a(S'meetings'
S'NNS'
p1830
tp1831
a(S'or'
g124
tp1832
a(S'coffee'
g5
tp1833
a(S'breaks'
g83
tp1834
a(S'in'
g94
tp1835
a(S'the'
g15
tp1836
a(S'financial'
S'JJ'
p1837
tp1838
a(S'district'
S'NN'
p1839
tp1840
a(S'.'
S'.'
tp1841
aa(lp1842
(S'On'
S'IN'
p1843
tp1844
a(S'another'
S'DT'
p1845
tp1846
a(S'mission'
g5
tp1847
a(S','
S','
tp1848
a(S'I'
g78
tp1849
a(S'left'
g136
tp1850
a(S'with'
g237
tp1851
a(S'twelve'
g5
tp1852
a(S'steamed'
g339
tp1853
a(S'pork'
g5
tp1854
a(S'dumplings'
g83
tp1855
a(S'and'
g13
tp1856
a(S'they'
g148
tp1857
a(S'lasted'
g136
tp1858
a(S'me'
g360
tp1859
a(S'a'
g91
tp1860
a(S'couple'
g5
tp1861
a(S'of'
g142
tp1862
a(S'days'
g894
tp1863
a(S'.'
S'.'
tp1864
aa(lp1865
(S'He'
S'PRP'
p1866
tp1867
a(S'chose'
g136
tp1868
a(S'the'
g15
tp1869
a(S'crabmeat'
g5
tp1870
a(S'benedict'
g5
tp1871
a(S';'
S':'
tp1872
a(S'I'
g78
tp1873
a(S'chose'
g136
tp1874
a(S'the'
g15
tp1875
a(S'shrimp'
g5
tp1876
a(S'and'
g13
tp1877
a(S'avocado'
g7
tp1878
a(S'omelet'
g5
tp1879
a(S'('
S'('
tp1880
a(S'I'
g78
tp1881
a(S'wanted'
g136
tp1882
a(S'the'
g15
tp1883
a(S'benedict'
g5
tp1884
a(S'too'
S'RB'
p1885
tp1886
a(S','
S','
tp1887
a(S'but'
g465
tp1888
a(S'we'
g335
tp1889
a(S'like'
g38
tp1890
a(S'to'
g60
tp1891
a(S'try'
g62
tp1892
a(S'different'
g675
tp1893
a(S'things'
g420
tp1894
a(S')'
S')'
tp1895
a(S'.'
S'.'
tp1896
aa(lp1897
(S')'
S')'
tp1898
a(S'I'
g78
tp1899
a(S'love'
g38
tp1900
a(S'the'
g15
tp1901
a(S'Deli'
g97
tp1902
a(S'Cafeteria'
g97
tp1903
a(S'style'
g204
tp1904
a(S'setting'
g5
tp1905
a(S'.'
S'.'
tp1906
aa(lp1907
(S'Loved'
g339
tp1908
a(S'the'
g15
tp1909
a(S'hot'
g7
tp1910
a(S','
S','
tp1911
a(S'thick'
g7
tp1912
a(S'crust'
g5
tp1913
a(S'pizza'
g62
tp1914
a(S'very'
g23
tp1915
a(S'much'
g23
tp1916
a(S'.'
S'.'
tp1917
aa(lp1918
(S'They'
g670
tp1919
a(S'baked'
g136
tp1920
a(S'the'
g15
tp1921
a(S'fish'
g5
tp1922
a(S','
S','
tp1923
a(S'but'
g465
tp1924
a(S'there'
g23
tp1925
a(S'was'
g136
tp1926
a(S'a'
g91
tp1927
a(S'thin'
g7
tp1928
a(S'crust'
g5
tp1929
a(S'around'
g18
tp1930
a(S'the'
g15
tp1931
a(S'fish'
g5
tp1932
a(S'that'
g18
tp1933
a(S'almost'
S'RB'
p1934
tp1935
a(S'made'
g136
tp1936
a(S'it'
g488
tp1937
a(S'seem'
g62
tp1938
a(S'fried'
g339
tp1939
a(S'.'
S'.'
tp1940
aa(lp1941
(S'But'
g751
tp1942
a(S'if'
S'IN'
p1943
tp1944
a(S'you'
g301
tp1945
a(S'have'
g38
tp1946
a(S'a'
g91
tp1947
a(S'bunch'
g5
tp1948
a(S'of'
g142
tp1949
a(S'carnivores'
g83
tp1950
a(S'out'
g50
tp1951
a(S'for'
g459
tp1952
a(S'some'
g920
tp1953
a(S'amazing'
g7
tp1954
a(S'steak'
g5
tp1955
a(S'in'
g94
tp1956
a(S'San'
g938
tp1957
a(S'Francisco'
g1555
tp1958
a(S'('
S'('
tp1959
a(S'probably'
g1227
tp1960
a(S'the'
g15
tp1961
a(S'best'
g265
tp1962
a(S')'
S')'
tp1963
a(S'then'
S'RB'
p1964
tp1965
a(S'head'
g5
tp1966
a(S'here'
g121
tp1967
a(S'for'
g459
tp1968
a(S'not'
g754
tp1969
a(S'only'
g23
tp1970
a(S'a'
g91
tp1971
a(S'meal'
g5
tp1972
a(S'but'
g465
tp1973
a(S'a'
g91
tp1974
a(S'dining'
g7
tp1975
a(S'experience'
g5
tp1976
a(S'.'
S'.'
tp1977
aa(lp1978
(S'for'
g459
tp1979
a(S'the'
g15
tp1980
a(S'food'
g185
tp1981
a(S','
S','
tp1982
a(S'the'
g15
tp1983
a(S'server'
g5
tp1984
a(S'talked'
g136
tp1985
a(S'us'
g1351
tp1986
a(S'into'
g89
tp1987
a(S'getting'
S'VBG'
p1988
tp1989
a(S'a'
g91
tp1990
a(S'half'
g7
tp1991
a(S'order'
g314
tp1992
a(S'of'
g142
tp1993
a(S'the'
g15
tp1994
a(S'seafood'
g5
tp1995
a(S'gumbo'
g5
tp1996
a(S'and'
g13
tp1997
a(S','
S','
tp1998
a(S'damn'
g23
tp1999
a(S','
S','
tp2000
a(S'it'
g488
tp2001
a(S'was'
g136
tp2002
a(S'a'
g91
tp2003
a(S'good'
g7
tp2004
a(S'choice'
S'NN'
p2005
tp2006
a(S'.'
S'.'
tp2007
aa(lp2008
(S'Tea'
g5
tp2009
a(S'is'
g10
tp2010
a(S'the'
g15
tp2011
a(S'real'
S'JJ'
p2012
tp2013
a(S'deal'
g5
tp2014
a(S'and'
g13
tp2015
a(S'decent'
g7
tp2016
a(S'flavor'
g5
tp2017
a(S'.'
S'.'
tp2018
aa(lp2019
(S'The'
g3
tp2020
a(S'turkish'
g7
tp2021
a(S'coffee'
g5
tp2022
a(S'shake'
g5
tp2023
a(S'was'
g136
tp2024
a(S'probably'
g1227
tp2025
a(S'the'
g15
tp2026
a(S'best'
g265
tp2027
a(S'shake'
g5
tp2028
a(S"I've"
g97
tp2029
a(S'ever'
S'RB'
p2030
tp2031
a(S'had'
g136
tp2032
a(S'.'
S'.'
tp2033
aa(lp2034
(S'Oh'
g643
tp2035
a(S','
S','
tp2036
a(S'the'
g15
tp2037
a(S'salad'
g5
tp2038
a(S'and'
g13
tp2039
a(S'water'
S'NN'
p2040
tp2041
a(S'jug'
g5
tp2042
a(S'are'
g449
tp2043
a(S'a'
g91
tp2044
a(S'nice'
g7
tp2045
a(S'touch'
g5
tp2046
a(S'.'
S'.'
tp2047
aa(lp2048
(S'When'
S'WRB'
p2049
tp2050
a(S"you're"
g5
tp2051
a(S'craving'
g87
tp2052
a(S'a'
g91
tp2053
a(S'good'
g7
tp2054
a(S'steak'
g5
tp2055
a(S','
S','
tp2056
a(S'reserve'
g62
tp2057
a(S'a'
g91
tp2058
a(S'cozy'
g5
tp2059
a(S'booth'
g5
tp2060
a(S'and'
g13
tp2061
a(S'come'
g62
tp2062
a(S'to'
g60
tp2063
a(S"Harris'"
g97
tp2064
a(S'.'
S'.'
tp2065
aa(lp2066
(S'But'
g751
tp2067
a(S'with'
g237
tp2068
a(S'those'
g636
tp2069
a(S'knee'
g83
tp2070
a(S'high'
g38
tp2071
a(S'green'
g7
tp2072
a(S'socks'
g83
tp2073
a(S'I'
g78
tp2074
a(S'guess'
g38
tp2075
a(S'he'
S'PRP'
p2076
tp2077
a(S'is'
g10
tp2078
a(S'still'
g1192
tp2079
a(S'the'
g15
tp2080
a(S'outgoing'
g5
tp2081
a(S'and'
g13
tp2082
a(S'fun'
g5
tp2083
a(S'raising'
g87
tp2084
a(S'character'
g5
tp2085
a(S'.'
S'.'
tp2086
aa(lp2087
(S'Both'
g410
tp2088
a(S'my'
g227
tp2089
a(S'friend'
g5
tp2090
a(S'and'
g13
tp2091
a(S'I'
g78
tp2092
a(S"couldn't"
g38
tp2093
a(S'finish'
g7
tp2094
a(S'and'
g13
tp2095
a(S'took'
S'VBD'
p2096
tp2097
a(S'half'
g5
tp2098
a(S'home'
g5
tp2099
a(S'with'
g237
tp2100
a(S'glorious'
g7
tp2101
a(S'plans'
g83
tp2102
a(S'to'
g60
tp2103
a(S'eat'
g62
tp2104
a(S'it'
g488
tp2105
a(S'later'
g23
tp2106
a(S')'
S')'
tp2107
aa(lp2108
(S'Maybe'
g23
tp2109
a(S'next'
g7
tp2110
a(S'time'
g163
tp2111
a(S'.'
S'.'
tp2112
a(S'.'
S'.'
tp2113
a(S'.'
S'.'
tp2114
a(S'.'
S'.'
tp2115
a(S'although'
S'IN'
p2116
tp2117
a(S'the'
g15
tp2118
a(S'rack'
g5
tp2119
a(S'of'
g142
tp2120
a(S'lamb'
g5
tp2121
a(S'sounded'
g339
tp2122
a(S'pretty'
g23
tp2123
a(S'good'
g7
tp2124
a(S','
S','
tp2125
a(S'too'
g1885
tp2126
a(S'.'
S'.'
tp2127
aa(lp2128
(S'It'
g904
tp2129
a(S'needs'
g110
tp2130
a(S'a'
g91
tp2131
a(S'sauce'
g5
tp2132
a(S'though'
g18
tp2133
a(S','
S','
tp2134
a(S'like'
g18
tp2135
a(S'brown'
g7
tp2136
a(S'gravy'
g7
tp2137
a(S'lol'
g5
tp2138
a(S'.'
S'.'
tp2139
aa(lp2140
(S'Another'
S'DT'
p2141
tp2142
a(S'great'
g30
tp2143
a(S'thing'
S'NN'
p2144
tp2145
a(S'about'
g18
tp2146
a(S'Arinell'
g97
tp2147
a(S'is'
g10
tp2148
a(S'they'
g148
tp2149
a(S'not'
g754
tp2150
a(S'only'
g23
tp2151
a(S'serve'
g62
tp2152
a(S'great'
g30
tp2153
a(S'pizza'
g5
tp2154
a(S','
S','
tp2155
a(S'but'
g465
tp2156
a(S'they'
g148
tp2157
a(S'play'
g38
tp2158
a(S'the'
g15
tp2159
a(S'best'
g265
tp2160
a(S'hair'
g5
tp2161
a(S'metal'
g5
tp2162
a(S'on'
g102
tp2163
a(S'their'
g526
tp2164
a(S'speakers'
g83
tp2165
a(S'.'
S'.'
tp2166
aa(lp2167
(S'Noodles'
g83
tp2168
a(S'with'
g237
tp2169
a(S'plum'
g5
tp2170
a(S'sauce'
g5
tp2171
a(S'('
S'('
tp2172
a(S'popularly'
g7
tp2173
a(S'known'
g339
tp2174
a(S'in'
g94
tp2175
a(S'Chinese'
g7
tp2176
a(S'as'
g18
tp2177
a(S'zhajiang'
g5
tp2178
a(S'mian'
g5
tp2179
a(S'and'
g13
tp2180
a(S'in'
g94
tp2181
a(S'Korean'
g97
tp2182
a(S'as'
g18
tp2183
a(S'jajangmyeon'
g5
tp2184
a(S')'
S')'
tp2185
a(S"I'm"
g97
tp2186
a(S'not'
g754
tp2187
a(S'sure'
g7
tp2188
a(S'why'
S'WRB'
p2189
tp2190
a(S'they'
g148
tp2191
a(S'call'
g38
tp2192
a(S'it'
g488
tp2193
a(S'plum'
g110
tp2194
a(S'sauce'
g5
tp2195
a(S'because'
g18
tp2196
a(S"it's"
g5
tp2197
a(S'really'
g260
tp2198
a(S'a'
g91
tp2199
a(S'black'
S'JJ'
p2200
tp2201
a(S'soybean'
g5
tp2202
a(S'sauce'
g5
tp2203
a(S'.'
S'.'
tp2204
aa(lp2205
(S'Yeah'
g643
tp2206
a(S','
S','
tp2207
a(S'I'
g78
tp2208
a(S'admit'
g38
tp2209
a(S'I'
g78
tp2210
a(S'need'
g38
tp2211
a(S'to'
g60
tp2212
a(S'stop'
g62
tp2213
a(S'eating'
g87
tp2214
a(S'soo'
g7
tp2215
a(S'much'
g23
tp2216
a(S'but'
g465
tp2217
a(S'what'
g581
tp2218
a(S'fun'
g5
tp2219
a(S'would'
S'MD'
p2220
tp2221
a(S'that'
g108
tp2222
a(S'be'
S'VB'
p2223
tp2224
a(S','
S','
tp2225
a(S'right'
g23
tp2226
a(S'?'
S'.'
tp2227
aa(lp2228
(S'A'
g410
tp2229
a(S'little'
g7
tp2230
a(S'too'
g1885
tp2231
a(S'salty'
g5
tp2232
a(S'for'
g459
tp2233
a(S'me'
g360
tp2234
a(S'but'
g465
tp2235
a(S'much'
g23
tp2236
a(S'less'
g40
tp2237
a(S'greasy'
g7
tp2238
a(S'than'
S'IN'
p2239
tp2240
a(S"Quickly's"
g97
tp2241
a(S'popcorn'
g7
tp2242
a(S'chicken'
g5
tp2243
a(S'.'
S'.'
tp2244
aa(lp2245
(S'Super'
g97
tp2246
a(S'cute'
g5
tp2247
a(S'glasses'
g83
tp2248
a(S'for'
g459
tp2249
a(S'your'
g1625
tp2250
a(S'root'
g5
tp2251
a(S'beer'
S'NN'
p2252
tp2253
a(S'all'
g410
tp2254
a(S'branded'
g136
tp2255
a(S'with'
g237
tp2256
a(S'red'
g7
tp2257
a(S'lobster'
g5
tp2258
a(S'with'
g237
tp2259
a(S'big'
g1677
tp2260
a(S'claws'
g5
tp2261
a(S'!'
S'.'
tp2262
aa(lp2263
(S'This'
g470
tp2264
a(S'had'
g136
tp2265
a(S'a'
g91
tp2266
a(S'very'
g23
tp2267
a(S'strong'
g432
tp2268
a(S'garlic'
g7
tp2269
a(S'flavor'
g5
tp2270
a(S'and'
g13
tp2271
a(S'the'
g15
tp2272
a(S'shrimp'
g5
tp2273
a(S'was'
g136
tp2274
a(S'good'
g7
tp2275
a(S','
S','
tp2276
a(S'but'
g465
tp2277
a(S'it'
g488
tp2278
a(S'was'
g136
tp2279
a(S'mostly'
S'RB'
p2280
tp2281
a(S'watery'
g7
tp2282
a(S'with'
g237
tp2283
a(S'egg'
g5
tp2284
a(S'pieces'
g83
tp2285
a(S'.'
S'.'
tp2286
aa(lp2287
(S"I'm"
g97
tp2288
a(S'planning'
g87
tp2289
a(S'on'
g102
tp2290
a(S'coming'
g87
tp2291
a(S'back'
g23
tp2292
a(S'there'
g23
tp2293
a(S'just'
g52
tp2294
a(S'for'
g459
tp2295
a(S'this'
g440
tp2296
a(S'roll'
g5
tp2297
a(S'.'
S'.'
tp2298
a(S'.'
S'.'
tp2299
a(S'.'
S'.'
tp2300
aa(lp2301
(S'Creamy'
g97
tp2302
a(S'foie'
g5
tp2303
a(S'gras'
g83
tp2304
a(S'highlighted'
g339
tp2305
a(S'with'
g237
tp2306
a(S'sweet'
g7
tp2307
a(S'pineapple'
g83
tp2308
a(S','
S','
tp2309
a(S'the'
g15
tp2310
a(S'wonderful'
g7
tp2311
a(S'texture'
g5
tp2312
a(S'of'
g142
tp2313
a(S'gelee'
g5
tp2314
a(S','
S','
tp2315
a(S'smoky'
g7
tp2316
a(S'bacon'
g5
tp2317
a(S'and'
g13
tp2318
a(S'chewy'
g7
tp2319
a(S'duck'
g5
tp2320
a(S'.'
S'.'
tp2321
aa(lp2322
(S'A'
g410
tp2323
a(S'small'
g1092
tp2324
a(S'silver'
g5
tp2325
a(S'lining'
g5
tp2326
a(S'for'
g459
tp2327
a(S'this'
g440
tp2328
a(S'recession'
S'NN'
p2329
tp2330
a(S'?'
S'.'
tp2331
aa(lp2332
(S'We'
g116
tp2333
a(S'ordered'
g136
tp2334
a(S'the'
g15
tp2335
a(S'Chapchae'
g97
tp2336
a(S','
S','
tp2337
a(S'BBQ'
g97
tp2338
a(S'Pork'
g97
tp2339
a(S','
S','
tp2340
a(S'BiBimBap'
g97
tp2341
a(S','
S','
tp2342
a(S'amp'
g5
tp2343
a(S';'
S':'
tp2344
a(S'Kimchi'
g97
tp2345
a(S'Pancake'
g97
tp2346
a(S'.'
S'.'
tp2347
aa(lp2348
(S'My'
g73
tp2349
a(S'wife'
g75
tp2350
a(S'and'
g13
tp2351
a(S'I'
g78
tp2352
a(S'come'
g38
tp2353
a(S'here'
g121
tp2354
a(S'and'
g13
tp2355
a(S'get'
g62
tp2356
a(S'a'
g91
tp2357
a(S'12'
S'CD'
p2358
tp2359
a(S'steak'
g5
tp2360
a(S'for'
g459
tp2361
a(S'about'
g18
tp2362
a(S'9'
S'CD'
p2363
tp2364
a(S'and'
g13
tp2365
a(S'both'
g410
tp2366
a(S'leave'
g38
tp2367
a(S'full'
S'JJ'
p2368
tp2369
a(S'.'
S'.'
tp2370
aa.