(lp1
(lp2
(S'For'
S'IN'
p3
tp4
a(S'mains'
S'NNS'
p5
tp6
a(S','
S','
tp7
a(S'my'
S'PRP$'
p8
tp9
a(S'bf'
S'NN'
p10
tp11
a(S'had'
S'VBD'
p12
tp13
a(S'the'
S'DT'
p14
tp15
a(S'beef'
g10
tp16
a(S'tenderloin'
g10
tp17
a(S'with'
S'IN'
p18
tp19
a(S'a'
S'DT'
p20
tp21
a(S'glass'
g10
tp22
a(S'of'
S'IN'
p23
tp24
a(S'mountain'
g10
tp25
a(S'cuvee'
g10
tp26
a(S'.'
S'.'
tp27
aa(lp28
(S'One'
S'CD'
p29
tp30
a(S'time'
S'NN'
p31
tp32
a(S'I'
S'PRP'
p33
tp34
a(S'order'
S'NN'
p35
tp36
a(S'a'
g20
tp37
a(S'cup'
g10
tp38
a(S'of'
g23
tp39
a(S'coffee'
g10
tp40
a(S'and'
S'CC'
p41
tp42
a(S"it's"
S'JJ'
p43
tp44
a(S'really'
S'RB'
p45
tp46
a(S'bland'
g10
tp47
a(S'and'
g41
tp48
a(S'unsatisfying'
g10
tp49
a(S'.'
S'.'
tp50
aa(lp51
(S'Pasta'
g10
tp52
a(S'in'
S'IN'
p53
tp54
a(S'basil'
g10
tp55
a(S'pesto'
g10
tp56
a(S'was'
g12
tp57
a(S'great'
S'JJ'
p58
tp59
a(S'too'
S'RB'
p60
tp61
a(S'but'
S'CC'
p62
tp63
a(S'the'
g14
tp64
a(S'it'
S'PRP'
p65
tp66
a(S'left'
g12
tp67
a(S'something'
S'NN'
p68
tp69
a(S'to'
S'TO'
p70
tp71
a(S'be'
S'VB'
p72
tp73
a(S'desired'
S'VBN'
p74
tp75
a(S'as'
S'IN'
p76
tp77
a(S'an'
S'DT'
p78
tp79
a(S'accompaniment'
g10
tp80
a(S'or'
S'CC'
p81
tp82
a(S'maybe'
S'RB'
p83
tp84
a(S'something'
g68
tp85
a(S'else'
g83
tp86
a(S'could'
S'MD'
p87
tp88
a(S'be'
g72
tp89
a(S'added'
g74
tp90
a(S'to'
g70
tp91
a(S'the'
g14
tp92
a(S'sauce'
g10
tp93
a(S'.'
S'.'
tp94
aa(lp95
(S'It'
S'PRP'
p96
tp97
a(S'tastes'
S'VBZ'
p98
tp99
a(S'fresh'
g43
tp100
a(S'which'
S'WDT'
p101
tp102
a(S'is'
S'VBZ'
p103
tp104
a(S'the'
g14
tp105
a(S'best'
S'JJS'
p106
tp107
a(S'part'
S'NN'
p108
tp109
a(S','
S','
tp110
a(S'not'
S'RB'
p111
tp112
a(S'like'
g76
tp113
a(S'a'
g20
tp114
a(S'31'
S'CD'
p115
tp116
a(S'flavors'
g5
tp117
a(S','
S','
tp118
a(S'but'
g62
tp119
a(S'real'
S'JJ'
p120
tp121
a(S'delicious'
g43
tp122
a(S'ingredients'
g5
tp123
a(S'.'
S'.'
tp124
aa(lp125
(S'Crust'
S'NNP'
p126
tp127
a(S'is'
g103
tp128
a(S'crispy'
g43
tp129
a(S'and'
g41
tp130
a(S'sauce'
g10
tp131
a(S'is'
g103
tp132
a(S'just'
S'RB'
p133
tp134
a(S'right'
g43
tp135
a(S'w'
g10
tp136
a(S'fresh'
g43
tp137
a(S'toppings'
g5
tp138
a(S'.'
S'.'
tp139
aa(lp140
(S'The'
S'DT'
p141
tp142
a(S'decor'
g10
tp143
a(S'is'
g103
tp144
a(S'really'
g45
tp145
a(S'nice'
g43
tp146
a(S','
S','
tp147
a(S'with'
g18
tp148
a(S'an'
g78
tp149
a(S'almost'
S'RB'
p150
tp151
a(S'diner'
g10
tp152
a(S'like'
g76
tp153
a(S'feel'
g10
tp154
a(S'with'
g18
tp155
a(S'the'
g14
tp156
a(S'red'
g43
tp157
a(S'and'
g41
tp158
a(S'white'
S'JJ'
p159
tp160
a(S','
S','
tp161
a(S'but'
g62
tp162
a(S'in'
g53
tp163
a(S'a'
g20
tp164
a(S'much'
g83
tp165
a(S'more'
S'JJR'
p166
tp167
a(S'modern'
g43
tp168
a(S'way'
S'NN'
p169
tp170
a(S'.'
S'.'
tp171
aa(lp172
(S'I'
g33
tp173
a(S'know'
S'VBP'
p174
tp175
a(S','
S','
tp176
a(S'because'
g76
tp177
a(S'I'
g33
tp178
a(S'am'
S'VBP'
p179
tp180
a(S'half'
g43
tp181
a(S'Iraqi'
g126
tp182
a(S'and'
g41
tp183
a(S'this'
S'DT'
p184
tp185
a(S'was'
g12
tp186
a(S'very'
g83
tp187
a(S'authentic'
g43
tp188
a(S'and'
g41
tp189
a(S'similar'
S'JJ'
p190
tp191
a(S'to'
g70
tp192
a(S'the'
g14
tp193
a(S'food'
S'NN'
p194
tp195
a(S'I'
g33
tp196
a(S'grew'
S'VBD'
p197
tp198
a(S'up'
S'RP'
p199
tp200
a(S'on'
S'IN'
p201
tp202
a(S'.'
S'.'
tp203
aa(lp204
(S'They'
S'PRP'
p205
tp206
a(S"didn't"
g174
tp207
a(S'do'
S'VB'
p208
tp209
a(S'much'
g83
tp210
a(S'to'
g70
tp211
a(S'convert'
g208
tp212
a(S'the'
g14
tp213
a(S'house'
S'NN'
p214
tp215
a(S'into'
S'IN'
p216
tp217
a(S'a'
g20
tp218
a(S'restaurant'
g10
tp219
a(S'.'
S'.'
tp220
aa(lp221
(S'This'
S'DT'
p222
tp223
a(S'used'
g74
tp224
a(S'to'
g70
tp225
a(S'be'
g72
tp226
a(S'my'
g8
tp227
a(S'regular'
g43
tp228
a(S'breakfast'
g10
tp229
a(S'place'
g10
tp230
a(S'.'
S'.'
tp231
aa(lp232
(S'We'
S'PRP'
p233
tp234
a(S"couldn't"
g174
tp235
a(S'finish'
g208
tp236
a(S'it'
g65
tp237
a(S'and'
g41
tp238
a(S'I'
g33
tp239
a(S'also'
S'RB'
p240
tp241
a(S"don't"
g174
tp242
a(S'eat'
g83
tp243
a(S'much'
g43
tp244
a(S'rice'
g10
tp245
a(S'so'
g83
tp246
a(S'that'
g83
tp247
a(S'says'
S'VBZ'
p248
tp249
a(S'a'
g20
tp250
a(S'lot'
g10
tp251
a(S'.'
S'.'
tp252
aa(lp253
(S'Mmmmmmm'
g126
tp254
a(S','
S','
tp255
a(S'the'
g14
tp256
a(S'smell'
g10
tp257
a(S'was'
g12
tp258
a(S'steak'
g43
tp259
a(S'tastic'
g43
tp260
a(S'.'
S'.'
tp261
aa(lp262
(S'Instead'
S'RB'
p263
tp264
a(S'of'
g23
tp265
a(S'having'
S'VBG'
p266
tp267
a(S'the'
g14
tp268
a(S'lobster'
g10
tp269
a(S'roll'
g10
tp270
a(S','
S','
tp271
a(S'I'
g33
tp272
a(S'had'
g12
tp273
a(S'the'
g14
tp274
a(S'crab'
g10
tp275
a(S'melt'
g10
tp276
a(S'.'
S'.'
tp277
aa(lp278
(S'An'
S'DT'
p279
tp280
a(S'assortment'
g10
tp281
a(S'of'
g23
tp282
a(S'flavors'
g5
tp283
a(S'and'
g41
tp284
a(S'very'
g83
tp285
a(S'fresh'
g43
tp286
a(S'.'
S'.'
tp287
aa(lp288
(S'Pros'
g5
tp289
a(S'food'
g194
tp290
a(S'is'
g103
tp291
a(S'great'
g58
tp292
a(S';'
S':'
tp293
a(S'fresh'
g43
tp294
a(S','
S','
tp295
a(S'hot'
g43
tp296
a(S'and'
g41
tp297
a(S'a'
g20
tp298
a(S'good'
g43
tp299
a(S'variety'
g10
tp300
a(S'of'
g23
tp301
a(S'classic'
g43
tp302
a(S'dim'
g10
tp303
a(S'sum'
g10
tp304
a(S'dishes'
g5
tp305
a(S'service'
g10
tp306
a(S'.'
S'.'
tp307
a(S'.'
S'.'
tp308
a(S'.'
S'.'
tp309
a(S'I'
g33
tp310
a(S'usually'
S'RB'
p311
tp312
a(S"don't"
g174
tp313
a(S'expect'
g43
tp314
a(S'great'
g58
tp315
a(S'service'
g10
tp316
a(S'at'
S'IN'
p317
tp318
a(S'Chinese'
g43
tp319
a(S'restaurants'
g5
tp320
a(S','
S','
tp321
a(S'but'
g62
tp322
a(S'all'
S'PDT'
p323
tp324
a(S'the'
g14
tp325
a(S'servers'
g5
tp326
a(S'were'
S'VBD'
p327
tp328
a(S'pleasant'
g43
tp329
a(S'('
S'('
tp330
a(S'my'
g8
tp331
a(S'mom'
g10
tp332
a(S'had'
g12
tp333
a(S'to'
g70
tp334
a(S'be'
g72
tp335
a(S'told'
g74
tp336
a(S'to'
g70
tp337
a(S'let'
g208
tp338
a(S'them'
S'PRP'
p339
tp340
a(S'please'
g208
tp341
a(S'serve'
g208
tp342
a(S'her'
g65
tp343
a(S','
S','
tp344
a(S'haha'
g10
tp345
a(S')'
S')'
tp346
a(S'cleanliness'
g10
tp347
a(S'Cons'
S'NNPS'
p348
tp349
a(S'this'
g184
tp350
a(S'place'
g10
tp351
a(S'is'
g103
tp352
a(S'HARD'
g43
tp353
a(S'to'
g70
tp354
a(S'find'
g208
tp355
a(S'.'
S'.'
tp356
a(S'.'
S'.'
tp357
a(S'.'
S'.'
tp358
a(S'if'
S'IN'
p359
tp360
a(S'we'
S'PRP'
p361
tp362
a(S'had'
g12
tp363
a(S'not'
g111
tp364
a(S'seen'
S'VBN'
p365
tp366
a(S'the'
g14
tp367
a(S'woman'
S'NN'
p368
tp369
a(S'from'
S'IN'
p370
tp371
a(S'Hang'
g126
tp372
a(S'Ah'
g126
tp373
a(S'standing'
S'VBG'
p374
tp375
a(S'on'
g201
tp376
a(S'the'
g14
tp377
a(S'corner'
g10
tp378
a(S'of'
g23
tp379
a(S'Grant'
g126
tp380
a(S'Stockton'
g126
tp381
a(S'('
S'('
tp382
a(S'who'
S'WP'
p383
tp384
a(S'walked'
g12
tp385
a(S'us'
S'PRP'
p386
tp387
a(S'up'
g199
tp388
a(S'the'
g14
tp389
a(S'hill'
g10
tp390
a(S'to'
g70
tp391
a(S'the'
g14
tp392
a(S'restaurant'
g10
tp393
a(S')'
S')'
tp394
a(S','
S','
tp395
a(S'I'
g33
tp396
a(S"don't"
g174
tp397
a(S'think'
g208
tp398
a(S'we'
g361
tp399
a(S"would've"
g174
tp400
a(S'found'
g74
tp401
a(S'it'
g65
tp402
a(S'!'
S'.'
tp403
aa(lp404
(S'Always'
g83
tp405
a(S'great'
g58
tp406
a(S'to'
g70
tp407
a(S'squeeze'
g208
tp408
a(S'up'
g199
tp409
a(S'at'
g317
tp410
a(S'the'
g14
tp411
a(S'counter'
g10
tp412
a(S'('
S'('
tp413
a(S'slightly'
S'RB'
p414
tp415
a(S'drunk'
g10
tp416
a(S')'
S')'
tp417
a(S','
S','
tp418
a(S'listen'
S'UH'
p419
tp420
a(S'to'
g70
tp421
a(S'the'
g14
tp422
a(S'hungry'
g43
tp423
a(S'sots'
g5
tp424
a(S'around'
g76
tp425
a(S'you'
S'PRP'
p426
tp427
a(S'while'
g76
tp428
a(S'you'
g426
tp429
a(S'wait'
g174
tp430
a(S'for'
S'IN'
p431
tp432
a(S'your'
S'PRP$'
p433
tp434
a(S'slice'
g10
tp435
a(S'to'
g70
tp436
a(S'warm'
g208
tp437
a(S'in'
g53
tp438
a(S'the'
g14
tp439
a(S'pizza'
g10
tp440
a(S'ovens'
g98
tp441
a(S','
S','
tp442
a(S'look'
g208
tp443
a(S'dreamily'
g83
tp444
a(S'at'
g317
tp445
a(S'the'
g14
tp446
a(S'old'
S'JJ'
p447
tp448
a(S'boxing'
g10
tp449
a(S'gloves'
g5
tp450
a(S'hanging'
g374
tp451
a(S'behind'
g76
tp452
a(S'the'
g14
tp453
a(S'counter'
g10
tp454
a(S'while'
g76
tp455
a(S'dreaming'
g374
tp456
a(S'of'
g23
tp457
a(S'dancing'
g374
tp458
a(S'circles'
g5
tp459
a(S'around'
g76
tp460
a(S'your'
g433
tp461
a(S'latest'
S'JJS'
p462
tp463
a(S'enemy'
g10
tp464
a(S','
S','
tp465
a(S'and'
g41
tp466
a(S'then'
S'RB'
p467
tp468
a(S'shake'
g208
tp469
a(S'parmesan'
g5
tp470
a(S'and'
g41
tp471
a(S'hot'
g43
tp472
a(S'pepper'
g10
tp473
a(S'flakes'
g5
tp474
a(S'on'
g201
tp475
a(S'your'
g433
tp476
a(S'steamy'
g43
tp477
a(S'cheesy'
g10
tp478
a(S'rectangular'
g43
tp479
a(S'chunk'
g10
tp480
a(S'of'
g23
tp481
a(S'pizza'
g10
tp482
a(S'as'
g76
tp483
a(S'its'
S'PRP$'
p484
tp485
a(S'tossed'
g74
tp486
a(S'down'
g199
tp487
a(S'on'
g201
tp488
a(S'the'
g14
tp489
a(S'counter'
g10
tp490
a(S'in'
g53
tp491
a(S'front'
g10
tp492
a(S'of'
g23
tp493
a(S'you'
g426
tp494
a(S','
S','
tp495
a(S'as'
g76
tp496
a(S'the'
g14
tp497
a(S'warm'
g43
tp498
a(S'aroma'
g10
tp499
a(S'wafts'
g12
tp500
a(S'up'
g199
tp501
a(S'over'
g76
tp502
a(S'your'
g433
tp503
a(S'face'
g10
tp504
a(S'.'
S'.'
tp505
aa(lp506
(S'Dang'
g126
tp507
a(S'the'
g14
tp508
a(S'platter'
g10
tp509
a(S'was'
g12
tp510
a(S'huge'
S'JJ'
p511
tp512
a(S'.'
S'.'
tp513
a(S'.'
S'.'
tp514
a(S'.'
S'.'
tp515
a(S'.'
S'.'
tp516
a(S'Next'
g43
tp517
a(S'time'
g31
tp518
a(S','
S','
tp519
a(S'I'
g33
tp520
a(S'must'
S'MD'
p521
tp522
a(S'just'
g133
tp523
a(S'get'
g208
tp524
a(S'one'
g29
tp525
a(S'platter'
g10
tp526
a(S'salad'
g10
tp527
a(S'and'
g41
tp528
a(S'get'
g208
tp529
a(S'a'
g20
tp530
a(S'small'
S'JJ'
p531
tp532
a(S'lentil'
g10
tp533
a(S'soup'
g10
tp534
a(S'to'
g70
tp535
a(S'share'
S'NN'
p536
tp537
a(S'.'
S'.'
tp538
a(S'.'
S'.'
tp539
a(S'.'
S'.'
tp540
a(S'.'
S'.'
tp541
a(S'One'
g29
tp542
a(S'platter'
g10
tp543
a(S'is'
g103
tp544
a(S'A'
g78
tp545
a(S'LOT'
g126
tp546
a(S'for'
g431
tp547
a(S'2'
S'CD'
p548
tp549
a(S'people'
S'NNS'
p550
tp551
a(S'.'
S'.'
tp552
a(S'.'
S'.'
tp553
a(S'.'
S'.'
tp554
a(S'.'
S'.'
tp555
aa(lp556
(S'I'
g33
tp557
a(S'may'
S'MD'
p558
tp559
a(S'get'
g208
tp560
a(S'in'
g53
tp561
a(S'hot'
g43
tp562
a(S'water'
S'NN'
p563
tp564
a(S','
S','
tp565
a(S'but'
g62
tp566
a(S'I'
g33
tp567
a(S'believe'
g174
tp568
a(S'their'
S'PRP$'
p569
tp570
a(S'seafood'
g10
tp571
a(S'is'
g103
tp572
a(S'better'
S'RBR'
p573
tp574
a(S'prepared'
g74
tp575
a(S'than'
S'IN'
p576
tp577
a(S'the'
g14
tp578
a(S'venerable'
g43
tp579
a(S'Hayes'
g126
tp580
a(S'Street'
S'NNP'
p581
tp582
a(S'Grill'
g126
tp583
a(S'am'
g179
tp584
a(S'I'
g33
tp585
a(S'biased'
g12
tp586
a(S'towards'
g5
tp587
a(S'French'
g43
tp588
a(S'owners'
S'NNS'
p589
tp590
a(S'?'
S'.'
tp591
aa(lp592
(S'Loaded'
g74
tp593
a(S'with'
g18
tp594
a(S'bamboo'
g43
tp595
a(S'shoots'
g5
tp596
a(S','
S','
tp597
a(S'mushrooms'
g5
tp598
a(S','
S','
tp599
a(S'rice'
g10
tp600
a(S'and'
g41
tp601
a(S'of'
g23
tp602
a(S'course'
S'NN'
p603
tp604
a(S','
S','
tp605
a(S'chicken'
g10
tp606
a(S'.'
S'.'
tp607
aa(lp608
(S'The'
g141
tp609
a(S'ice'
g10
tp610
a(S'cream'
g10
tp611
a(S'sundaes'
g10
tp612
a(S'are'
S'VBP'
p613
tp614
a(S'the'
g14
tp615
a(S'way'
g169
tp616
a(S'to'
g70
tp617
a(S'go'
g208
tp618
a(S','
S','
tp619
a(S'gooey'
g208
tp620
a(S'hot'
g43
tp621
a(S'fudge'
g10
tp622
a(S','
S','
tp623
a(S'chopped'
g12
tp624
a(S'nuts'
g5
tp625
a(S'and'
g41
tp626
a(S'a'
g20
tp627
a(S'perfect'
g43
tp628
a(S'maraschino'
g10
tp629
a(S'cherry'
g10
tp630
a(S'to'
g70
tp631
a(S'top'
g208
tp632
a(S'it'
g65
tp633
a(S'off'
g199
tp634
a(S'!'
S'.'
tp635
aa(lp636
(S"I've"
g126
tp637
a(S'eaten'
g12
tp638
a(S'plenty'
g10
tp639
a(S'of'
g23
tp640
a(S'NY'
g126
tp641
a(S'slices'
g5
tp642
a(S'.'
S'.'
tp643
aa(lp644
(S'Their'
g484
tp645
a(S'egg'
g10
tp646
a(S'rolls'
g5
tp647
a(S'are'
g613
tp648
a(S'especially'
S'RB'
p649
tp650
a(S'good'
g43
tp651
a(S'.'
S'.'
tp652
aa(lp653
(S'I'
g33
tp654
a(S'do'
g174
tp655
a(S'a'
g20
tp656
a(S'quick'
g43
tp657
a(S'head'
g10
tp658
a(S'count'
g10
tp659
a(S'of'
g23
tp660
a(S'the'
g14
tp661
a(S'place'
g10
tp662
a(S'and'
g41
tp663
a(S'I'
g33
tp664
a(S'am'
g179
tp665
a(S'by'
S'IN'
p666
tp667
a(S'no'
g78
tp668
a(S'means'
g98
tp669
a(S'a'
g20
tp670
a(S'math'
g10
tp671
a(S'guru'
g10
tp672
a(S'or'
g81
tp673
a(S'anything'
S'NN'
p674
tp675
a(S'BUT'
g76
tp676
a(S'it'
g65
tp677
a(S'sure'
g83
tp678
a(S'seemed'
g12
tp679
a(S'like'
g76
tp680
a(S'there'
S'EX'
p681
tp682
a(S'was'
g12
tp683
a(S'easily'
S'RB'
p684
tp685
a(S'over'
g76
tp686
a(S'100'
S'CD'
p687
tp688
a(S'people'
g550
tp689
a(S'in'
g53
tp690
a(S'the'
g14
tp691
a(S'place'
g10
tp692
a(S','
S','
tp693
a(S'and'
g41
tp694
a(S'by'
g666
tp695
a(S'the'
g14
tp696
a(S'line'
S'NN'
p697
tp698
a(S'in'
g53
tp699
a(S'the'
g14
tp700
a(S"men's"
g10
tp701
a(S'bathroom'
g10
tp702
a(S'I'
g33
tp703
a(S'honestly'
g83
tp704
a(S'felt'
g12
tp705
a(S'they'
S'PRP'
p706
tp707
a(S'should'
S'MD'
p708
tp709
a(S'not'
g111
tp710
a(S'could'
g87
tp711
a(S'not'
g111
tp712
a(S'allow'
g208
tp713
a(S'too'
g60
tp714
a(S'many'
S'JJ'
p715
tp716
a(S'more'
g166
tp717
a(S'guys'
g5
tp718
a(S'into'
g216
tp719
a(S'this'
g184
tp720
a(S'place'
g10
tp721
a(S'without'
S'IN'
p722
tp723
a(S'calling'
S'VBG'
p724
tp725
a(S'the'
g14
tp726
a(S'fire'
g10
tp727
a(S'department'
S'NN'
p728
tp729
a(S'!'
S'.'
tp730
aa(lp731
(S'I'
g33
tp732
a(S'also'
g240
tp733
a(S'got'
g12
tp734
a(S'a'
g20
tp735
a(S'vegetable'
g43
tp736
a(S'plate'
g10
tp737
a(S'which'
g101
tp738
a(S'was'
g12
tp739
a(S'also'
g240
tp740
a(S'very'
g83
tp741
a(S'good'
g43
tp742
a(S'.'
S'.'
tp743
aa(lp744
(S'This'
g222
tp745
a(S'was'
g12
tp746
a(S'a'
g20
tp747
a(S'huge'
g511
tp748
a(S'portion'
S'NN'
p749
tp750
a(S'of'
g23
tp751
a(S'meat'
g10
tp752
a(S'and'
g41
tp753
a(S'rice'
g10
tp754
a(S'!'
S'.'
tp755
aa(lp756
(S'They'
g205
tp757
a(S'simply'
S'RB'
p758
tp759
a(S'remove'
g208
tp760
a(S'the'
g14
tp761
a(S'meat'
g10
tp762
a(S'from'
g370
tp763
a(S'the'
g14
tp764
a(S'burrito'
g43
tp765
a(S'equation'
g10
tp766
a(S','
S','
tp767
a(S'leaving'
g374
tp768
a(S'it'
g65
tp769
a(S'unbalanced'
g43
tp770
a(S'and'
g41
tp771
a(S'incomplete'
g43
tp772
a(S'.'
S'.'
tp773
aa(lp774
(S'Pad'
g126
tp775
a(S'Thai'
g126
tp776
a(S'Tea'
g126
tp777
a(S'Leaf'
g126
tp778
a(S'Salad'
g126
tp779
a(S'Vegetarian'
g126
tp780
a(S'soup'
g98
tp781
a(S'Other'
S'JJ'
p782
tp783
a(S'noodle'
g43
tp784
a(S'dish'
g10
tp785
a(S'('
S'('
tp786
a(S'served'
g12
tp787
a(S'cold'
g10
tp788
a(S')'
S')'
tp789
a(S'that'
g76
tp790
a(S'I'
g33
tp791
a(S"can't"
g174
tp792
a(S'remember'
g208
tp793
a(S'the'
g14
tp794
a(S'name'
g10
tp795
a(S'of'
g23
tp796
a(S'Dessert'
g126
tp797
a(S'looked'
g12
tp798
a(S'enticing'
g10
tp799
a(S','
S','
tp800
a(S'but'
g62
tp801
a(S'I'
g33
tp802
a(S'opted'
g12
tp803
a(S'out'
g199
tp804
a(S'since'
S'IN'
p805
tp806
a(S'I'
g33
tp807
a(S'was'
g12
tp808
a(S'so'
g83
tp809
a(S'full'
S'JJ'
p810
tp811
a(S'.'
S'.'
tp812
aa(lp813
(S'I'
g33
tp814
a(S'has'
S'VBZ'
p815
tp816
a(S'the'
g14
tp817
a(S'clam'
g10
tp818
a(S'and'
g41
tp819
a(S'garlic'
g10
tp820
a(S'which'
g101
tp821
a(S'was'
g12
tp822
a(S'so'
g83
tp823
a(S'tasty'
g43
tp824
a(S'!'
S'.'
tp825
aa(lp826
(S'NY'
g126
tp827
a(S'steak'
g10
tp828
a(S'blows'
g5
tp829
a(S'SF'
g126
tp830
a(S'out'
g76
tp831
a(S'of'
g23
tp832
a(S'the'
g14
tp833
a(S'water'
g563
tp834
a(S'.'
S'.'
tp835
aa(lp836
(S'I'
g33
tp837
a(S'LOVE'
g174
tp838
a(S'their'
g569
tp839
a(S'pork'
g10
tp840
a(S'marinated'
g74
tp841
a(S'in'
g53
tp842
a(S'the'
g14
tp843
a(S'spicy'
g10
tp844
a(S'house'
g214
tp845
a(S'sauce'
g10
tp846
a(S'and'
g41
tp847
a(S'they'
g706
tp848
a(S'always'
S'RB'
p849
tp850
a(S'give'
g174
tp851
a(S'you'
g426
tp852
a(S'additional'
S'JJ'
p853
tp854
a(S'dishes'
g5
tp855
a(S'that'
g101
tp856
a(S'are'
g613
tp857
a(S'on'
g201
tp858
a(S'the'
g14
tp859
a(S'house'
g214
tp860
a(S'!'
S'.'
tp861
a(S'.'
S'.'
tp862
aa(lp863
(S'The'
g141
tp864
a(S'prawn'
g10
tp865
a(S'.'
S'.'
tp866
a(S'.'
S'.'
tp867
a(S'.'
S'.'
tp868
a(S'was'
g12
tp869
a(S'it'
g65
tp870
a(S'wrapped'
g12
tp871
a(S'in'
g53
tp872
a(S'bacon'
g10
tp873
a(S'?'
S'.'
tp874
a(S'?'
S'.'
tp875
aa(lp876
(S'The'
g141
tp877
a(S'sauce'
g10
tp878
a(S'makes'
S'VBZ'
p879
tp880
a(S'it'
g65
tp881
a(S'with'
g18
tp882
a(S'a'
g20
tp883
a(S'bit'
g10
tp884
a(S'of'
g23
tp885
a(S'spice'
g10
tp886
a(S'mixed'
g74
tp887
a(S'with'
g18
tp888
a(S'a'
g20
tp889
a(S'good'
g43
tp890
a(S'amount'
g10
tp891
a(S'of'
g23
tp892
a(S'sweetness'
g10
tp893
a(S'.'
S'.'
tp894
aa(lp895
(S'Everything'
g10
tp896
a(S'was'
g12
tp897
a(S'fresh'
g43
tp898
a(S','
S','
tp899
a(S'tasty'
g43
tp900
a(S'and'
g41
tp901
a(S'just'
g133
tp902
a(S'wonderful'
g43
tp903
a(S'.'
S'.'
tp904
aa(lp905
(S'Here'
S'RB'
p906
tp907
a(S'I'
g33
tp908
a(S'was'
g12
tp909
a(S'blaming'
g374
tp910
a(S'the'
g14
tp911
a(S'glowing'
g374
tp912
a(S'review'
g10
tp913
a(S'I'
g33
tp914
a(S'wrote'
S'VBD'
p915
tp916
a(S'for'
g431
tp917
a(S'his'
S'PRP$'
p918
tp919
a(S'('
S'('
tp920
a(S'and'
g41
tp921
a(S'his'
g918
tp922
a(S"wife's"
g10
tp923
a(S')'
S')'
tp924
a(S'new'
S'JJ'
p925
tp926
a(S'found'
g74
tp927
a(S'popularity'
g10
tp928
a(S'Since'
S'IN'
p929
tp930
a(S'I'
g33
tp931
a(S'have'
g174
tp932
a(S'been'
S'VBN'
p933
tp934
a(S'going'
S'VBG'
p935
tp936
a(S'here'
S'RB'
p937
tp938
a(S'over'
g76
tp939
a(S'the'
g14
tp940
a(S'last'
S'JJ'
p941
tp942
a(S'three'
S'CD'
p943
tp944
a(S'months'
S'NNS'
p945
tp946
a(S'or'
g81
tp947
a(S'so'
g83
tp948
a(S'the'
g14
tp949
a(S'line'
g697
tp950
a(S'has'
g815
tp951
a(S'grown'
g74
tp952
a(S'from'
g370
tp953
a(S'a'
g20
tp954
a(S'five'
S'CD'
p955
tp956
a(S'minute'
g10
tp957
a(S'wait'
g10
tp958
a(S'to'
g70
tp959
a(S'anything'
g674
tp960
a(S'up'
g199
tp961
a(S'to'
g70
tp962
a(S'thirty'
g208
tp963
a(S'minutes'
S'NNS'
p964
tp965
a(S'!'
S'.'
tp966
aa(lp967
(S'The'
g141
tp968
a(S'decor'
g10
tp969
a(S'ambiance'
g10
tp970
a(S'was'
g12
tp971
a(S'quite'
g83
tp972
a(S'nice'
g43
tp973
a(S','
S','
tp974
a(S'neo'
g43
tp975
a(S'classical'
g43
tp976
a(S'Indian'
g10
tp977
a(S'with'
g18
tp978
a(S'large'
S'JJ'
p979
tp980
a(S'columns'
g5
tp981
a(S'.'
S'.'
tp982
aa(lp983
(S'of'
g23
tp984
a(S'clams'
g5
tp985
a(S','
S','
tp986
a(S'the'
g14
tp987
a(S'house'
g214
tp988
a(S'noodles'
g5
tp989
a(S','
S','
tp990
a(S'fried'
g12
tp991
a(S'calamari'
g10
tp992
a(S','
S','
tp993
a(S'and'
g41
tp994
a(S'sweet'
g43
tp995
a(S'potato'
g10
tp996
a(S'fries'
g5
tp997
a(S'.'
S'.'
tp998
aa(lp999
(S'My'
g484
tp1000
a(S'husband'
g10
tp1001
a(S'also'
g240
tp1002
a(S'got'
g12
tp1003
a(S'a'
g20
tp1004
a(S'sausage'
g10
tp1005
a(S'sandwich'
g10
tp1006
a(S'.'
S'.'
tp1007
aa(lp1008
(S'Everything'
g10
tp1009
a(S'is'
g103
tp1010
a(S'fresh'
g43
tp1011
a(S'and'
g41
tp1012
a(S'just'
g133
tp1013
a(S'so'
g83
tp1014
a(S'damn'
g43
tp1015
a(S'tasty'
g10
tp1016
a(S'!'
S'.'
tp1017
aa(lp1018
(S'Basically'
g83
tp1019
a(S'they'
g706
tp1020
a(S'let'
g174
tp1021
a(S'it'
g65
tp1022
a(S'rot'
g208
tp1023
a(S'to'
g70
tp1024
a(S'make'
g208
tp1025
a(S'it'
g65
tp1026
a(S'oh'
g65
tp1027
a(S'so'
g83
tp1028
a(S'tender'
g10
tp1029
a(S'.'
S'.'
tp1030
aa(lp1031
(S'Perfect'
g126
tp1032
a(S'level'
g10
tp1033
a(S'of'
g23
tp1034
a(S'heat'
g10
tp1035
a(S'and'
g41
tp1036
a(S'flavors'
g5
tp1037
a(S'with'
g18
tp1038
a(S'just'
g133
tp1039
a(S'the'
g14
tp1040
a(S'right'
g43
tp1041
a(S'amount'
g10
tp1042
a(S'of'
g23
tp1043
a(S'beef'
g10
tp1044
a(S'and'
g41
tp1045
a(S'noodles'
g5
tp1046
a(S'.'
S'.'
tp1047
aa(lp1048
(S'I'
g33
tp1049
a(S'love'
g174
tp1050
a(S'the'
g14
tp1051
a(S'Potesto'
g126
tp1052
a(S','
S','
tp1053
a(S'Scalino'
g126
tp1054
a(S','
S','
tp1055
a(S'Da'
g126
tp1056
a(S"Vinci's"
g126
tp1057
a(S'Palette'
g126
tp1058
a(S','
S','
tp1059
a(S'garden'
g10
tp1060
a(S'salads'
g5
tp1061
a(S'.'
S'.'
tp1062
aa(lp1063
(S'Lucky'
g126
tp1064
a(S'for'
g431
tp1065
a(S'us'
g386
tp1066
a(S'it'
g65
tp1067
a(S'was'
g12
tp1068
a(S'dirt'
g74
tp1069
a(S'cheap'
g43
tp1070
a(S'and'
g41
tp1071
a(S'we'
g361
tp1072
a(S'ordered'
g12
tp1073
a(S'a'
g20
tp1074
a(S'small'
g531
tp1075
a(S'feast'
g10
tp1076
a(S'.'
S'.'
tp1077
aa(lp1078
(S'I'
g33
tp1079
a(S'really'
g45
tp1080
a(S'like'
g76
tp1081
a(S'the'
g14
tp1082
a(S'braised'
g43
tp1083
a(S'lamb'
g10
tp1084
a(S'shank'
g10
tp1085
a(S'.'
S'.'
tp1086
aa(lp1087
(S'Written'
g74
tp1088
a(S'on'
g201
tp1089
a(S'the'
g14
tp1090
a(S'plate'
g10
tp1091
a(S'in'
g53
tp1092
a(S'chocolate'
g10
tp1093
a(S'was'
g12
tp1094
a(S'Happy'
g43
tp1095
a(S'Anniversary'
g126
tp1096
a(S'with'
g18
tp1097
a(S'a'
g20
tp1098
a(S'sizzling'
g374
tp1099
a(S'candle'
g10
tp1100
a(S'to'
g70
tp1101
a(S'blow'
g208
tp1102
a(S'out'
g199
tp1103
a(S'!'
S'.'
tp1104
aa(lp1105
(S'A'
g78
tp1106
a(S'must'
g521
tp1107
a(S'visit'
g208
tp1108
a(S'place'
g10
tp1109
a(S'for'
g431
tp1110
a(S'good'
g43
tp1111
a(S'home'
g10
tp1112
a(S'style'
S'NN'
p1113
tp1114
a(S'Korean'
g43
tp1115
a(S'cooking'
g10
tp1116
a(S'.'
S'.'
tp1117
aa(lp1118
(S'The'
g141
tp1119
a(S'best'
g106
tp1120
a(S'pizza'
g10
tp1121
a(S'ever'
S'RB'
p1122
tp1123
a(S'!'
S'.'
tp1124
a(S'!'
S'.'
tp1125
aa(lp1126
(S'Sure'
g43
tp1127
a(S"I'll"
g126
tp1128
a(S'eat'
g10
tp1129
a(S'the'
g14
tp1130
a(S'bits'
g5
tp1131
a(S'with'
g18
tp1132
a(S'sauce'
g10
tp1133
a(S'on'
g201
tp1134
a(S'.'
S'.'
tp1135
aa(lp1136
(S"I'd"
g126
tp1137
a(S'compare'
g174
tp1138
a(S'it'
g65
tp1139
a(S'to'
g70
tp1140
a(S'the'
g14
tp1141
a(S'first'
g43
tp1142
a(S'lentil'
g10
tp1143
a(S'soup'
g10
tp1144
a(S'I'
g33
tp1145
a(S'ever'
g1122
tp1146
a(S'loved'
g12
tp1147
a(S','
S','
tp1148
a(S'namely'
g83
tp1149
a(S'my'
g8
tp1150
a(S"mother's"
g10
tp1151
a(S','
S','
tp1152
a(S'but'
g62
tp1153
a(S'they'
g706
tp1154
a(S'are'
g613
tp1155
a(S'so'
g83
tp1156
a(S'different'
S'JJ'
p1157
tp1158
a(S'you'
g426
tp1159
a(S"couldn't"
g174
tp1160
a(S'really'
g45
tp1161
a(S'compare'
g208
tp1162
a(S'them'
g339
tp1163
a(S'.'
S'.'
tp1164
aa(lp1165
(S'The'
g141
tp1166
a(S'good'
g43
tp1167
a(S'part'
g108
tp1168
a(S'about'
g76
tp1169
a(S'eating'
g374
tp1170
a(S'them'
g339
tp1171
a(S'all'
g78
tp1172
a(S'was'
g12
tp1173
a(S'that'
g76
tp1174
a(S'my'
g8
tp1175
a(S'main'
S'JJ'
p1176
tp1177
a(S'entree'
g10
tp1178
a(S'was'
g12
tp1179
a(S'quite'
g83
tp1180
a(S'small'
g531
tp1181
a(S'.'
S'.'
tp1182
aa(lp1183
(S'its'
g484
tp1184
a(S'just'
g133
tp1185
a(S'cold'
g74
tp1186
a(S'and'
g41
tp1187
a(S'hard'
g83
tp1188
a(S'in'
g53
tp1189
a(S'my'
g8
tp1190
a(S'mouth'
g10
tp1191
a(S','
S','
tp1192
a(S'and'
g41
tp1193
a(S'the'
g14
tp1194
a(S'strawberries'
g5
tp1195
a(S'being'
S'VBG'
p1196
tp1197
a(S'socked'
g74
tp1198
a(S'in'
g53
tp1199
a(S'a'
g20
tp1200
a(S'sweet'
g43
tp1201
a(S'sago'
g43
tp1202
a(S'juice'
g10
tp1203
a(S'becomes'
g98
tp1204
a(S'sour'
g43
tp1205
a(S'.'
S'.'
tp1206
aa(lp1207
(S'We'
g233
tp1208
a(S'ordered'
g12
tp1209
a(S'the'
g14
tp1210
a(S'tortilla'
g10
tp1211
a(S'soup'
g10
tp1212
a(S','
S','
tp1213
a(S'which'
g101
tp1214
a(S'I'
g33
tp1215
a(S'imagined'
g12
tp1216
a(S'would'
S'MD'
p1217
tp1218
a(S'have'
g208
tp1219
a(S'been'
g933
tp1220
a(S'criticized'
g74
tp1221
a(S'for'
g431
tp1222
a(S'being'
g1196
tp1223
a(S'too'
g60
tp1224
a(S'spicy'
g83
tp1225
a(S'if'
g359
tp1226
a(S'prepared'
g74
tp1227
a(S'on'
g201
tp1228
a(S'one'
g29
tp1229
a(S'of'
g23
tp1230
a(S'those'
S'DT'
p1231
tp1232
a(S'chef'
g43
tp1233
a(S'reality'
g10
tp1234
a(S'TV'
g10
tp1235
a(S'shows'
g5
tp1236
a(S','
S','
tp1237
a(S'but'
g62
tp1238
a(S'I'
g33
tp1239
a(S'judging'
g374
tp1240
a(S'from'
g370
tp1241
a(S'my'
g8
tp1242
a(S'trips'
g5
tp1243
a(S'to'
g70
tp1244
a(S'Mexico'
S'NNP'
p1245
tp1246
a(S','
S','
tp1247
a(S'the'
g14
tp1248
a(S'flavor'
g10
tp1249
a(S'was'
g12
tp1250
a(S'pretty'
g83
tp1251
a(S'authentic'
g43
tp1252
a(S'.'
S'.'
tp1253
aa(lp1254
(S'Something'
g374
tp1255
a(S'about'
g76
tp1256
a(S'the'
g14
tp1257
a(S'density'
g10
tp1258
a(S'and'
g41
tp1259
a(S'texture'
g10
tp1260
a(S'of'
g23
tp1261
a(S'mushroom'
g10
tp1262
a(S'in'
g53
tp1263
a(S'flan'
g43
tp1264
a(S'form'
g10
tp1265
a(S'really'
g45
tp1266
a(S'accentuates'
g98
tp1267
a(S'the'
g14
tp1268
a(S'flavor'
g10
tp1269
a(S','
S','
tp1270
a(S'and'
g41
tp1271
a(S'the'
g14
tp1272
a(S'sommelier'
g10
tp1273
a(S'smartly'
g83
tp1274
a(S'matched'
g12
tp1275
a(S'his'
g918
tp1276
a(S'wine'
g10
tp1277
a(S'to'
g70
tp1278
a(S'the'
g14
tp1279
a(S'porcini'
g10
tp1280
a(S','
S','
tp1281
a(S'a'
g20
tp1282
a(S'complete'
g43
tp1283
a(S'flash'
g10
tp1284
a(S'of'
g23
tp1285
a(S'genius'
g10
tp1286
a(S'.'
S'.'
tp1287
aa(lp1288
(S'I'
g33
tp1289
a(S'offer'
g174
tp1290
a(S'for'
g431
tp1291
a(S'your'
g433
tp1292
a(S'consideration'
g10
tp1293
a(S'Black'
g126
tp1294
a(S'tiger'
g10
tp1295
a(S'prawns'
g5
tp1296
a(S'in'
g53
tp1297
a(S'shredded'
g43
tp1298
a(S'phyllo'
g10
tp1299
a(S','
S','
tp1300
a(S'deep'
g43
tp1301
a(S'fried'
g12
tp1302
a(S','
S','
tp1303
a(S'with'
g18
tp1304
a(S'tomato'
g43
tp1305
a(S'amp'
g10
tp1306
a(S';'
S':'
tp1307
a(S'onion'
g10
tp1308
a(S'marmalade'
g10
tp1309
a(S','
S','
tp1310
a(S'small'
g531
tp1311
a(S'beans'
g5
tp1312
a(S','
S','
tp1313
a(S'and'
g41
tp1314
a(S'herb'
g10
tp1315
a(S'aioli'
g10
tp1316
a(S'.'
S'.'
tp1317
aa(lp1318
(S'Fresh'
g43
tp1319
a(S'crab'
g10
tp1320
a(S'deep'
g43
tp1321
a(S'fried'
g74
tp1322
a(S'with'
g18
tp1323
a(S'Chinese'
g126
tp1324
a(S'salted'
g12
tp1325
a(S'egg'
g10
tp1326
a(S'yolk'
g83
tp1327
a(S'batter'
g10
tp1328
a(S')'
S')'
tp1329
a(S'.'
S'.'
tp1330
aa(lp1331
(S'We'
g233
tp1332
a(S'also'
g240
tp1333
a(S'had'
g12
tp1334
a(S'a'
g20
tp1335
a(S'warm'
g43
tp1336
a(S'antipasti'
g10
tp1337
a(S'of'
g23
tp1338
a(S'bruschetta'
g10
tp1339
a(S'w'
g43
tp1340
a(S'duck'
g10
tp1341
a(S'mousse'
g10
tp1342
a(S'and'
g41
tp1343
a(S'fig'
g10
tp1344
a(S','
S','
tp1345
a(S'warm'
g43
tp1346
a(S'bean'
g10
tp1347
a(S'salad'
g10
tp1348
a(S'('
S'('
tp1349
a(S'yum'
g419
tp1350
a(S'!'
S'.'
tp1351
aa(lp1352
(S'I'
g33
tp1353
a(S'tried'
g12
tp1354
a(S'three'
g943
tp1355
a(S'different'
g1157
tp1356
a(S'curries'
g5
tp1357
a(S','
S','
tp1358
a(S'three'
g943
tp1359
a(S'different'
g1157
tp1360
a(S'naans'
g5
tp1361
a(S','
S','
tp1362
a(S'BBQ'
g126
tp1363
a(S'and'
g41
tp1364
a(S'grilled'
g12
tp1365
a(S'meats'
g5
tp1366
a(S'.'
S'.'
tp1367
aa(lp1368
(S'I'
g33
tp1369
a(S'ordered'
g12
tp1370
a(S'the'
g14
tp1371
a(S'Santa'
S'NNP'
p1372
tp1373
a(S'Fe'
S'NNP'
p1374
tp1375
a(S'carne'
g10
tp1376
a(S'asada'
g10
tp1377
a(S'salad'
g10
tp1378
a(S','
S','
tp1379
a(S'and'
g41
tp1380
a(S'you'
g426
tp1381
a(S'fellow'
g174
tp1382
a(S'Yelpers'
g5
tp1383
a(S'did'
S'VBD'
p1384
tp1385
a(S'not'
g111
tp1386
a(S'disappointment'
g208
tp1387
a(S'me'
S'PRP'
p1388
tp1389
a(S'at'
g317
tp1390
a(S'all'
g78
tp1391
a(S'.'
S'.'
tp1392
aa(lp1393
(S'For'
g3
tp1394
a(S'an'
g78
tp1395
a(S'appetizer'
g10
tp1396
a(S'i'
g10
tp1397
a(S'had'
g12
tp1398
a(S'the'
g14
tp1399
a(S'escargots'
g5
tp1400
a(S'in'
g53
tp1401
a(S'garlic'
g43
tp1402
a(S'parsley'
g10
tp1403
a(S'butter'
g10
tp1404
a(S'which'
g101
tp1405
a(S'was'
g12
tp1406
a(S'delicious'
g43
tp1407
a(S','
S','
tp1408
a(S'although'
S'IN'
p1409
tp1410
a(S'I'
g33
tp1411
a(S'was'
g12
tp1412
a(S'a'
g20
tp1413
a(S'little'
g43
tp1414
a(S'hasty'
g10
tp1415
a(S'in'
g53
tp1416
a(S'shoving'
g374
tp1417
a(S'the'
g14
tp1418
a(S'first'
g43
tp1419
a(S'one'
g10
tp1420
a(S'in'
g53
tp1421
a(S'my'
g8
tp1422
a(S'mouth'
g10
tp1423
a(S','
S','
tp1424
a(S'so'
g76
tp1425
a(S'I'
g33
tp1426
a(S'burnt'
g174
tp1427
a(S'my'
g8
tp1428
a(S'tongue'
g10
tp1429
a(S'('
S'('
tp1430
a(S'it'
g65
tp1431
a(S'was'
g12
tp1432
a(S'really'
g45
tp1433
a(S'freaking'
g43
tp1434
a(S'HOT'
g126
tp1435
a(S'!'
S'.'
tp1436
a(S')'
S')'
tp1437
a(S'.'
S'.'
tp1438
aa(lp1439
(S'I'
g33
tp1440
a(S'think'
g174
tp1441
a(S'this'
g184
tp1442
a(S'is'
g103
tp1443
a(S'a'
g20
tp1444
a(S'great'
g58
tp1445
a(S'little'
g43
tp1446
a(S'place'
g10
tp1447
a(S'for'
g431
tp1448
a(S'pizza'
g10
tp1449
a(S'.'
S'.'
tp1450
aa(lp1451
(S'The'
g141
tp1452
a(S'pineapple'
g43
tp1453
a(S'rice'
g10
tp1454
a(S'was'
g12
tp1455
a(S'moist'
g43
tp1456
a(S'and'
g41
tp1457
a(S'flavorful'
g43
tp1458
a(S'with'
g18
tp1459
a(S'abundant'
g43
tp1460
a(S'white'
g159
tp1461
a(S'meat'
g10
tp1462
a(S'chicken'
g10
tp1463
a(S'and'
g41
tp1464
a(S'pineapple'
g10
tp1465
a(S'.'
S'.'
tp1466
aa(lp1467
(S'The'
g141
tp1468
a(S'restaurant'
g10
tp1469
a(S'had'
g12
tp1470
a(S'a'
g20
tp1471
a(S'nice'
g43
tp1472
a(S'cozy'
g10
tp1473
a(S'feel'
g10
tp1474
a(S'to'
g70
tp1475
a(S'it'
g65
tp1476
a(S'.'
S'.'
tp1477
a(S'.'
S'.'
tp1478
a(S'.'
S'.'
tp1479
a(S'well'
g83
tp1480
a(S'either'
S'CC'
p1481
tp1482
a(S'that'
g76
tp1483
a(S'or'
g81
tp1484
a(S'the'
g14
tp1485
a(S'place'
g10
tp1486
a(S'is'
g103
tp1487
a(S'really'
g45
tp1488
a(S'really'
g45
tp1489
a(S'small'
g531
tp1490
a(S'.'
S'.'
tp1491
aa(lp1492
(S'The'
g141
tp1493
a(S'closest'
g106
tp1494
a(S'to'
g70
tp1495
a(S'my'
g8
tp1496
a(S'loved'
g74
tp1497
a(S'and'
g41
tp1498
a(S'dearly'
g83
tp1499
a(S'missed'
g43
tp1500
a(S'slice'
g10
tp1501
a(S'of'
g23
tp1502
a(S'NYC'
g126
tp1503
a(S'pizza'
g10
tp1504
a(S'.'
S'.'
tp1505
aa(lp1506
(S'I'
g33
tp1507
a(S'ordered'
g12
tp1508
a(S'from'
g370
tp1509
a(S'their'
g569
tp1510
a(S'regular'
g43
tp1511
a(S'menu'
g10
tp1512
a(S','
S','
tp1513
a(S'my'
g8
tp1514
a(S'wife'
S'NN'
p1515
tp1516
a(S'had'
g12
tp1517
a(S'stuff'
g74
tp1518
a(S'from'
g370
tp1519
a(S'the'
g14
tp1520
a(S'Dine'
g126
tp1521
a(S'About'
g76
tp1522
a(S'Town'
g126
tp1523
a(S'menu'
g10
tp1524
a(S'.'
S'.'
tp1525
aa(lp1526
(S'That'
g78
tp1527
a(S'was'
g12
tp1528
a(S'the'
g14
tp1529
a(S'best'
g106
tp1530
a(S'pepper'
g10
tp1531
a(S'mill'
g10
tp1532
a(S'I'
g33
tp1533
a(S'have'
g174
tp1534
a(S'ever'
g1122
tp1535
a(S'used'
g74
tp1536
a(S'.'
S'.'
tp1537
aa(lp1538
(S'We'
g233
tp1539
a(S'ordered'
g12
tp1540
a(S'the'
g14
tp1541
a(S'kumamoto'
g10
tp1542
a(S'oysters'
g98
tp1543
a(S'shooters'
g5
tp1544
a(S'with'
g18
tp1545
a(S'sherry'
g43
tp1546
a(S'black'
S'JJ'
p1547
tp1548
a(S'peppercorn'
g10
tp1549
a(S'granita'
g10
tp1550
a(S','
S','
tp1551
a(S'spicy'
g10
tp1552
a(S'fritto'
g10
tp1553
a(S'misto'
g10
tp1554
a(S'of'
g23
tp1555
a(S'calamari'
g10
tp1556
a(S','
S','
tp1557
a(S'rock'
g10
tp1558
a(S'shrimp'
g10
tp1559
a(S','
S','
tp1560
a(S'eggplant'
g43
tp1561
a(S'amp'
g10
tp1562
a(S';'
S':'
tp1563
a(S'zucchini'
g1481
tp1564
a(S'with'
g18
tp1565
a(S'delicious'
g43
tp1566
a(S'sriracha'
g5
tp1567
a(S'aioli'
g174
tp1568
a(S'to'
g70
tp1569
a(S'dip'
g208
tp1570
a(S'it'
g65
tp1571
a(S'in'
g53
tp1572
a(S','
S','
tp1573
a(S'and'
g41
tp1574
a(S'split'
g12
tp1575
a(S'a'
g20
tp1576
a(S'smoked'
g43
tp1577
a(S'chicken'
g10
tp1578
a(S'salad'
g10
tp1579
a(S'with'
g18
tp1580
a(S'bloomsdale'
g43
tp1581
a(S'spinach'
g10
tp1582
a(S','
S','
tp1583
a(S'english'
g43
tp1584
a(S'cucumber'
g10
tp1585
a(S','
S','
tp1586
a(S'fennel'
g10
tp1587
a(S','
S','
tp1588
a(S'and'
g41
tp1589
a(S'avocado'
g43
tp1590
a(S'plus'
g1481
tp1591
a(S'a'
g20
tp1592
a(S'glass'
g10
tp1593
a(S'of'
g23
tp1594
a(S'wine'
g10
tp1595
a(S'.'
S'.'
tp1596
aa(lp1597
(S'Morning'
g374
tp1598
a(S'coffee'
g10
tp1599
a(S'is'
g103
tp1600
a(S'pretty'
g83
tp1601
a(S'good'
g43
tp1602
a(S'.'
S'.'
tp1603
aa(lp1604
(S'Slices'
g5
tp1605
a(S'are'
g613
tp1606
a(S'very'
g83
tp1607
a(S'good'
g43
tp1608
a(S'sized'
g74
tp1609
a(S','
S','
tp1610
a(S'served'
g12
tp1611
a(S'hot'
g43
tp1612
a(S'and'
g41
tp1613
a(S'taste'
g10
tp1614
a(S'great'
g58
tp1615
a(S'.'
S'.'
tp1616
aa(lp1617
(S'did'
g1384
tp1618
a(S'i'
g208
tp1619
a(S'mention'
g10
tp1620
a(S"there's"
g10
tp1621
a(S'meat'
g10
tp1622
a(S'here'
g937
tp1623
a(S'?'
S'.'
tp1624
aa(lp1625
(S'Rumble'
g43
tp1626
a(S'Fish'
g10
tp1627
a(S'is'
g103
tp1628
a(S'my'
g8
tp1629
a(S'favorite'
g43
tp1630
a(S'Japanese'
g43
tp1631
a(S'restaurant'
g10
tp1632
a(S'in'
g53
tp1633
a(S'the'
g14
tp1634
a(S'city'
S'NN'
p1635
tp1636
a(S'.'
S'.'
tp1637
aa(lp1638
(S'One'
g29
tp1639
a(S'order'
g35
tp1640
a(S'is'
g103
tp1641
a(S'enough'
g43
tp1642
a(S'for'
g431
tp1643
a(S'two'
S'CD'
p1644
tp1645
a(S'to'
g70
tp1646
a(S'share'
g536
tp1647
a(S','
S','
tp1648
a(S'unless'
S'IN'
p1649
tp1650
a(S"you're"
g43
tp1651
a(S'one'
g29
tp1652
a(S'of'
g23
tp1653
a(S'those'
g1231
tp1654
a(S'who'
g383
tp1655
a(S'has'
g815
tp1656
a(S'a'
g20
tp1657
a(S'major'
S'JJ'
p1658
tp1659
a(S'sweet'
g43
tp1660
a(S'tooth'
g10
tp1661
a(S'.'
S'.'
tp1662
aa(lp1663
(S'The'
g141
tp1664
a(S'naan'
g43
tp1665
a(S'bread'
g10
tp1666
a(S','
S','
tp1667
a(S'two'
g1644
tp1668
a(S'times'
g5
tp1669
a(S'the'
g14
tp1670
a(S'size'
S'NN'
p1671
tp1672
a(S'of'
g23
tp1673
a(S'my'
g8
tp1674
a(S'face'
g10
tp1675
a(S','
S','
tp1676
a(S'was'
g12
tp1677
a(S'fresh'
g43
tp1678
a(S'from'
g370
tp1679
a(S'the'
g14
tp1680
a(S'oven'
g10
tp1681
a(S'and'
g41
tp1682
a(S'served'
g12
tp1683
a(S'as'
g76
tp1684
a(S'the'
g14
tp1685
a(S'perfect'
g43
tp1686
a(S'delivery'
S'NN'
p1687
tp1688
a(S'vessel'
g10
tp1689
a(S'for'
g431
tp1690
a(S'the'
g14
tp1691
a(S'curry'
g10
tp1692
a(S'from'
g370
tp1693
a(S'bowl'
g10
tp1694
a(S'to'
g70
tp1695
a(S'mouth'
g208
tp1696
a(S'.'
S'.'
tp1697
aa(lp1698
(S'I'
g33
tp1699
a(S'must'
g521
tp1700
a(S'have'
g208
tp1701
a(S'looked'
g74
tp1702
a(S'like'
g76
tp1703
a(S'a'
g20
tp1704
a(S'newbie'
g10
tp1705
a(S'as'
g76
tp1706
a(S'the'
g14
tp1707
a(S'man'
S'NN'
p1708
tp1709
a(S'making'
g374
tp1710
a(S'the'
g14
tp1711
a(S'pizza'
g10
tp1712
a(S'told'
g12
tp1713
a(S'me'
g1388
tp1714
a(S'to'
g70
tp1715
a(S'go'
g208
tp1716
a(S'with'
g18
tp1717
a(S'the'
g14
tp1718
a(S'plain'
g10
tp1719
a(S'cheese'
g10
tp1720
a(S'for'
g431
tp1721
a(S'the'
g14
tp1722
a(S'first'
g43
tp1723
a(S'time'
g31
tp1724
a(S'.'
S'.'
tp1725
aa(lp1726
(S'They'
g205
tp1727
a(S'were'
g327
tp1728
a(S'playing'
g374
tp1729
a(S'music'
S'NN'
p1730
tp1731
a(S'in'
g53
tp1732
a(S'Spanish'
g43
tp1733
a(S'and'
g41
tp1734
a(S'I'
g33
tp1735
a(S'was'
g12
tp1736
a(S'all'
g78
tp1737
a(S'over'
g76
tp1738
a(S'that'
g78
tp1739
a(S'.'
S'.'
tp1740
aa(lp1741
(S'2'
g548
tp1742
a(S'.'
S'.'
tp1743
a(S'95'
g29
tp1744
a(S'for'
g431
tp1745
a(S'a'
g20
tp1746
a(S'large'
g979
tp1747
a(S'turkey'
g10
tp1748
a(S'sausage'
g10
tp1749
a(S'gumbo'
g10
tp1750
a(S'at'
g317
tp1751
a(S'10'
S'CD'
p1752
tp1753
a(S'am'
g179
tp1754
a(S'.'
S'.'
tp1755
aa(lp1756
(S'I'
g33
tp1757
a(S'think'
g174
tp1758
a(S'I'
g33
tp1759
a(S'got'
g12
tp1760
a(S'the'
g14
tp1761
a(S'pepperoni'
g43
tp1762
a(S'slice'
g10
tp1763
a(S'but'
g62
tp1764
a(S'there'
g681
tp1765
a(S'was'
g12
tp1766
a(S'something'
g68
tp1767
a(S'special'
g43
tp1768
a(S'about'
g76
tp1769
a(S'that'
g78
tp1770
a(S'pizza'
g10
tp1771
a(S'.'
S'.'
tp1772
aa(lp1773
(S"It's"
g126
tp1774
a(S'spacious'
g43
tp1775
a(S','
S','
tp1776
a(S'quiet'
g43
tp1777
a(S','
S','
tp1778
a(S'not'
g111
tp1779
a(S'over'
g76
tp1780
a(S'crowded'
g74
tp1781
a(S','
S','
tp1782
a(S'and'
g41
tp1783
a(S'has'
g815
tp1784
a(S'heat'
g10
tp1785
a(S'lamps'
g5
tp1786
a(S'!'
S'.'
tp1787
aa(lp1788
(S'And'
S'CC'
p1789
tp1790
a(S'the'
g14
tp1791
a(S'pork'
g10
tp1792
a(S'chop'
g10
tp1793
a(S'was'
g12
tp1794
a(S'heavenly'
g83
tp1795
a(S'.'
S'.'
tp1796
aa(lp1797
(S'Arinell'
g126
tp1798
a(S'has'
g815
tp1799
a(S'ruined'
g74
tp1800
a(S'me'
g1388
tp1801
a(S','
S','
tp1802
a(S'now'
S'RB'
p1803
tp1804
a(S'I'
g33
tp1805
a(S'am'
g179
tp1806
a(S'a'
g20
tp1807
a(S'closet'
g10
tp1808
a(S'pizza'
g10
tp1809
a(S'snob'
g10
tp1810
a(S'.'
S'.'
tp1811
aa(lp1812
(S'I'
g33
tp1813
a(S'grabbed'
g12
tp1814
a(S'a'
g20
tp1815
a(S'soy'
g43
tp1816
a(S'milk'
g10
tp1817
a(S'('
S'('
tp1818
a(S'which'
g101
tp1819
a(S'was'
g12
tp1820
a(S'cheaper'
g166
tp1821
a(S'here'
g937
tp1822
a(S'than'
g576
tp1823
a(S'at'
g317
tp1824
a(S'another'
S'DT'
p1825
tp1826
a(S'store'
g10
tp1827
a(S'3'
g29
tp1828
a(S'blocks'
g5
tp1829
a(S'away'
g83
tp1830
a(S')'
S')'
tp1831
a(S'and'
g41
tp1832
a(S'the'
g14
tp1833
a(S'man'
g1708
tp1834
a(S'who'
g383
tp1835
a(S'I'
g33
tp1836
a(S'assumed'
g12
tp1837
a(S'was'
g12
tp1838
a(S'John'
S'NNP'
p1839
tp1840
a(S'seemed'
g12
tp1841
a(S'really'
g45
tp1842
a(S'nice'
g43
tp1843
a(S'.'
S'.'
tp1844
aa(lp1845
(S'you'
g426
tp1846
a(S'want'
g174
tp1847
a(S'Hunan'
g43
tp1848
a(S'spicy'
g10
tp1849
a(S'.'
S'.'
tp1850
aa(lp1851
(S'We'
g233
tp1852
a(S'also'
g240
tp1853
a(S'ordered'
g12
tp1854
a(S'tuna'
g43
tp1855
a(S'tartar'
g10
tp1856
a(S','
S','
tp1857
a(S'asparagus'
g10
tp1858
a(S','
S','
tp1859
a(S'fried'
g12
tp1860
a(S'artichoke'
g10
tp1861
a(S'hearts'
g5
tp1862
a(S','
S','
tp1863
a(S'pesto'
g10
tp1864
a(S'pizzette'
g10
tp1865
a(S','
S','
tp1866
a(S'beef'
g10
tp1867
a(S'sliders'
g5
tp1868
a(S','
S','
tp1869
a(S'lamb'
g10
tp1870
a(S'meatballs'
g5
tp1871
a(S'and'
g41
tp1872
a(S'bread'
g43
tp1873
a(S'pudding'
g10
tp1874
a(S'.'
S'.'
tp1875
aa(lp1876
(S'We'
g233
tp1877
a(S'roast'
g174
tp1878
a(S'our'
S'PRP$'
p1879
tp1880
a(S'own'
g43
tp1881
a(S'beans'
g5
tp1882
a(S'and'
g41
tp1883
a(S'go'
g208
tp1884
a(S'to'
g70
tp1885
a(S'great'
g58
tp1886
a(S'lengths'
g5
tp1887
a(S'to'
g70
tp1888
a(S'make'
g208
tp1889
a(S'the'
g14
tp1890
a(S'perfect'
g43
tp1891
a(S'coffee'
g10
tp1892
a(S'so'
g83
tp1893
a(S'finding'
g374
tp1894
a(S'a'
g20
tp1895
a(S'cafe'
g10
tp1896
a(S'that'
g101
tp1897
a(S'meets'
g98
tp1898
a(S'our'
g1879
tp1899
a(S'expectations'
S'NNS'
p1900
tp1901
a(S'is'
g103
tp1902
a(S'rare'
g43
tp1903
a(S'.'
S'.'
tp1904
aa(lp1905
(S'Now'
S'RB'
p1906
tp1907
a(S','
S','
tp1908
a(S'there'
g681
tp1909
a(S'is'
g103
tp1910
a(S'this'
g184
tp1911
a(S'debate'
g10
tp1912
a(S'over'
g76
tp1913
a(S'Greens'
g126
tp1914
a(S'vs'
g43
tp1915
a(S'Millennium'
g126
tp1916
a(S','
S','
tp1917
a(S'and'
g41
tp1918
a(S'now'
g1803
tp1919
a(S'having'
g266
tp1920
a(S'tried'
g74
tp1921
a(S'both'
g78
tp1922
a(S','
S','
tp1923
a(S'Millennium'
g126
tp1924
a(S'blows'
g98
tp1925
a(S'Greens'
g98
tp1926
a(S'out'
g76
tp1927
a(S'of'
g23
tp1928
a(S'the'
g14
tp1929
a(S'water'
g563
tp1930
a(S'.'
S'.'
tp1931
aa(lp1932
(S'My'
g484
tp1933
a(S'BF'
g126
tp1934
a(S'had'
g12
tp1935
a(S'the'
g14
tp1936
a(S'rice'
g10
tp1937
a(S'pudding'
g10
tp1938
a(S'and'
g41
tp1939
a(S'glazed'
g74
tp1940
a(S'peach'
g10
tp1941
a(S'which'
g101
tp1942
a(S'was'
g12
tp1943
a(S'the'
g14
tp1944
a(S'perfect'
g43
tp1945
a(S'dessert'
g10
tp1946
a(S'to'
g70
tp1947
a(S'have'
g208
tp1948
a(S'along'
g43
tp1949
a(S'side'
g10
tp1950
a(S'the'
g14
tp1951
a(S'chocolate'
g10
tp1952
a(S'cake'
g10
tp1953
a(S'.'
S'.'
tp1954
aa(lp1955
(S'You'
S'PRP'
p1956
tp1957
a(S'can'
S'MD'
p1958
tp1959
a(S'also'
g240
tp1960
a(S'use'
g208
tp1961
a(S'them'
g339
tp1962
a(S'for'
g431
tp1963
a(S'soup'
g10
tp1964
a(S'noodles'
g5
tp1965
a(S'.'
S'.'
tp1966
aa(lp1967
(S'Our'
S'PRP$'
p1968
tp1969
a(S'waitress'
g10
tp1970
a(S'offered'
g74
tp1971
a(S'to'
g70
tp1972
a(S'move'
g208
tp1973
a(S'us'
g386
tp1974
a(S','
S','
tp1975
a(S'but'
g62
tp1976
a(S'I'
g33
tp1977
a(S'think'
g174
tp1978
a(S'management'
S'NN'
p1979
tp1980
a(S'should'
g708
tp1981
a(S'step'
g208
tp1982
a(S'in'
g53
tp1983
a(S'and'
g41
tp1984
a(S'at'
g317
tp1985
a(S'least'
g106
tp1986
a(S'attempt'
g10
tp1987
a(S'to'
g70
tp1988
a(S"'calm'"
g208
tp1989
a(S'the'
g14
tp1990
a(S'boors'
g5
tp1991
a(S'who'
g383
tp1992
a(S'would'
g1217
tp1993
a(S'be'
g72
tp1994
a(S'seen'
g365
tp1995
a(S'as'
g76
tp1996
a(S'disruptive'
g43
tp1997
a(S'at'
g317
tp1998
a(S'Chuck'
g126
tp1999
a(S'E'
g126
tp2000
a(S'.'
S'.'
tp2001
a(S'Cheese'
g126
tp2002
a(S'.'
S'.'
tp2003
aa(lp2004
(S'The'
g141
tp2005
a(S'food'
g194
tp2006
a(S'is'
g103
tp2007
a(S'divine'
g43
tp2008
a(S','
S','
tp2009
a(S'fresh'
g43
tp2010
a(S'.'
S'.'
tp2011
a(S'.'
S'.'
tp2012
a(S'.'
S'.'
tp2013
a(S'literally'
g83
tp2014
a(S'every'
S'DT'
p2015
tp2016
a(S'single'
S'JJ'
p2017
tp2018
a(S'thing'
S'NN'
p2019
tp2020
a(S"I've"
g126
tp2021
a(S'eaten'
g1481
tp2022
a(S'there'
g83
tp2023
a(S','
S','
tp2024
a(S'and'
g41
tp2025
a(S"I've"
g126
tp2026
a(S'been'
g933
tp2027
a(S'a'
g20
tp2028
a(S'bunch'
g10
tp2029
a(S'of'
g23
tp2030
a(S'times'
g5
tp2031
a(S'.'
S'.'
tp2032
aa(lp2033
(S'We'
g233
tp2034
a(S'arrived'
g12
tp2035
a(S'early'
g83
tp2036
a(S'enough'
g43
tp2037
a(S'to'
g70
tp2038
a(S'take'
g208
tp2039
a(S'over'
g199
tp2040
a(S'the'
g14
tp2041
a(S'downstairs'
g5
tp2042
a(S'lounge'
g174
tp2043
a(S'area'
S'NN'
p2044
tp2045
a(S'complete'
g43
tp2046
a(S'with'
g18
tp2047
a(S'comfortable'
g43
tp2048
a(S'couches'
g5
tp2049
a(S'.'
S'.'
tp2050
aa(lp2051
(S'Years'
g5
tp2052
a(S'ago'
g83
tp2053
a(S','
S','
tp2054
a(S'my'
g8
tp2055
a(S'friend'
g10
tp2056
a(S'first'
g83
tp2057
a(S'introduced'
g12
tp2058
a(S'me'
g1388
tp2059
a(S'to'
g70
tp2060
a(S'this'
g184
tp2061
a(S'delicious'
g43
tp2062
a(S'GAI'
g126
tp2063
a(S'BAO'
g126
tp2064
a(S'('
S'('
tp2065
a(S'filled'
g74
tp2066
a(S'with'
g18
tp2067
a(S'chicken'
g10
tp2068
a(S','
S','
tp2069
a(S'shiitake'
g10
tp2070
a(S'mushroom'
g10
tp2071
a(S','
S','
tp2072
a(S'amp'
g10
tp2073
a(S';'
S':'
tp2074
a(S'egg'
g1481
tp2075
a(S'amp'
g174
tp2076
a(S';'
S':'
tp2077
a(S'THEY'
g126
tp2078
a(S'ARE'
g174
tp2079
a(S'HUGE'
g126
tp2080
a(S'!'
S'.'
tp2081
a(S')'
S')'
tp2082
aa(lp2083
(S'Service'
S'NNP'
p2084
tp2085
a(S'took'
S'VBD'
p2086
tp2087
a(S'a'
g20
tp2088
a(S'little'
g43
tp2089
a(S'long'
g43
tp2090
a(S','
S','
tp2091
a(S'but'
g62
tp2092
a(S'that'
g76
tp2093
a(S'might'
S'MD'
p2094
tp2095
a(S'have'
g208
tp2096
a(S'been'
g933
tp2097
a(S'because'
g76
tp2098
a(S'they'
g706
tp2099
a(S'were'
g327
tp2100
a(S'waiting'
g374
tp2101
a(S'on'
g201
tp2102
a(S'my'
g8
tp2103
a(S"friend's"
g43
tp2104
a(S'dish'
g10
tp2105
a(S'to'
g70
tp2106
a(S'come'
g208
tp2107
a(S'out'
g199
tp2108
a(S'('
S'('
tp2109
a(S'she'
S'PRP'
p2110
tp2111
a(S'had'
g12
tp2112
a(S'the'
g14
tp2113
a(S'chicken'
g10
tp2114
a(S'pot'
g10
tp2115
a(S'pie'
g10
tp2116
a(S')'
S')'
tp2117
a(S'.'
S'.'
tp2118
aa(lp2119
(S'A'
g78
tp2120
a(S'splurge'
g10
tp2121
a(S'but'
g62
tp2122
a(S'this'
g184
tp2123
a(S'cup'
g10
tp2124
a(S'of'
g23
tp2125
a(S'joe'
g10
tp2126
a(S'is'
g103
tp2127
a(S'one'
g29
tp2128
a(S'of'
g23
tp2129
a(S"life's"
g10
tp2130
a(S'simple'
g10
tp2131
a(S'pleasures'
g5
tp2132
a(S'my'
g8
tp2133
a(S"life's"
g43
tp2134
a(S'pleasure'
g10
tp2135
a(S'.'
S'.'
tp2136
aa(lp2137
(S'They'
g205
tp2138
a(S'have'
g174
tp2139
a(S'their'
g569
tp2140
a(S'own'
g43
tp2141
a(S'versions'
g5
tp2142
a(S'of'
g23
tp2143
a(S'onion'
g10
tp2144
a(S'rings'
g5
tp2145
a(S'so'
g76
tp2146
a(S'we'
g361
tp2147
a(S'had'
g12
tp2148
a(S'to'
g70
tp2149
a(S'try'
g208
tp2150
a(S'em'
g10
tp2151
a(S'and'
g41
tp2152
a(S'they'
g706
tp2153
a(S'were'
g327
tp2154
a(S'really'
g45
tp2155
a(S'yummy'
g43
tp2156
a(S'!'
S'.'
tp2157
aa(lp2158
(S'We'
g233
tp2159
a(S'drove'
g12
tp2160
a(S'in'
g53
tp2161
a(S'circles'
g5
tp2162
a(S'looking'
S'VBG'
p2163
tp2164
a(S'for'
g431
tp2165
a(S'parking'
g10
tp2166
a(S'and'
g41
tp2167
a(S'miraculously'
g83
tp2168
a(S'found'
g12
tp2169
a(S'a'
g20
tp2170
a(S'place'
g10
tp2171
a(S'directly'
S'RB'
p2172
tp2173
a(S'across'
g76
tp2174
a(S'the'
g14
tp2175
a(S'street'
g10
tp2176
a(S'from'
g370
tp2177
a(S'Rumble'
g43
tp2178
a(S'Fish'
g10
tp2179
a(S'.'
S'.'
tp2180
aa(lp2181
(S'Nice'
g43
tp2182
a(S'touches'
g5
tp2183
a(S'include'
g174
tp2184
a(S'the'
g14
tp2185
a(S'option'
S'NN'
p2186
tp2187
a(S'to'
g70
tp2188
a(S'add'
g208
tp2189
a(S'a'
g20
tp2190
a(S'foie'
g43
tp2191
a(S'gras'
g43
tp2192
a(S'dish'
g10
tp2193
a(S'or'
g81
tp2194
a(S'cheese'
g43
tp2195
a(S'course'
g603
tp2196
a(S'to'
g70
tp2197
a(S'your'
g433
tp2198
a(S'menu'
g10
tp2199
a(S','
S','
tp2200
a(S'and'
g41
tp2201
a(S'the'
g14
tp2202
a(S'cart'
g10
tp2203
a(S'brought'
g12
tp2204
a(S'to'
g70
tp2205
a(S'your'
g433
tp2206
a(S'table'
g43
tp2207
a(S'afterward'
g10
tp2208
a(S'for'
g431
tp2209
a(S'a'
g20
tp2210
a(S'selection'
g10
tp2211
a(S'of'
g23
tp2212
a(S'candies'
g5
tp2213
a(S'and'
g41
tp2214
a(S'truffles'
g5
tp2215
a(S'.'
S'.'
tp2216
aa(lp2217
(S'I'
g33
tp2218
a(S'loved'
g12
tp2219
a(S'everything'
S'NN'
p2220
tp2221
a(S'about'
g76
tp2222
a(S'this'
g184
tp2223
a(S'place'
g10
tp2224
a(S'.'
S'.'
tp2225
a(S'.'
S'.'
tp2226
a(S'First'
g126
tp2227
a(S'they'
g706
tp2228
a(S'had'
g12
tp2229
a(S'my'
g8
tp2230
a(S'favorite'
g43
tp2231
a(S'Thanksgiving'
g126
tp2232
a(S'dinner'
g10
tp2233
a(S'.'
S'.'
tp2234
a(S'.'
S'.'
tp2235
a(S'Mash'
g126
tp2236
a(S'potatoes'
g5
tp2237
a(S','
S','
tp2238
a(S'turkey'
g10
tp2239
a(S'and'
g41
tp2240
a(S'gravy'
g208
tp2241
a(S'all'
g78
tp2242
a(S'over'
g76
tp2243
a(S'with'
g18
tp2244
a(S'stuffing'
g10
tp2245
a(S'.'
S'.'
tp2246
aa(lp2247
(S'I'
g33
tp2248
a(S'requested'
g12
tp2249
a(S'the'
g14
tp2250
a(S'tofu'
g10
tp2251
a(S'extra'
g43
tp2252
a(S'even'
g83
tp2253
a(S'though'
g76
tp2254
a(S'the'
g14
tp2255
a(S'chicken'
g10
tp2256
a(S'was'
g12
tp2257
a(S'not'
g111
tp2258
a(S'bad'
S'JJ'
p2259
tp2260
a(S'.'
S'.'
tp2261
aa(lp2262
(S'Yummiest'
g106
tp2263
a(S'Dolsot'
g126
tp2264
a(S'Bul'
g126
tp2265
a(S'Go'
g126
tp2266
a(S'Gi'
g126
tp2267
a(S','
S','
tp2268
a(S'Kimchi'
g126
tp2269
a(S','
S','
tp2270
a(S'seafood'
g10
tp2271
a(S'amp'
g10
tp2272
a(S';'
S':'
tp2273
a(S'onion'
g10
tp2274
a(S'pancake'
g10
tp2275
a(S','
S','
tp2276
a(S'Tofu'
g126
tp2277
a(S'soup'
g10
tp2278
a(S'('
S'('
tp2279
a(S'complimentary'
g43
tp2280
a(S')'
S')'
tp2281
a(S'and'
g41
tp2282
a(S'most'
S'RBS'
p2283
tp2284
a(S'aromatic'
g43
tp2285
a(S'and'
g41
tp2286
a(S'delicious'
g43
tp2287
a(S'tea'
g10
tp2288
a(S'we'
g361
tp2289
a(S'ever'
g1122
tp2290
a(S'had'
g12
tp2291
a(S'.'
S'.'
tp2292
aa(lp2293
(S'So'
g83
tp2294
a(S'here'
g937
tp2295
a(S'it'
g65
tp2296
a(S'is'
g103
tp2297
a(S'6'
S'CD'
p2298
tp2299
a(S'pieces'
g5
tp2300
a(S'of'
g23
tp2301
a(S'French'
g43
tp2302
a(S'toast'
g10
tp2303
a(S','
S','
tp2304
a(S'2'
g548
tp2305
a(S'poached'
g12
tp2306
a(S','
S','
tp2307
a(S'6'
g2298
tp2308
a(S'huge'
g511
tp2309
a(S'fried'
g74
tp2310
a(S'chicken'
g10
tp2311
a(S'wings'
g5
tp2312
a(S'('
S'('
tp2313
a(S"It's"
g126
tp2314
a(S'the'
g14
tp2315
a(S'real'
g120
tp2316
a(S'deal'
g10
tp2317
a(S','
S','
tp2318
a(S'folks'
g5
tp2319
a(S'!'
S'.'
tp2320
a(S')'
S')'
tp2321
aa(lp2322
(S"it's"
g5
tp2323
a(S'like'
g76
tp2324
a(S'a'
g20
tp2325
a(S'clean'
g43
tp2326
a(S'new'
g925
tp2327
a(S'york'
g10
tp2328
a(S'lounge'
g10
tp2329
a(S'but'
g62
tp2330
a(S'with'
g18
tp2331
a(S'lots'
g5
tp2332
a(S'of'
g23
tp2333
a(S'space'
S'NN'
p2334
tp2335
a(S'and'
g41
tp2336
a(S'better'
g573
tp2337
a(S'looking'
g2163
tp2338
a(S'women'
S'NNS'
p2339
tp2340
a(S'and'
g41
tp2341
a(S'better'
g166
tp2342
a(S'tasting'
g374
tp2343
a(S'wine'
g10
tp2344
a(S'and'
g41
tp2345
a(S'frankly'
g10
tp2346
a(S'is'
g103
tp2347
a(S'more'
g166
tp2348
a(S'fun'
g43
tp2349
a(S'all'
g78
tp2350
a(S'around'
g83
tp2351
a(S'.'
S'.'
tp2352
a(S'.'
S'.'
tp2353
a(S'.'
S'.'
tp2354
a(S'i'
g10
tp2355
a(S'really'
g45
tp2356
a(S'will'
S'MD'
p2357
tp2358
a(S'come'
g208
tp2359
a(S'back'
g83
tp2360
a(S'here'
g937
tp2361
a(S'soon'
S'RB'
p2362
tp2363
a(S'so'
g83
tp2364
a(S'i'
g43
tp2365
a(S'can'
g1958
tp2366
a(S'actually'
S'RB'
p2367
tp2368
a(S'try'
g208
tp2369
a(S'some'
S'DT'
p2370
tp2371
a(S'food'
g194
tp2372
a(S'and'
g41
tp2373
a(S'write'
g208
tp2374
a(S'a'
g20
tp2375
a(S'more'
g573
tp2376
a(S'worthy'
g43
tp2377
a(S'review'
g10
tp2378
a(S'.'
S'.'
tp2379
a(S'.'
S'.'
tp2380
a(S'.'
S'.'
tp2381
a(S'consider'
g208
tp2382
a(S'this'
g184
tp2383
a(S'a'
g20
tp2384
a(S'prologue'
g10
tp2385
a(S'.'
S'.'
tp2386
aa(lp2387
(S'Thick'
g126
tp2388
a(S'flavorful'
g10
tp2389
a(S'red'
g43
tp2390
a(S'sauces'
g5
tp2391
a(S','
S','
tp2392
a(S'buttery'
g10
tp2393
a(S'rich'
g43
tp2394
a(S'piccata'
g10
tp2395
a(S','
S','
tp2396
a(S'thick'
g43
tp2397
a(S'greasy'
g10
tp2398
a(S'pizza'
g10
tp2399
a(S'and'
g41
tp2400
a(S'chianti'
g10
tp2401
a(S'rule'
g10
tp2402
a(S'this'
g184
tp2403
a(S'roost'
g10
tp2404
a(S'.'
S'.'
tp2405
aa(lp2406
(S'Probably'
g83
tp2407
a(S'the'
g14
tp2408
a(S'best'
g106
tp2409
a(S'attempt'
g10
tp2410
a(S'at'
g317
tp2411
a(S'NY'
g126
tp2412
a(S'style'
g1113
tp2413
a(S'pizza'
g10
tp2414
a(S'in'
g53
tp2415
a(S'San'
S'NNP'
p2416
tp2417
a(S'Francisco'
S'NNP'
p2418
tp2419
a(S'!'
S'.'
tp2420
aa.