(lp1
(lp2
(S'Thai'
S'NNP'
p3
tp4
a(S'Cottage'
g3
tp5
a(S'starts'
S'VBZ'
p6
tp7
a(S'with'
S'IN'
p8
tp9
a(S'a'
S'DT'
p10
tp11
a(S'great'
S'JJ'
p12
tp13
a(S'family'
S'NN'
p14
tp15
a(S'feel'
S'NN'
p16
tp17
a(S'.'
S'.'
tp18
a(S'.'
S'.'
tp19
a(S'.'
S'.'
tp20
a(S'a'
g10
tp21
a(S'famiiy'
g16
tp22
a(S'owned'
S'VBN'
p23
tp24
a(S'restaurant'
g16
tp25
a(S'with'
g8
tp26
a(S'a'
g10
tp27
a(S'slight'
S'JJ'
p28
tp29
a(S'hole'
g16
tp30
a(S'in'
S'IN'
p31
tp32
a(S'the'
S'DT'
p33
tp34
a(S'wall'
g16
tp35
a(S'feel'
g16
tp36
a(S','
S','
tp37
a(S'but'
S'CC'
p38
tp39
a(S'not'
S'RB'
p40
tp41
a(S'in'
g31
tp42
a(S'a'
g10
tp43
a(S'dirty'
g28
tp44
a(S'way'
S'NN'
p45
tp46
a(S'.'
S'.'
tp47
aa(lp48
(S'Best'
S'JJS'
p49
tp50
a(S'pizza'
g16
tp51
a(S'in'
g31
tp52
a(S'North'
g3
tp53
a(S'Beach'
g3
tp54
a(S','
S','
tp55
a(S'hands'
g6
tp56
a(S'down'
S'RB'
p57
tp58
a(S'.'
S'.'
tp59
aa(lp60
(S'However'
S'RB'
p61
tp62
a(S','
S','
tp63
a(S'the'
g33
tp64
a(S'main'
S'JJ'
p65
tp66
a(S'event'
S'NN'
p67
tp68
a(S'and'
S'CC'
p69
tp70
a(S'reason'
S'NN'
p71
tp72
a(S'for'
S'IN'
p73
tp74
a(S'my'
S'PRP$'
p75
tp76
a(S'4'
S'CD'
p77
tp78
a(S'.'
S'.'
tp79
a(S'5'
S'CD'
p80
tp81
a(S'star'
g16
tp82
a(S'rating'
S'NN'
p83
tp84
a(S'is'
S'VBZ'
p85
tp86
a(S'the'
g33
tp87
a(S'pizza'
g16
tp88
a(S'crust'
g16
tp89
a(S'.'
S'.'
tp90
aa(lp91
(S'Love'
S'VB'
p92
tp93
a(S'the'
g33
tp94
a(S'sticky'
g28
tp95
a(S'rice'
g16
tp96
a(S'.'
S'.'
tp97
aa(lp98
(S'Our'
S'PRP$'
p99
tp100
a(S'favorite'
g28
tp101
a(S'dishes'
S'NNS'
p102
tp103
a(S'Lotus'
g3
tp104
a(S'chips'
S'NNS'
p105
tp106
a(S'Wild'
g3
tp107
a(S'rice'
g16
tp108
a(S'salad'
g16
tp109
a(S'with'
g8
tp110
a(S'Salmon'
g3
tp111
a(S'Pork'
g3
tp112
a(S'and'
g69
tp113
a(S'beans'
g102
tp114
a(S'and'
g69
tp115
a(S'Black'
g3
tp116
a(S'Rice'
g3
tp117
a(S'topped'
S'VBD'
p118
tp119
a(S'with'
g8
tp120
a(S'Ice'
g3
tp121
a(S'Cream'
g3
tp122
a(S'desert'
g92
tp123
a(S'Our'
g99
tp124
a(S'4'
g77
tp125
a(S'years'
S'NNS'
p126
tp127
a(S'old'
S'JJ'
p128
tp129
a(S'also'
S'RB'
p130
tp131
a(S'enjoyed'
S'VBP'
p132
tp133
a(S'all'
S'PDT'
p134
tp135
a(S'the'
g33
tp136
a(S'dishes'
g102
tp137
a(S'.'
S'.'
tp138
aa(lp139
(S'they'
S'PRP'
p140
tp141
a(S'have'
g132
tp142
a(S'this'
S'DT'
p143
tp144
a(S'mochi'
g16
tp145
a(S'ball'
g16
tp146
a(S'with'
g8
tp147
a(S'sweet'
g28
tp148
a(S'fillings'
g102
tp149
a(S'like'
S'IN'
p150
tp151
a(S'sesame'
g16
tp152
a(S'paste'
g16
tp153
a(S','
S','
tp154
a(S'in'
g31
tp155
a(S'hot'
g28
tp156
a(S'sweet'
g28
tp157
a(S'soups'
g102
tp158
a(S'desert'
g16
tp159
a(S'which'
S'WDT'
p160
tp161
a(S'hits'
g6
tp162
a(S'the'
g33
tp163
a(S'spot'
g16
tp164
a(S'.'
S'.'
tp165
aa(lp166
(S'Yeah'
S'UH'
p167
tp168
a(S','
S','
tp169
a(S'the'
g33
tp170
a(S'ordering'
g16
tp171
a(S'and'
g69
tp172
a(S'paying'
S'VBG'
p173
tp174
a(S'part'
S'NN'
p175
tp176
a(S'sounds'
g6
tp177
a(S'kinda'
g28
tp178
a(S'chaotic'
g28
tp179
a(S','
S','
tp180
a(S'because'
g150
tp181
a(S'it'
S'PRP'
p182
tp183
a(S'kind'
S'NN'
p184
tp185
a(S'of'
S'IN'
p186
tp187
a(S'is'
g85
tp188
a(S','
S','
tp189
a(S'but'
g38
tp190
a(S'its'
S'PRP$'
p191
tp192
a(S'nothing'
S'NN'
p193
tp194
a(S'much'
g57
tp195
a(S'to'
S'TO'
p196
tp197
a(S'complain'
g92
tp198
a(S'about'
g150
tp199
a(S'when'
S'WRB'
p200
tp201
a(S"you're"
g16
tp202
a(S'only'
g57
tp203
a(S'paying'
g173
tp204
a(S'about'
g150
tp205
a(S'7'
S'CD'
p206
tp207
a(S'for'
g73
tp208
a(S'a'
g10
tp209
a(S'curry'
g28
tp210
a(S'dish'
g16
tp211
a(S'.'
S'.'
tp212
aa(lp213
(S'Big'
g16
tp214
a(S'for'
g73
tp215
a(S'this'
g143
tp216
a(S'soup'
g16
tp217
a(S'I'
S'PRP'
p218
tp219
a(S'think'
g132
tp220
a(S"it's"
g28
tp221
a(S'my'
g75
tp222
a(S'favorite'
g28
tp223
a(S'thing'
S'NN'
p224
tp225
a(S'ever'
S'RB'
p226
tp227
a(S'in'
g31
tp228
a(S'soup'
g28
tp229
a(S'form'
g16
tp230
a(S'.'
S'.'
tp231
aa(lp232
(S'We'
S'PRP'
p233
tp234
a(S'also'
g130
tp235
a(S'got'
g118
tp236
a(S'the'
g33
tp237
a(S'broccoli'
g16
tp238
a(S'au'
g16
tp239
a(S'gratin'
g16
tp240
a(S'('
S'('
tp241
a(S'mega'
g28
tp242
a(S'cheese'
g16
tp243
a(S')'
S')'
tp244
a(S','
S','
tp245
a(S'and'
g69
tp246
a(S'the'
g33
tp247
a(S'lyonnaise'
g16
tp248
a(S'potatoes'
g102
tp249
a(S'.'
S'.'
tp250
aa(lp251
(S'marinated'
g23
tp252
a(S'chicken'
g16
tp253
a(S'.'
S'.'
tp254
aa(lp255
(S'Tasty'
g3
tp256
a(S'pork'
g16
tp257
a(S'parts'
S'NNS'
p258
tp259
a(S'with'
g8
tp260
a(S'garlic'
g28
tp261
a(S'fried'
g23
tp262
a(S'rice'
g16
tp263
a(S'and'
g69
tp264
a(S'two'
S'CD'
p265
tp266
a(S'eggs'
g102
tp267
a(S'on'
S'IN'
p268
tp269
a(S'top'
g16
tp270
a(S','
S','
tp271
a(S'heaven'
g57
tp272
a(S'!'
S'.'
tp273
aa(lp274
(S'The'
S'DT'
p275
tp276
a(S'crab'
g16
tp277
a(S'cakes'
g102
tp278
a(S'came'
S'VBD'
p279
tp280
a(S'out'
g57
tp281
a(S'and'
g69
tp282
a(S'were'
S'VBD'
p283
tp284
a(S'perfection'
g16
tp285
a(S'.'
S'.'
tp286
aa(lp287
(S'Not'
S'RB'
p288
tp289
a(S'feeling'
S'VBG'
p290
tp291
a(S'like'
g150
tp292
a(S'chicken'
g16
tp293
a(S'?'
S'.'
tp294
aa(lp295
(S'The'
g275
tp296
a(S'rice'
g16
tp297
a(S'noodles'
g102
tp298
a(S'.'
S'.'
tp299
a(S'.'
S'.'
tp300
a(S'.'
S'.'
tp301
a(S'ehh'
g16
tp302
a(S'nothing'
g193
tp303
a(S'special'
g28
tp304
a(S'.'
S'.'
tp305
aa(lp306
(S'Honestly'
g57
tp307
a(S','
S','
tp308
a(S'the'
g33
tp309
a(S'steak'
g16
tp310
a(S'is'
g85
tp311
a(S'great'
g12
tp312
a(S'alone'
g57
tp313
a(S'!'
S'.'
tp314
aa(lp315
(S'The'
g275
tp316
a(S'shrimp'
g16
tp317
a(S'are'
S'VBP'
p318
tp319
a(S'actually'
S'RB'
p320
tp321
a(S'de'
g57
tp322
a(S'veined'
g23
tp323
a(S'here'
S'RB'
p324
tp325
a(S'!'
S'.'
tp326
a(S'!'
S'.'
tp327
a(S'!'
S'.'
tp328
a(S'!'
S'.'
tp329
aa(lp330
(S'The'
g275
tp331
a(S'steak'
g16
tp332
a(S'was'
g118
tp333
a(S'around'
g150
tp334
a(S'6oz'
S'CD'
p335
tp336
a(S'and'
g69
tp337
a(S'it'
g182
tp338
a(S'came'
g279
tp339
a(S'with'
g8
tp340
a(S'fries'
g102
tp341
a(S'ketchup'
g132
tp342
a(S'.'
S'.'
tp343
aa(lp344
(S'I'
g218
tp345
a(S'thought'
g118
tp346
a(S'the'
g33
tp347
a(S'sushi'
g16
tp348
a(S'was'
g118
tp349
a(S'good'
g28
tp350
a(S','
S','
tp351
a(S'and'
g69
tp352
a(S'the'
g33
tp353
a(S'experience'
g16
tp354
a(S'was'
g118
tp355
a(S'really'
S'RB'
p356
tp357
a(S'fun'
g28
tp358
a(S'.'
S'.'
tp359
aa(lp360
(S'The'
g275
tp361
a(S'mussels'
g102
tp362
a(S'were'
g283
tp363
a(S'perfect'
g28
tp364
a(S'and'
g69
tp365
a(S'the'
g33
tp366
a(S'sauce'
g16
tp367
a(S'they'
g140
tp368
a(S'came'
g279
tp369
a(S'in'
g31
tp370
a(S'.'
S'.'
tp371
a(S'.'
S'.'
tp372
a(S'.'
S'.'
tp373
a(S'OMG'
g3
tp374
a(S'.'
S'.'
tp375
aa(lp376
(S'I'
g218
tp377
a(S'like'
g132
tp378
a(S'how'
S'WRB'
p379
tp380
a(S'you'
S'PRP'
p381
tp382
a(S'can'
S'MD'
p383
tp384
a(S'choose'
g92
tp385
a(S'the'
g33
tp386
a(S'type'
g16
tp387
a(S','
S','
tp388
a(S'preparation'
g16
tp389
a(S','
S','
tp390
a(S'and'
g69
tp391
a(S'sauce'
g16
tp392
a(S'for'
g73
tp393
a(S'the'
g33
tp394
a(S'fish'
g16
tp395
a(S'.'
S'.'
tp396
aa(lp397
(S'The'
g275
tp398
a(S'pizza'
g16
tp399
a(S'is'
g85
tp400
a(S'just'
S'RB'
p401
tp402
a(S'normal'
S'JJ'
p403
tp404
a(S'pizza'
g16
tp405
a(S'that'
g150
tp406
a(S'you'
g381
tp407
a(S'can'
g383
tp408
a(S'get'
g92
tp409
a(S'anywhere'
g57
tp410
a(S'else'
g57
tp411
a(S'.'
S'.'
tp412
aa(lp413
(S'The'
g275
tp414
a(S'caramelized'
g28
tp415
a(S'french'
g28
tp416
a(S'toast'
g16
tp417
a(S'and'
g69
tp418
a(S'hazelnut'
g16
tp419
a(S'ice'
g16
tp420
a(S'cream'
g16
tp421
a(S'is'
g85
tp422
a(S'such'
g28
tp423
a(S'an'
S'DT'
p424
tp425
a(S'unexpected'
g28
tp426
a(S'dessert'
g16
tp427
a(S'and'
g69
tp428
a(S'believe'
g92
tp429
a(S'me'
S'PRP'
p430
tp431
a(S'it'
g182
tp432
a(S'does'
S'VBZ'
p433
tp434
a(S'not'
g40
tp435
a(S'disappoint'
g92
tp436
a(S'.'
S'.'
tp437
aa(lp438
(S'At'
S'IN'
p439
tp440
a(S'the'
g33
tp441
a(S'end'
g16
tp442
a(S'of'
g186
tp443
a(S'it'
g182
tp444
a(S'meal'
g6
tp445
a(S'we'
S'PRP'
p446
tp447
a(S'got'
g118
tp448
a(S'a'
g10
tp449
a(S'sweet'
g28
tp450
a(S'cinnamon'
g16
tp451
a(S'drink'
g16
tp452
a(S'.'
S'.'
tp453
aa(lp454
(S'I'
g218
tp455
a(S'only'
g57
tp456
a(S'eat'
g132
tp457
a(S'veggie'
g28
tp458
a(S'sushi'
g16
tp459
a(S'though'
g150
tp460
a(S','
S','
tp461
a(S'so'
g150
tp462
a(S'I'
g218
tp463
a(S"can't"
g132
tp464
a(S'speak'
g92
tp465
a(S'too'
S'RB'
p466
tp467
a(S'much'
g28
tp468
a(S'for'
g73
tp469
a(S'the'
g33
tp470
a(S'food'
S'NN'
p471
tp472
a(S'.'
S'.'
tp473
aa(lp474
(S'and'
g69
tp475
a(S'there'
S'EX'
p476
tp477
a(S'was'
g118
tp478
a(S'a'
g10
tp479
a(S'dark'
g28
tp480
a(S'chocolate'
g16
tp481
a(S'kind'
g184
tp482
a(S'with'
g8
tp483
a(S'homemade'
g16
tp484
a(S'strawberry'
g16
tp485
a(S'('
S'('
tp486
a(S'?'
S'.'
tp487
a(S')'
S')'
tp488
aa(lp489
(S'My'
g191
tp490
a(S'favorite'
g28
tp491
a(S'ice'
g16
tp492
a(S'cream'
g16
tp493
a(S'flavor'
g16
tp494
a(S'is'
g85
tp495
a(S'Mint'
g3
tp496
a(S'Chip'
g3
tp497
a(S','
S','
tp498
a(S'but'
g38
tp499
a(S'at'
S'IN'
p500
tp501
a(S"Swensen's"
g3
tp502
a(S"it's"
g132
tp503
a(S'Swiss'
g28
tp504
a(S'Orange'
g3
tp505
a(S'Chip'
g3
tp506
a(S','
S','
tp507
a(S'which'
g160
tp508
a(S'is'
g85
tp509
a(S'less'
S'JJR'
p510
tp511
a(S'than'
S'IN'
p512
tp513
a(S'super'
g510
tp514
a(S'sweet'
g16
tp515
a(S'chocolate'
g16
tp516
a(S'ice'
g16
tp517
a(S'cream'
g16
tp518
a(S'with'
g8
tp519
a(S'a'
g10
tp520
a(S'subtle'
g28
tp521
a(S'orange'
g16
tp522
a(S'flavor'
g16
tp523
a(S','
S','
tp524
a(S'plus'
S'CC'
p525
tp526
a(S'chocolate'
g28
tp527
a(S'chips'
g105
tp528
a(S'.'
S'.'
tp529
aa(lp530
(S'Good'
g28
tp531
a(S'veggie'
g16
tp532
a(S'sandwich'
g16
tp533
a(S'though'
g150
tp534
a(S'.'
S'.'
tp535
aa(lp536
(S'I'
g218
tp537
a(S'had'
g118
tp538
a(S'a'
g10
tp539
a(S'bite'
g16
tp540
a(S'of'
g186
tp541
a(S'his'
S'PRP$'
p542
tp543
a(S'bacon'
g16
tp544
a(S','
S','
tp545
a(S'and'
g69
tp546
a(S'it'
g182
tp547
a(S'was'
g118
tp548
a(S'as'
g150
tp549
a(S'others'
S'NNS'
p550
tp551
a(S'have'
g132
tp552
a(S'said'
S'VBD'
p553
tp554
a(S','
S','
tp555
a(S'lovely'
g57
tp556
a(S'.'
S'.'
tp557
aa(lp558
(S'I'
g218
tp559
a(S'get'
g132
tp560
a(S'combo'
g28
tp561
a(S'3'
g335
tp562
a(S'.'
S'.'
tp563
aa(lp564
(S'Wonderful'
g3
tp565
a(S','
S','
tp566
a(S'had'
g118
tp567
a(S'the'
g33
tp568
a(S'fish'
g28
tp569
a(S'and'
g69
tp570
a(S'chips'
g105
tp571
a(S'.'
S'.'
tp572
aa(lp573
(S'One'
g335
tp574
a(S'of'
g186
tp575
a(S'the'
g33
tp576
a(S'best'
g49
tp577
a(S'corned'
g28
tp578
a(S'beef'
g16
tp579
a(S"sandwich's"
g16
tp580
a(S"I've"
g3
tp581
a(S'had'
g118
tp582
a(S'anywhere'
g57
tp583
a(S'.'
S'.'
tp584
aa(lp585
(S'Be'
g3
tp586
a(S'aware'
g28
tp587
a(S'that'
g150
tp588
a(S'a'
g10
tp589
a(S'lot'
g16
tp590
a(S'of'
g186
tp591
a(S'the'
g33
tp592
a(S'kim'
g16
tp593
a(S'chi'
g16
tp594
a(S'marinade'
g118
tp595
a(S'sauce'
g16
tp596
a(S'goes'
S'VBZ'
p597
tp598
a(S'into'
S'IN'
p599
tp600
a(S'the'
g33
tp601
a(S'burrito'
g16
tp602
a(S'and'
g69
tp603
a(S'might'
S'MD'
p604
tp605
a(S'spill'
g92
tp606
a(S'when'
g200
tp607
a(S'you'
g381
tp608
a(S'eat'
g132
tp609
a(S'it'
g182
tp610
a(S'.'
S'.'
tp611
aa(lp612
(S'You'
S'PRP'
p613
tp614
a(S'can'
g383
tp615
a(S'either'
g92
tp616
a(S'buy'
g92
tp617
a(S'pre'
g102
tp618
a(S'made'
g23
tp619
a(S','
S','
tp620
a(S'fresh'
g28
tp621
a(S'Bento'
g3
tp622
a(S'OR'
g3
tp623
a(S'make'
g92
tp624
a(S'your'
S'PRP$'
p625
tp626
a(S'own'
g28
tp627
a(S'.'
S'.'
tp628
aa(lp629
(S'I'
g218
tp630
a(S'got'
g118
tp631
a(S'the'
g33
tp632
a(S'blood'
g16
tp633
a(S'orange'
g16
tp634
a(S'chocolate'
g16
tp635
a(S'tart'
g16
tp636
a(S'that'
g160
tp637
a(S'came'
g279
tp638
a(S'with'
g8
tp639
a(S'a'
g10
tp640
a(S'scoop'
g16
tp641
a(S'of'
g186
tp642
a(S'homemade'
g16
tp643
a(S'ice'
g16
tp644
a(S'cream'
g16
tp645
a(S','
S','
tp646
a(S'which'
g160
tp647
a(S'made'
g118
tp648
a(S'a'
g10
tp649
a(S'lovely'
g28
tp650
a(S'compliment'
g16
tp651
a(S'to'
g196
tp652
a(S'the'
g33
tp653
a(S'tart'
g16
tp654
a(S'.'
S'.'
tp655
aa(lp656
(S'The'
g275
tp657
a(S'desserts'
g102
tp658
a(S'are'
g318
tp659
a(S'fantastic'
g28
tp660
a(S','
S','
tp661
a(S'and'
g69
tp662
a(S'though'
g150
tp663
a(S'i'
g16
tp664
a(S'probably'
S'RB'
p665
tp666
a(S"won't"
g118
tp667
a(S'be'
S'VB'
p668
tp669
a(S'eating'
g290
tp670
a(S'here'
g324
tp671
a(S'often'
S'RB'
p672
tp673
a(S','
S','
tp674
a(S'i'
g28
tp675
a(S'might'
g604
tp676
a(S'just'
g401
tp677
a(S'come'
g92
tp678
a(S'back'
g57
tp679
a(S'for'
g73
tp680
a(S'a'
g10
tp681
a(S'baileys'
g16
tp682
a(S'and'
g69
tp683
a(S'coffee'
g16
tp684
a(S'.'
S'.'
tp685
aa(lp686
(S'I'
g218
tp687
a(S'ordered'
g118
tp688
a(S'the'
g33
tp689
a(S'sliders'
g102
tp690
a(S','
S','
tp691
a(S'but'
g38
tp692
a(S'my'
g75
tp693
a(S'favorite'
g16
tp694
a(S'was'
g118
tp695
a(S'the'
g33
tp696
a(S'french'
g28
tp697
a(S'fries'
g102
tp698
a(S'that'
g160
tp699
a(S'came'
g279
tp700
a(S'with'
g8
tp701
a(S'your'
g625
tp702
a(S'choice'
S'NN'
p703
tp704
a(S'of'
g186
tp705
a(S'dipping'
g290
tp706
a(S'sauce'
g16
tp707
a(S'.'
S'.'
tp708
aa(lp709
(S'placed'
g23
tp710
a(S'on'
g268
tp711
a(S'over'
g150
tp712
a(S'a'
g10
tp713
a(S'chocolate'
g16
tp714
a(S'drizzled'
g23
tp715
a(S'plate'
g16
tp716
a(S'.'
S'.'
tp717
a(S'.'
S'.'
tp718
a(S'.'
S'.'
tp719
a(S'she'
S'PRP'
p720
tp721
a(S'had'
g118
tp722
a(S'that'
g150
tp723
a(S'w'
g28
tp724
a(S'tea'
g16
tp725
a(S'.'
S'.'
tp726
aa(lp727
(S"I've"
g3
tp728
a(S'been'
S'VBN'
p729
tp730
a(S'going'
S'VBG'
p731
tp732
a(S'to'
g196
tp733
a(S'Anchor'
g3
tp734
a(S'Oyster'
g3
tp735
a(S'Bar'
g3
tp736
a(S'ever'
g226
tp737
a(S'since'
S'IN'
p738
tp739
a(S'I'
g218
tp740
a(S'moved'
g118
tp741
a(S'to'
g196
tp742
a(S'SF'
g3
tp743
a(S'('
S'('
tp744
a(S"'97"
S'POS'
p745
tp746
a(S')'
S')'
tp747
a(S'.'
S'.'
tp748
aa(lp749
(S'I'
g218
tp750
a(S'never'
S'RB'
p751
tp752
a(S'had'
g118
tp753
a(S'baklava'
g23
tp754
a(S'before'
g150
tp755
a(S'but'
g38
tp756
a(S"it's"
g92
tp757
a(S'a'
g10
tp758
a(S'bit'
g16
tp759
a(S'too'
g466
tp760
a(S'sweet'
g28
tp761
a(S'for'
g73
tp762
a(S'me'
g430
tp763
a(S'because'
g150
tp764
a(S'of'
g186
tp765
a(S'all'
g134
tp766
a(S'the'
g33
tp767
a(S'honey'
g16
tp768
a(S'they'
g140
tp769
a(S'put'
g132
tp770
a(S'in'
g31
tp771
a(S'it'
g182
tp772
a(S'.'
S'.'
tp773
aa(lp774
(S'I'
g218
tp775
a(S'liked'
g118
tp776
a(S'the'
g33
tp777
a(S'pizza'
g16
tp778
a(S'cheese'
g28
tp779
a(S'steak'
g16
tp780
a(S'best'
g49
tp781
a(S'.'
S'.'
tp782
aa(lp783
(S"You're"
g3
tp784
a(S'damn'
g16
tp785
a(S'right'
g57
tp786
a(S"it's"
g28
tp787
a(S'full'
S'JJ'
p788
tp789
a(S'of'
g186
tp790
a(S'hot'
g28
tp791
a(S'chicks'
g102
tp792
a(S'.'
S'.'
tp793
aa(lp794
(S'However'
g61
tp795
a(S','
S','
tp796
a(S'I'
g218
tp797
a(S'was'
g118
tp798
a(S'set'
g23
tp799
a(S'on'
g268
tp800
a(S'having'
S'VBG'
p801
tp802
a(S'my'
g75
tp803
a(S'usual'
g28
tp804
a(S'plate'
g16
tp805
a(S'at'
g500
tp806
a(S'Raintree'
g3
tp807
a(S','
S','
tp808
a(S'so'
g150
tp809
a(S'I'
g218
tp810
a(S'continued'
g118
tp811
a(S'on'
g268
tp812
a(S'until'
S'IN'
p813
tp814
a(S'I'
g218
tp815
a(S'saw'
g118
tp816
a(S'a'
g10
tp817
a(S'huge'
S'JJ'
p818
tp819
a(S'line'
S'NN'
p820
tp821
a(S'outside'
g150
tp822
a(S'.'
S'.'
tp823
aa(lp824
(S'I'
g218
tp825
a(S'really'
g356
tp826
a(S'like'
g150
tp827
a(S'the'
g33
tp828
a(S'pizza'
g16
tp829
a(S'here'
g324
tp830
a(S'.'
S'.'
tp831
aa(lp832
(S'The'
g275
tp833
a(S'lamb'
g16
tp834
a(S'is'
g85
tp835
a(S'decent'
g28
tp836
a(S'though'
g150
tp837
a(S'not'
g40
tp838
a(S'spectacular'
g28
tp839
a(S'.'
S'.'
tp840
aa(lp841
(S'Chicken'
g3
tp842
a(S'Stuffed'
g3
tp843
a(S'with'
g8
tp844
a(S'bacon'
g16
tp845
a(S'in'
g31
tp846
a(S'a'
g10
tp847
a(S'cream'
g16
tp848
a(S'sauce'
g16
tp849
a(S'very'
g57
tp850
a(S'nice'
g57
tp851
a(S'.'
S'.'
tp852
aa(lp853
(S'We'
g233
tp854
a(S'also'
g130
tp855
a(S'tried'
g118
tp856
a(S'some'
S'DT'
p857
tp858
a(S'of'
g186
tp859
a(S'the'
g33
tp860
a(S'dessert'
g28
tp861
a(S'wine'
g16
tp862
a(S','
S','
tp863
a(S'and'
g69
tp864
a(S'the'
g33
tp865
a(S'first'
g28
tp866
a(S'one'
g16
tp867
a(S'on'
g268
tp868
a(S'the'
g33
tp869
a(S'list'
g16
tp870
a(S'was'
g118
tp871
a(S'nice'
g28
tp872
a(S'and'
g69
tp873
a(S'sweet'
g28
tp874
a(S'.'
S'.'
tp875
aa(lp876
(S'For'
S'IN'
p877
tp878
a(S'dessert'
g16
tp879
a(S'we'
g446
tp880
a(S'had'
g118
tp881
a(S'what'
S'WP'
p882
tp883
a(S'I'
g218
tp884
a(S'called'
g118
tp885
a(S'sink'
g16
tp886
a(S'water'
S'NN'
p887
tp888
a(S'rice'
g16
tp889
a(S'and'
g69
tp890
a(S'sugar'
g16
tp891
a(S'.'
S'.'
tp892
a(S'.'
S'.'
tp893
a(S'.'
S'.'
tp894
a(S'not'
g40
tp895
a(S'pretty'
g57
tp896
a(S','
S','
tp897
a(S'but'
g38
tp898
a(S'good'
g28
tp899
a(S'!'
S'.'
tp900
a(S'!'
S'.'
tp901
aa(lp902
(S'The'
g275
tp903
a(S'squid'
g16
tp904
a(S'was'
g118
tp905
a(S'cooked'
g23
tp906
a(S'perfectly'
g57
tp907
a(S'and'
g69
tp908
a(S'went'
S'VBD'
p909
tp910
a(S'really'
g356
tp911
a(S'well'
g57
tp912
a(S'with'
g8
tp913
a(S'the'
g33
tp914
a(S'roasted'
g28
tp915
a(S'pepper'
g16
tp916
a(S','
S','
tp917
a(S'rice'
g16
tp918
a(S'and'
g69
tp919
a(S'ink'
g16
tp920
a(S'.'
S'.'
tp921
aa(lp922
(S'Their'
g191
tp923
a(S'shrimp'
g16
tp924
a(S'and'
g69
tp925
a(S'chives'
g102
tp926
a(S'dumplings'
g102
tp927
a(S'are'
g318
tp928
a(S'so'
g57
tp929
a(S'delicious'
g28
tp930
a(S'.'
S'.'
tp931
aa(lp932
(S'The'
g275
tp933
a(S'tofu'
g16
tp934
a(S'soup'
g16
tp935
a(S'was'
g118
tp936
a(S'boiling'
g290
tp937
a(S'hot'
g28
tp938
a(S'just'
g401
tp939
a(S'the'
g33
tp940
a(S'way'
g45
tp941
a(S'I'
g218
tp942
a(S'like'
g150
tp943
a(S'it'
g182
tp944
a(S'!'
S'.'
tp945
aa(lp946
(S'This'
S'DT'
p947
tp948
a(S'means'
g6
tp949
a(S'two'
g265
tp950
a(S'things'
S'NNS'
p951
tp952
a(S'1'
S'CD'
p953
tp954
a(S'it'
g182
tp955
a(S'is'
g85
tp956
a(S'a'
g10
tp957
a(S'damn'
g57
tp958
a(S'good'
g28
tp959
a(S'half'
g16
tp960
a(S'sour'
g28
tp961
a(S'pickle'
g16
tp962
a(S'and'
g69
tp963
a(S'2'
S'CD'
p964
tp965
a(S'voting'
g16
tp966
a(S'has'
S'VBZ'
p967
tp968
a(S'really'
g356
tp969
a(S'lost'
g23
tp970
a(S'its'
g191
tp971
a(S'legitimacy'
g16
tp972
a(S'.'
S'.'
tp973
aa(lp974
(S'It'
S'PRP'
p975
tp976
a(S'was'
g118
tp977
a(S'a'
g10
tp978
a(S'Russian'
g28
tp979
a(S'style'
S'NN'
p980
tp981
a(S'banquet'
g16
tp982
a(S'with'
g8
tp983
a(S'all'
g134
tp984
a(S'the'
g33
tp985
a(S'fixing'
g290
tp986
a(S'on'
g268
tp987
a(S'the'
g33
tp988
a(S'table'
g16
tp989
a(S'.'
S'.'
tp990
aa(lp991
(S'I'
g218
tp992
a(S"can't"
g132
tp993
a(S'comment'
g92
tp994
a(S'to'
g196
tp995
a(S'much'
g28
tp996
a(S'being'
S'VBG'
p997
tp998
a(S'that'
g150
tp999
a(S'I'
g218
tp1000
a(S'mainly'
g57
tp1001
a(S'just'
g401
tp1002
a(S'snacked'
g23
tp1003
a(S'on'
g268
tp1004
a(S'my'
g75
tp1005
a(S'friends'
g102
tp1006
a(S'chicken'
g28
tp1007
a(S'skewers'
g102
tp1008
a(S'.'
S'.'
tp1009
aa(lp1010
(S'Extra'
g28
tp1011
a(S'stars'
g102
tp1012
a(S'for'
g73
tp1013
a(S'hot'
g28
tp1014
a(S','
S','
tp1015
a(S'greek'
g28
tp1016
a(S'servers'
g102
tp1017
a(S';'
S':'
tp1018
a(S')'
S')'
tp1019
aa(lp1020
(S'If'
S'IN'
p1021
tp1022
a(S'the'
g33
tp1023
a(S'rice'
g16
tp1024
a(S'came'
g279
tp1025
a(S'out'
S'RP'
p1026
tp1027
a(S'fresher'
g16
tp1028
a(S'('
S'('
tp1029
a(S'hotter'
g16
tp1030
a(S'and'
g69
tp1031
a(S'less'
g510
tp1032
a(S'dry'
g28
tp1033
a(S')'
S')'
tp1034
a(S'it'
g182
tp1035
a(S'would'
S'MD'
p1036
tp1037
a(S'enhance'
g92
tp1038
a(S'the'
g33
tp1039
a(S'entree'
g16
tp1040
a(S'so'
g57
tp1041
a(S'much'
g57
tp1042
a(S'.'
S'.'
tp1043
aa(lp1044
(S'I'
g218
tp1045
a(S'have'
g132
tp1046
a(S'found'
g23
tp1047
a(S'the'
g33
tp1048
a(S'atmosphere'
g16
tp1049
a(S'cozy'
g16
tp1050
a(S','
S','
tp1051
a(S'the'
g33
tp1052
a(S'staff'
S'NN'
p1053
tp1054
a(S'fun'
g16
tp1055
a(S','
S','
tp1056
a(S'and'
g69
tp1057
a(S'the'
g33
tp1058
a(S'food'
g471
tp1059
a(S'very'
g57
tp1060
a(S'satisfying'
g28
tp1061
a(S'.'
S'.'
tp1062
aa(lp1063
(S'for'
g73
tp1064
a(S'a'
g10
tp1065
a(S'moment'
S'NN'
p1066
tp1067
a(S'i'
g16
tp1068
a(S'thought'
g118
tp1069
a(S'maybe'
g57
tp1070
a(S'we'
g446
tp1071
a(S'were'
g283
tp1072
a(S'in'
g31
tp1073
a(S'the'
g33
tp1074
a(S'wrong'
g28
tp1075
a(S'block'
g16
tp1076
a(S','
S','
tp1077
a(S'as'
g150
tp1078
a(S'the'
g33
tp1079
a(S'restaurant'
g16
tp1080
a(S'has'
g967
tp1081
a(S'like'
g150
tp1082
a(S'a'
g10
tp1083
a(S'10'
S'CD'
p1084
tp1085
a(S'foot'
g16
tp1086
a(S'wide'
S'JJ'
p1087
tp1088
a(S'front'
g16
tp1089
a(S','
S','
tp1090
a(S'with'
g8
tp1091
a(S'a'
g10
tp1092
a(S'small'
S'JJ'
p1093
tp1094
a(S'neon'
g16
tp1095
a(S'sign'
g16
tp1096
a(S','
S','
tp1097
a(S'which'
g160
tp1098
a(S'you'
g381
tp1099
a(S'can'
g383
tp1100
a(S'quite'
g92
tp1101
a(S'easily'
S'RB'
p1102
tp1103
a(S'miss'
g16
tp1104
a(S'.'
S'.'
tp1105
aa(lp1106
(S"I've"
g3
tp1107
a(S'only'
g57
tp1108
a(S'had'
g118
tp1109
a(S'the'
g33
tp1110
a(S'corned'
g23
tp1111
a(S'beef'
g16
tp1112
a(S'and'
g69
tp1113
a(S'brisket'
g16
tp1114
a(S'sandwiches'
g102
tp1115
a(S'here'
g324
tp1116
a(S'and'
g69
tp1117
a(S'both'
g424
tp1118
a(S'were'
g283
tp1119
a(S'scrumptious'
g28
tp1120
a(S'.'
S'.'
tp1121
aa(lp1122
(S'Prices'
g102
tp1123
a(S'a'
g10
tp1124
a(S'little'
g57
tp1125
a(S'higher'
g510
tp1126
a(S'than'
g512
tp1127
a(S'I'
g218
tp1128
a(S'thought'
g118
tp1129
a(S"they'd"
g57
tp1130
a(S'be'
g668
tp1131
a(S','
S','
tp1132
a(S'but'
g38
tp1133
a(S'the'
g33
tp1134
a(S'food'
g471
tp1135
a(S'was'
g118
tp1136
a(S'very'
g57
tp1137
a(S'good'
g28
tp1138
a(S'and'
g69
tp1139
a(S'the'
g33
tp1140
a(S'amount'
g16
tp1141
a(S'of'
g186
tp1142
a(S'fun'
g16
tp1143
a(S'that'
g150
tp1144
a(S'we'
g446
tp1145
a(S'had'
g118
tp1146
a(S'from'
S'IN'
p1147
tp1148
a(S'the'
g33
tp1149
a(S'spectacular'
g28
tp1150
a(S'bands'
g102
tp1151
a(S'was'
g118
tp1152
a(S'well'
g57
tp1153
a(S'worth'
g28
tp1154
a(S'it'
g182
tp1155
a(S'.'
S'.'
tp1156
aa(lp1157
(S'And'
S'CC'
p1158
tp1159
a(S'then'
S'RB'
p1160
tp1161
a(S'every'
S'DT'
p1162
tp1163
a(S'morsel'
g16
tp1164
a(S'of'
g186
tp1165
a(S'it'
g182
tp1166
a(S'is'
g85
tp1167
a(S'so'
g57
tp1168
a(S'flavorful'
g28
tp1169
a(S','
S','
tp1170
a(S'so'
g57
tp1171
a(S'juicy'
g16
tp1172
a(S','
S','
tp1173
a(S'with'
g8
tp1174
a(S'such'
g28
tp1175
a(S'subtle'
g28
tp1176
a(S'flavors'
g102
tp1177
a(S'of'
g186
tp1178
a(S'herbs'
g16
tp1179
a(S','
S','
tp1180
a(S'butter'
g16
tp1181
a(S','
S','
tp1182
a(S'lemon'
g16
tp1183
a(S','
S','
tp1184
a(S'and'
g69
tp1185
a(S'who'
g882
tp1186
a(S'knows'
g6
tp1187
a(S'what'
g882
tp1188
a(S'else'
g57
tp1189
a(S','
S','
tp1190
a(S'that'
g150
tp1191
a(S'you'
g381
tp1192
a(S'think'
g132
tp1193
a(S'it'
g182
tp1194
a(S'should'
S'MD'
p1195
tp1196
a(S'have'
g92
tp1197
a(S'been'
g729
tp1198
a(S'called'
g23
tp1199
a(S'something'
S'NN'
p1200
tp1201
a(S'different'
S'JJ'
p1202
tp1203
a(S'on'
g268
tp1204
a(S'the'
g33
tp1205
a(S'menu'
g16
tp1206
a(S'.'
S'.'
tp1207
aa(lp1208
(S'The'
g275
tp1209
a(S'perfect'
g28
tp1210
a(S'amount'
g16
tp1211
a(S'of'
g186
tp1212
a(S'wine'
g16
tp1213
a(S'as'
g57
tp1214
a(S'well'
g57
tp1215
a(S'as'
g150
tp1216
a(S'the'
g33
tp1217
a(S'perfect'
g28
tp1218
a(S'complement'
g16
tp1219
a(S'to'
g196
tp1220
a(S'red'
g28
tp1221
a(S'meat'
g16
tp1222
a(S'.'
S'.'
tp1223
aa(lp1224
(S'A'
g424
tp1225
a(S'place'
g16
tp1226
a(S'you'
g381
tp1227
a(S'go'
g132
tp1228
a(S'with'
g8
tp1229
a(S'large'
S'JJ'
p1230
tp1231
a(S'groups'
S'NNS'
p1232
tp1233
a(S'to'
g196
tp1234
a(S'enjoy'
g92
tp1235
a(S'cheesy'
g28
tp1236
a(S'ambiance'
g16
tp1237
a(S'and'
g69
tp1238
a(S'mass'
g16
tp1239
a(S'produced'
g23
tp1240
a(S'food'
g471
tp1241
a(S'.'
S'.'
tp1242
aa(lp1243
(S'Ok'
g150
tp1244
a(S'a'
g10
tp1245
a(S'bit'
g16
tp1246
a(S'over'
g150
tp1247
a(S'the'
g33
tp1248
a(S'top'
g28
tp1249
a(S'.'
S'.'
tp1250
aa(lp1251
(S'I'
g218
tp1252
a(S'was'
g118
tp1253
a(S'planning'
g290
tp1254
a(S'on'
g268
tp1255
a(S'ordering'
g290
tp1256
a(S'an'
g424
tp1257
a(S'after'
S'IN'
p1258
tp1259
a(S'dinner'
g16
tp1260
a(S'drink'
g16
tp1261
a(S','
S','
tp1262
a(S'but'
g38
tp1263
a(S'it'
g182
tp1264
a(S"wasn't"
g6
tp1265
a(S'needed'
g118
tp1266
a(S'given'
S'VBN'
p1267
tp1268
a(S'the'
g33
tp1269
a(S'cheese'
g16
tp1270
a(S'and'
g69
tp1271
a(S'dessert'
g28
tp1272
a(S'pairings'
g102
tp1273
a(S'.'
S'.'
tp1274
aa(lp1275
(S'For'
g877
tp1276
a(S'entrees'
g102
tp1277
a(S'I'
g218
tp1278
a(S'got'
g118
tp1279
a(S'the'
g33
tp1280
a(S'Caesar'
g3
tp1281
a(S'with'
g8
tp1282
a(S'crab'
g16
tp1283
a(S','
S','
tp1284
a(S'my'
g75
tp1285
a(S'husband'
g16
tp1286
a(S'got'
g118
tp1287
a(S'the'
g33
tp1288
a(S'crab'
g16
tp1289
a(S'cake'
g16
tp1290
a(S'entree'
g16
tp1291
a(S'.'
S'.'
tp1292
aa(lp1293
(S'as'
g57
tp1294
a(S'much'
g28
tp1295
a(S'as'
g150
tp1296
a(S'i'
g28
tp1297
a(S'love'
g132
tp1298
a(S'the'
g33
tp1299
a(S'totally'
g57
tp1300
a(S'unique'
g28
tp1301
a(S'and'
g69
tp1302
a(S'delicious'
g28
tp1303
a(S'garden'
g16
tp1304
a(S'burger'
g16
tp1305
a(S'at'
g500
tp1306
a(S'the'
g33
tp1307
a(S'plant'
S'NN'
p1308
tp1309
a(S'cafe'
g16
tp1310
a(S','
S','
tp1311
a(S'it'
g182
tp1312
a(S'is'
g85
tp1313
a(S'fancy'
g28
tp1314
a(S','
S','
tp1315
a(S'and'
g69
tp1316
a(S'sometimes'
g57
tp1317
a(S'a'
g10
tp1318
a(S'girl'
g16
tp1319
a(S'just'
g401
tp1320
a(S'wants'
S'VBZ'
p1321
tp1322
a(S'trashy'
g28
tp1323
a(S'.'
S'.'
tp1324
aa(lp1325
(S'most'
g49
tp1326
a(S'of'
g186
tp1327
a(S'the'
g33
tp1328
a(S'people'
S'NNS'
p1329
tp1330
a(S'at'
g500
tp1331
a(S'my'
g75
tp1332
a(S'table'
g16
tp1333
a(S'loved'
g118
tp1334
a(S'the'
g33
tp1335
a(S'pad'
g16
tp1336
a(S'see'
g132
tp1337
a(S'ew'
g150
tp1338
a(S'the'
g33
tp1339
a(S'most'
S'RBS'
p1340
tp1341
a(S'.'
S'.'
tp1342
aa(lp1343
(S'like'
g150
tp1344
a(S'a'
g10
tp1345
a(S'nice'
g28
tp1346
a(S'Greek'
g3
tp1347
a(S'soup'
g16
tp1348
a(S'.'
S'.'
tp1349
aa(lp1350
(S'I'
g218
tp1351
a(S'recently'
S'RB'
p1352
tp1353
a(S'had'
g118
tp1354
a(S'some'
g857
tp1355
a(S'knee'
g16
tp1356
a(S'surgery'
g16
tp1357
a(S'and'
g69
tp1358
a(S'they'
g140
tp1359
a(S'were'
g283
tp1360
a(S'super'
g28
tp1361
a(S'sweet'
g16
tp1362
a(S'about'
g150
tp1363
a(S'keeping'
S'VBG'
p1364
tp1365
a(S'the'
g33
tp1366
a(S'bag'
g16
tp1367
a(S'of'
g186
tp1368
a(S'ice'
g16
tp1369
a(S'strapped'
g118
tp1370
a(S'to'
g196
tp1371
a(S'it'
g182
tp1372
a(S'full'
g788
tp1373
a(S'with'
g8
tp1374
a(S'fresh'
g28
tp1375
a(S'ice'
g16
tp1376
a(S'.'
S'.'
tp1377
aa(lp1378
(S'The'
g275
tp1379
a(S'shiitake'
g16
tp1380
a(S'spring'
g16
tp1381
a(S'rolls'
g102
tp1382
a(S'and'
g69
tp1383
a(S'potato'
g16
tp1384
a(S'leek'
g16
tp1385
a(S'soup'
g16
tp1386
a(S'were'
g283
tp1387
a(S'tasty'
g28
tp1388
a(S'and'
g69
tp1389
a(S'fresh'
g28
tp1390
a(S'.'
S'.'
tp1391
aa(lp1392
(S'I'
g218
tp1393
a(S'loved'
g118
tp1394
a(S'the'
g33
tp1395
a(S'fact'
S'NN'
p1396
tp1397
a(S'that'
g150
tp1398
a(S'i'
g132
tp1399
a(S"didn't"
g102
tp1400
a(S'have'
g132
tp1401
a(S'to'
g196
tp1402
a(S'do'
g92
tp1403
a(S'the'
g33
tp1404
a(S'work'
g16
tp1405
a(S','
S','
tp1406
a(S'just'
g401
tp1407
a(S'to'
g196
tp1408
a(S'get'
g92
tp1409
a(S'that'
g424
tp1410
a(S'big'
S'JJ'
p1411
tp1412
a(S'chunk'
g16
tp1413
a(S'of'
g186
tp1414
a(S'meat'
g16
tp1415
a(S'!'
S'.'
tp1416
aa(lp1417
(S'If'
g1021
tp1418
a(S'you'
g381
tp1419
a(S'ever'
g226
tp1420
a(S'made'
g118
tp1421
a(S'a'
g10
tp1422
a(S'crab'
g16
tp1423
a(S'burrito'
g16
tp1424
a(S'with'
g8
tp1425
a(S'italian'
g28
tp1426
a(S'style'
g980
tp1427
a(S'sauce'
g16
tp1428
a(S','
S','
tp1429
a(S'this'
g143
tp1430
a(S'would'
g1036
tp1431
a(S'be'
g668
tp1432
a(S'your'
g625
tp1433
a(S'meal'
g16
tp1434
a(S'.'
S'.'
tp1435
aa(lp1436
(S'When'
S'WRB'
p1437
tp1438
a(S'he'
S'PRP'
p1439
tp1440
a(S'was'
g118
tp1441
a(S'about'
g150
tp1442
a(S'to'
g196
tp1443
a(S'place'
g92
tp1444
a(S'the'
g33
tp1445
a(S'white'
S'JJ'
p1446
tp1447
a(S'napkincloth'
g16
tp1448
a(S'on'
g268
tp1449
a(S'my'
g75
tp1450
a(S'lap'
g16
tp1451
a(S'and'
g69
tp1452
a(S'saw'
g118
tp1453
a(S'I'
g218
tp1454
a(S'was'
g118
tp1455
a(S'wearing'
g290
tp1456
a(S'a'
g10
tp1457
a(S'black'
S'JJ'
p1458
tp1459
a(S'dress'
g16
tp1460
a(S','
S','
tp1461
a(S'he'
g1439
tp1462
a(S'came'
g279
tp1463
a(S'back'
g57
tp1464
a(S'with'
g8
tp1465
a(S'a'
g10
tp1466
a(S'black'
g1458
tp1467
a(S'napkincloth'
g16
tp1468
a(S'so'
g57
tp1469
a(S'as'
g57
tp1470
a(S'to'
g196
tp1471
a(S'not'
g40
tp1472
a(S'get'
g92
tp1473
a(S'cottonballs'
g102
tp1474
a(S'on'
g268
tp1475
a(S'my'
g75
tp1476
a(S'dress'
g16
tp1477
a(S'.'
S'.'
tp1478
aa(lp1479
(S'They'
S'PRP'
p1480
tp1481
a(S'had'
g118
tp1482
a(S'the'
g33
tp1483
a(S'best'
g49
tp1484
a(S'fish'
g28
tp1485
a(S'entrees'
g102
tp1486
a(S'.'
S'.'
tp1487
aa(lp1488
(S'DUNGENESS'
g3
tp1489
a(S'CRAB'
g3
tp1490
a(S'.'
S'.'
tp1491
aa(lp1492
(S'So'
g57
tp1493
a(S'sweet'
g28
tp1494
a(S'with'
g8
tp1495
a(S'warmed'
g28
tp1496
a(S'banana'
g16
tp1497
a(S'and'
g69
tp1498
a(S'creamy'
g28
tp1499
a(S'adzuki'
g16
tp1500
a(S'bean'
g28
tp1501
a(S'paste'
g16
tp1502
a(S','
S','
tp1503
a(S'it'
g182
tp1504
a(S'makes'
S'VBZ'
p1505
tp1506
a(S'my'
g75
tp1507
a(S'mouth'
g28
tp1508
a(S'water'
g887
tp1509
a(S'just'
g401
tp1510
a(S'thinking'
g290
tp1511
a(S'about'
g150
tp1512
a(S'it'
g182
tp1513
a(S'.'
S'.'
tp1514
aa(lp1515
(S'Very'
g57
tp1516
a(S'tender'
g16
tp1517
a(S'and'
g69
tp1518
a(S'juicy'
g16
tp1519
a(S'.'
S'.'
tp1520
aa(lp1521
(S'The'
g275
tp1522
a(S'chow'
g16
tp1523
a(S'mein'
g16
tp1524
a(S'and'
g69
tp1525
a(S'the'
g33
tp1526
a(S'garlic'
g28
tp1527
a(S'eggplant'
g16
tp1528
a(S'dishes'
g102
tp1529
a(S'use'
g132
tp1530
a(S'the'
g33
tp1531
a(S'afore'
g16
tp1532
a(S'mentioned'
g118
tp1533
a(S'sauces'
g102
tp1534
a(S'with'
g8
tp1535
a(S'great'
g12
tp1536
a(S'gusto'
g16
tp1537
a(S','
S','
tp1538
a(S'and'
g69
tp1539
a(S'I'
g218
tp1540
a(S"wasn't"
g132
tp1541
a(S'disappointed'
g28
tp1542
a(S'.'
S'.'
tp1543
aa(lp1544
(S'All'
g134
tp1545
a(S'the'
g33
tp1546
a(S'food'
g471
tp1547
a(S'the'
g33
tp1548
a(S'tamales'
g102
tp1549
a(S','
S','
tp1550
a(S'('
S'('
tp1551
a(S'the'
g33
tp1552
a(S'roasted'
g23
tp1553
a(S'pork'
g16
tp1554
a(S'dish'
g16
tp1555
a(S'was'
g118
tp1556
a(S'like'
g150
tp1557
a(S'pork'
g16
tp1558
a(S'ceviche'
g16
tp1559
a(S'tender'
g16
tp1560
a(S','
S','
tp1561
a(S'and'
g69
tp1562
a(S'very'
g57
tp1563
a(S'limey'
g57
tp1564
a(S')'
S')'
tp1565
a(S'etc'
g16
tp1566
a(S'.'
S'.'
tp1567
aa(lp1568
(S'they'
g140
tp1569
a(S'did'
S'VBD'
p1570
tp1571
a(S'mess'
g92
tp1572
a(S'up'
g1026
tp1573
a(S'and'
g69
tp1574
a(S'bring'
g92
tp1575
a(S'the'
g33
tp1576
a(S'hubby'
g16
tp1577
a(S'the'
g33
tp1578
a(S'wrong'
g28
tp1579
a(S'chicken'
g16
tp1580
a(S','
S','
tp1581
a(S'but'
g38
tp1582
a(S'they'
g140
tp1583
a(S'fixed'
g118
tp1584
a(S'it'
g182
tp1585
a(S'quickly'
S'RB'
p1586
tp1587
a(S'and'
g69
tp1588
a(S'brought'
g118
tp1589
a(S'out'
g1026
tp1590
a(S'the'
g33
tp1591
a(S'correct'
g28
tp1592
a(S'order'
S'NN'
p1593
tp1594
a(S'of'
g186
tp1595
a(S'fried'
g28
tp1596
a(S'chicken'
g16
tp1597
a(S'with'
g8
tp1598
a(S'the'
g33
tp1599
a(S'fixins'
g102
tp1600
a(S'within'
S'IN'
p1601
tp1602
a(S'a'
g10
tp1603
a(S'few'
S'JJ'
p1604
tp1605
a(S'minutes'
S'NNS'
p1606
tp1607
a(S'.'
S'.'
tp1608
aa(lp1609
(S')'
S')'
tp1610
a(S','
S','
tp1611
a(S'the'
g33
tp1612
a(S'place'
g16
tp1613
a(S'was'
g118
tp1614
a(S'clean'
g28
tp1615
a(S','
S','
tp1616
a(S'service'
g16
tp1617
a(S'was'
g118
tp1618
a(S'your'
g625
tp1619
a(S'a'
g10
tp1620
a(S'typical'
g28
tp1621
a(S'Asian'
g28
tp1622
a(S'style'
g980
tp1623
a(S'at'
g500
tp1624
a(S'its'
g191
tp1625
a(S'best'
g49
tp1626
a(S'curt'
g16
tp1627
a(S','
S','
tp1628
a(S'quick'
g28
tp1629
a(S','
S','
tp1630
a(S'efficient'
g28
tp1631
a(S'and'
g69
tp1632
a(S'no'
g424
tp1633
a(S'nonsense'
g16
tp1634
a(S'.'
S'.'
tp1635
a(S'.'
S'.'
tp1636
a(S'.'
S'.'
tp1637
a(S'almost'
S'RB'
p1638
tp1639
a(S'drill'
g150
tp1640
a(S'like'
g150
tp1641
a(S'.'
S'.'
tp1642
aa(lp1643
(S'Of'
S'IN'
p1644
tp1645
a(S'course'
S'NN'
p1646
tp1647
a(S','
S','
tp1648
a(S'the'
g33
tp1649
a(S'chocolate'
g16
tp1650
a(S'souffle'
g16
tp1651
a(S'was'
g118
tp1652
a(S'good'
g28
tp1653
a(S'as'
g150
tp1654
a(S'usual'
g28
tp1655
a(S'and'
g69
tp1656
a(S'i'
g28
tp1657
a(S'tried'
g118
tp1658
a(S'the'
g33
tp1659
a(S'boneless'
g16
tp1660
a(S'quail'
g16
tp1661
a(S'and'
g69
tp1662
a(S'it'
g182
tp1663
a(S"wasn't"
g118
tp1664
a(S'as'
g57
tp1665
a(S'good'
g28
tp1666
a(S'as'
g150
tp1667
a(S'my'
g75
tp1668
a(S"partner's"
g28
tp1669
a(S'filet'
g16
tp1670
a(S'mignon'
g16
tp1671
a(S'with'
g8
tp1672
a(S'foie'
g28
tp1673
a(S'gras'
g102
tp1674
a(S'.'
S'.'
tp1675
aa(lp1676
(S'We'
g233
tp1677
a(S'tried'
g118
tp1678
a(S'the'
g33
tp1679
a(S'Chocolate'
g3
tp1680
a(S'Almond'
g3
tp1681
a(S'Midnight'
g3
tp1682
a(S'dessert'
g16
tp1683
a(S'and'
g69
tp1684
a(S'it'
g182
tp1685
a(S'was'
g118
tp1686
a(S'very'
g57
tp1687
a(S'good'
g28
tp1688
a(S'and'
g69
tp1689
a(S'rich'
g28
tp1690
a(S'.'
S'.'
tp1691
aa(lp1692
(S'Mixed'
g28
tp1693
a(S'Fruit'
g3
tp1694
a(S'with'
g8
tp1695
a(S'Mango'
g3
tp1696
a(S'Puree'
g3
tp1697
a(S'('
S'('
tp1698
a(S'w'
g28
tp1699
a(S'Grass'
g3
tp1700
a(S'Jelly'
g3
tp1701
a(S')'
S')'
tp1702
a(S'4'
g77
tp1703
a(S'.'
S'.'
tp1704
a(S'25'
S'CD'
p1705
tp1706
a(S'('
S'('
tp1707
a(S'Another'
S'DT'
p1708
tp1709
a(S'recommendation'
g16
tp1710
a(S'of'
g186
tp1711
a(S'mine'
g16
tp1712
a(S'!'
S'.'
tp1713
aa(lp1714
(S'They'
g1480
tp1715
a(S'are'
g318
tp1716
a(S'absolutely'
g57
tp1717
a(S'accommodating'
g290
tp1718
a(S'on'
g268
tp1719
a(S'my'
g75
tp1720
a(S'orders'
S'NNS'
p1721
tp1722
a(S'whenever'
g200
tp1723
a(S'I'
g218
tp1724
a(S'ask'
g132
tp1725
a(S'for'
g73
tp1726
a(S'a'
g10
tp1727
a(S'vegetarian'
g28
tp1728
a(S'alternative'
g16
tp1729
a(S'to'
g196
tp1730
a(S'items'
S'NNS'
p1731
tp1732
a(S'that'
g160
tp1733
a(S'are'
g318
tp1734
a(S'listed'
g23
tp1735
a(S'with'
g8
tp1736
a(S'only'
g57
tp1737
a(S'meat'
g16
tp1738
a(S'poultry'
g16
tp1739
a(S'options'
S'NNS'
p1740
tp1741
a(S'.'
S'.'
tp1742
aa(lp1743
(S'Never'
g57
tp1744
a(S'mind'
g132
tp1745
a(S'the'
g33
tp1746
a(S'dearth'
g16
tp1747
a(S'of'
g186
tp1748
a(S'seating'
g290
tp1749
a(S'.'
S'.'
tp1750
a(S'.'
S'.'
tp1751
a(S'.'
S'.'
tp1752
a(S'this'
g143
tp1753
a(S'is'
g85
tp1754
a(S'as'
g57
tp1755
a(S'close'
g28
tp1756
a(S'to'
g196
tp1757
a(S'real'
S'JJ'
p1758
tp1759
a(S'East'
g3
tp1760
a(S'Coast'
S'NNP'
p1761
tp1762
a(S'pizza'
g16
tp1763
a(S'that'
g150
tp1764
a(S'I'
g218
tp1765
a(S'have'
g132
tp1766
a(S'found'
g23
tp1767
a(S'in'
g31
tp1768
a(S'the'
g33
tp1769
a(S'city'
S'NN'
p1770
tp1771
a(S'.'
S'.'
tp1772
aa(lp1773
(S'Fifth'
g3
tp1774
a(S'course'
g1646
tp1775
a(S'Maple'
g3
tp1776
a(S'ice'
g16
tp1777
a(S'cream'
g16
tp1778
a(S'with'
g8
tp1779
a(S'a'
g10
tp1780
a(S'fruit'
g16
tp1781
a(S'gelee'
g16
tp1782
a(S','
S','
tp1783
a(S'squash'
g16
tp1784
a(S'and'
g69
tp1785
a(S'ginger'
g16
tp1786
a(S'meringue'
g16
tp1787
a(S'pie'
g16
tp1788
a(S','
S','
tp1789
a(S'cranberry'
g16
tp1790
a(S'sorbet'
g16
tp1791
a(S','
S','
tp1792
a(S'frozen'
g28
tp1793
a(S'grape'
g16
tp1794
a(S','
S','
tp1795
a(S'and'
g69
tp1796
a(S'a'
g10
tp1797
a(S'chocolate'
g16
tp1798
a(S'truffle'
g16
tp1799
a(S'.'
S'.'
tp1800
aa(lp1801
(S'So'
g57
tp1802
a(S'I'
g218
tp1803
a(S'stick'
g132
tp1804
a(S'to'
g196
tp1805
a(S'the'
g33
tp1806
a(S'lunch'
g16
tp1807
a(S'or'
S'CC'
p1808
tp1809
a(S'at'
g500
tp1810
a(S'dinner'
g16
tp1811
a(S','
S','
tp1812
a(S'I'
g218
tp1813
a(S'risk'
g132
tp1814
a(S'going'
g731
tp1815
a(S'head'
g16
tp1816
a(S'to'
g196
tp1817
a(S'head'
g16
tp1818
a(S'for'
g73
tp1819
a(S'that'
g424
tp1820
a(S'last'
S'JJ'
p1821
tp1822
a(S'piece'
g16
tp1823
a(S'of'
g186
tp1824
a(S'fried'
g28
tp1825
a(S'basil'
g16
tp1826
a(S'and'
g69
tp1827
a(S'tofu'
g16
tp1828
a(S'.'
S'.'
tp1829
aa(lp1830
(S'I'
g218
tp1831
a(S"don't"
g132
tp1832
a(S'like'
g150
tp1833
a(S'regular'
g28
tp1834
a(S'old'
g128
tp1835
a(S'ham'
g16
tp1836
a(S'.'
S'.'
tp1837
aa(lp1838
(S'Finished'
g23
tp1839
a(S'with'
g8
tp1840
a(S'the'
g33
tp1841
a(S'Almond'
g3
tp1842
a(S'cake'
g16
tp1843
a(S'which'
g160
tp1844
a(S'was'
g118
tp1845
a(S'mousse'
g102
tp1846
a(S'like'
g150
tp1847
a(S'and'
g69
tp1848
a(S'mouth'
g92
tp1849
a(S'savoring'
g16
tp1850
a(S'.'
S'.'
tp1851
aa(lp1852
(S'Their'
g191
tp1853
a(S'crispy'
g16
tp1854
a(S'basil'
g16
tp1855
a(S'with'
g8
tp1856
a(S'tofu'
g16
tp1857
a(S'is'
g85
tp1858
a(S'is'
g85
tp1859
a(S'to'
g196
tp1860
a(S'die'
g92
tp1861
a(S'for'
g73
tp1862
a(S'and'
g69
tp1863
a(S'the'
g33
tp1864
a(S'coconut'
g16
tp1865
a(S'soup'
g16
tp1866
a(S'is'
g85
tp1867
a(S'nummy'
g28
tp1868
a(S'nummy'
g16
tp1869
a(S'.'
S'.'
tp1870
aa(lp1871
(S"it's"
g57
tp1872
a(S'not'
g40
tp1873
a(S'as'
g57
tp1874
a(S'oily'
g57
tp1875
a(S'as'
g150
tp1876
a(S'naan'
g28
tp1877
a(S'n'
g16
tp1878
a(S'curry'
g16
tp1879
a(S','
S','
tp1880
a(S'but'
g38
tp1881
a(S'i'
g57
tp1882
a(S'thought'
g118
tp1883
a(S'it'
g182
tp1884
a(S'was'
g118
tp1885
a(S'more'
S'RBR'
p1886
tp1887
a(S'flavorful'
g28
tp1888
a(S'than'
g512
tp1889
a(S'shalimar'
g16
tp1890
a(S'.'
S'.'
tp1891
a(S'.'
S'.'
tp1892
a(S'.'
S'.'
tp1893
a(S'and'
g69
tp1894
a(S'cleaner'
g510
tp1895
a(S','
S','
tp1896
a(S'too'
g466
tp1897
a(S'!'
S'.'
tp1898
aa(lp1899
(S'The'
g275
tp1900
a(S'fresh'
g28
tp1901
a(S'juice'
g16
tp1902
a(S'and'
g69
tp1903
a(S'friendly'
g28
tp1904
a(S'service'
g16
tp1905
a(S'earn'
g132
tp1906
a(S'this'
g143
tp1907
a(S'place'
g16
tp1908
a(S'its'
g191
tp1909
a(S'fifth'
g28
tp1910
a(S'star'
g16
tp1911
a(S'.'
S'.'
tp1912
aa(lp1913
(S'favorites'
g6
tp1914
a(S'the'
g33
tp1915
a(S'soba'
g16
tp1916
a(S'salad'
g16
tp1917
a(S'amp'
g16
tp1918
a(S';'
S':'
tp1919
a(S'the'
g33
tp1920
a(S'kinoko'
g16
tp1921
a(S'noodles'
g102
tp1922
a(S'.'
S'.'
tp1923
aa(lp1924
(S'Usually'
g57
tp1925
a(S','
S','
tp1926
a(S'the'
g33
tp1927
a(S'chicken'
g16
tp1928
a(S'breast'
g16
tp1929
a(S'is'
g85
tp1930
a(S'over'
g150
tp1931
a(S'cooked'
g28
tp1932
a(S'and'
g69
tp1933
a(S'dry'
g28
tp1934
a(S'and'
g69
tp1935
a(S'the'
g33
tp1936
a(S'chef'
g16
tp1937
a(S'uses'
g6
tp1938
a(S'the'
g33
tp1939
a(S'sauce'
g16
tp1940
a(S'to'
g196
tp1941
a(S'juice'
g92
tp1942
a(S'it'
g182
tp1943
a(S'up'
g1026
tp1944
a(S'.'
S'.'
tp1945
aa(lp1946
(S'Fantastic'
g28
tp1947
a(S'NY'
g3
tp1948
a(S'style'
g980
tp1949
a(S'pizza'
g16
tp1950
a(S','
S','
tp1951
a(S"Marcello's"
g3
tp1952
a(S'is'
g85
tp1953
a(S'still'
S'RB'
p1954
tp1955
a(S'my'
g75
tp1956
a(S'favorite'
g28
tp1957
a(S'by'
S'IN'
p1958
tp1959
a(S'a'
g10
tp1960
a(S'hair'
g16
tp1961
a(S'though'
g150
tp1962
a(S'.'
S'.'
tp1963
a(S'.'
S'.'
tp1964
a(S'.'
S'.'
tp1965
aa(lp1966
(S'I'
g218
tp1967
a(S'have'
g132
tp1968
a(S'yet'
g57
tp1969
a(S'to'
g196
tp1970
a(S'find'
g92
tp1971
a(S'fresher'
g28
tp1972
a(S'fish'
g16
tp1973
a(S','
S','
tp1974
a(S'oysters'
g102
tp1975
a(S'or'
g1808
tp1976
a(S'crab'
g16
tp1977
a(S'in'
g31
tp1978
a(S'the'
g33
tp1979
a(S'city'
g1770
tp1980
a(S','
S','
tp1981
a(S'and'
g69
tp1982
a(S'I'
g218
tp1983
a(S'love'
g132
tp1984
a(S'their'
S'PRP$'
p1985
tp1986
a(S'clam'
g16
tp1987
a(S'chowder'
g16
tp1988
a(S"pasta's"
g16
tp1989
a(S'are'
g318
tp1990
a(S'always'
S'RB'
p1991
tp1992
a(S'changing'
g290
tp1993
a(S'and'
g69
tp1994
a(S'delicious'
g28
tp1995
a(S'.'
S'.'
tp1996
aa(lp1997
(S'I'
g218
tp1998
a(S'love'
g132
tp1999
a(S'spicy'
g16
tp2000
a(S'.'
S'.'
tp2001
aa(lp2002
(S'It'
g975
tp2003
a(S'sits'
g6
tp2004
a(S'right'
g57
tp2005
a(S'on'
g268
tp2006
a(S'the'
g33
tp2007
a(S'bay'
g16
tp2008
a(S'and'
g69
tp2009
a(S'there'
g476
tp2010
a(S'is'
g85
tp2011
a(S'a'
g10
tp2012
a(S'large'
g1230
tp2013
a(S'parking'
g16
tp2014
a(S'lot'
g16
tp2015
a(S'right'
g57
tp2016
a(S'next'
g28
tp2017
a(S'to'
g196
tp2018
a(S'it'
g182
tp2019
a(S'.'
S'.'
tp2020
aa(lp2021
(S'We'
g233
tp2022
a(S'ordered'
g118
tp2023
a(S'it'
g182
tp2024
a(S'medium'
g16
tp2025
a(S'rare'
g16
tp2026
a(S'.'
S'.'
tp2027
aa.