(lp1
(lp2
(S'Yeah'
S'UH'
p3
tp4
a(S','
S','
tp5
a(S"it's"
S'JJ'
p6
tp7
a(S'pricey'
S'NN'
p8
tp9
a(S','
S','
tp10
a(S'but'
S'CC'
p11
tp12
a(S'I'
S'PRP'
p13
tp14
a(S'knew'
S'VBD'
p15
tp16
a(S'that'
S'IN'
p17
tp18
a(S'going'
S'VBG'
p19
tp20
a(S'into'
S'IN'
p21
tp22
a(S'it'
S'PRP'
p23
tp24
a(S'so'
S'RB'
p25
tp26
a(S'I'
g13
tp27
a(S"didn't"
S'VBP'
p28
tp29
a(S'go'
S'VB'
p30
tp31
a(S'into'
g21
tp32
a(S'sticker'
g8
tp33
a(S'shock'
g8
tp34
a(S'.'
S'.'
tp35
aa(lp36
(S"It's"
S'NNP'
p37
tp38
a(S'usually'
S'RB'
p39
tp40
a(S'pretty'
g25
tp41
a(S'crowded'
g6
tp42
a(S','
S','
tp43
a(S'so'
g25
tp44
a(S'make'
g6
tp45
a(S'sure'
g8
tp46
a(S'you'
S'PRP'
p47
tp48
a(S'have'
g28
tp49
a(S'planned'
S'VBN'
p50
tp51
a(S'to'
S'TO'
p52
tp53
a(S'wait'
g30
tp54
a(S'in'
S'IN'
p55
tp56
a(S'line'
S'NN'
p57
tp58
a(S'for'
S'IN'
p59
tp60
a(S'at'
S'IN'
p61
tp62
a(S'least'
S'JJS'
p63
tp64
a(S'10'
S'CD'
p65
tp66
a(S'minutes'
S'NNS'
p67
tp68
a(S'.'
S'.'
tp69
aa(lp70
(S'But'
S'CC'
p71
tp72
a(S'get'
g30
tp73
a(S'in'
g55
tp74
a(S'their'
S'PRP$'
p75
tp76
a(S'quick'
g8
tp77
a(S'because'
g17
tp78
a(S'those'
S'DT'
p79
tp80
a(S'baby'
g8
tp81
a(S'backs'
S'NNS'
p82
tp83
a(S'seem'
g28
tp84
a(S'to'
g52
tp85
a(S'be'
S'VB'
p86
tp87
a(S'going'
g19
tp88
a(S'fast'
g25
tp89
a(S'!'
S'.'
tp90
aa(lp91
(S'i'
g8
tp92
a(S'went'
S'VBD'
p93
tp94
a(S'here'
S'RB'
p95
tp96
a(S'with'
S'IN'
p97
tp98
a(S'classmates'
g82
tp99
a(S'on'
S'IN'
p100
tp101
a(S'our'
S'PRP$'
p102
tp103
a(S'lunch'
g8
tp104
a(S'break'
g8
tp105
a(S'on'
g100
tp106
a(S'a'
S'DT'
p107
tp108
a(S'cold'
g6
tp109
a(S'overcast'
g8
tp110
a(S'saturday'
g8
tp111
a(S'and'
S'CC'
p112
tp113
a(S'the'
S'DT'
p114
tp115
a(S'place'
g8
tp116
a(S'was'
g15
tp117
a(S'practically'
g25
tp118
a(S'empty'
g6
tp119
a(S'.'
S'.'
tp120
aa(lp121
(S'But'
g71
tp122
a(S'compared'
S'VBN'
p123
tp124
a(S'to'
g52
tp125
a(S'every'
S'DT'
p126
tp127
a(S'take'
g30
tp128
a(S'out'
S'RP'
p129
tp130
a(S'or'
S'CC'
p131
tp132
a(S'delivery'
S'NN'
p133
tp134
a(S'restaurant'
g8
tp135
a(S"I've"
g37
tp136
a(S'tried'
g15
tp137
a(S'here'
g95
tp138
a(S'in'
g55
tp139
a(S'the'
g114
tp140
a(S'city'
S'NN'
p141
tp142
a(S'regardless'
g8
tp143
a(S'of'
S'IN'
p144
tp145
a(S'the'
g114
tp146
a(S'type'
g8
tp147
a(S'of'
g144
tp148
a(S'cuisine'
g8
tp149
a(S'May'
S'NNP'
p150
tp151
a(S"Lee's"
g37
tp152
a(S'is'
S'VBZ'
p153
tp154
a(S'VERY'
g37
tp155
a(S'consistent'
g6
tp156
a(S'.'
S'.'
tp157
aa(lp158
(S'A'
S'DT'
p159
tp160
a(S'great'
S'JJ'
p161
tp162
a(S'stop'
g8
tp163
a(S'before'
g17
tp164
a(S'ball'
g6
tp165
a(S'games'
S'NNS'
p166
tp167
a(S'or'
g131
tp168
a(S'if'
S'IN'
p169
tp170
a(S"you're"
g50
tp171
a(S'merely'
g25
tp172
a(S'looking'
S'VBG'
p173
tp174
a(S'for'
g59
tp175
a(S'a'
g107
tp176
a(S'beer'
S'NN'
p177
tp178
a(S'along'
g17
tp179
a(S'the'
g114
tp180
a(S'bay'
g8
tp181
a(S'.'
S'.'
tp182
aa(lp183
(S'My'
S'PRP$'
p184
tp185
a(S'friend'
g8
tp186
a(S','
S','
tp187
a(S'whose'
S'WP$'
p188
tp189
a(S'taste'
g8
tp190
a(S'I'
g13
tp191
a(S'trust'
g28
tp192
a(S'completely'
g25
tp193
a(S','
S','
tp194
a(S'told'
g15
tp195
a(S'me'
S'PRP'
p196
tp197
a(S'Pomelo'
g37
tp198
a(S'('
S'('
tp199
a(S'on'
g100
tp200
a(S'Judah'
g37
tp201
a(S')'
S')'
tp202
a(S'was'
g15
tp203
a(S'her'
g184
tp204
a(S'favorite'
g6
tp205
a(S'restaurant'
g8
tp206
a(S'in'
g55
tp207
a(S'the'
g114
tp208
a(S'city'
g141
tp209
a(S'.'
S'.'
tp210
aa(lp211
(S'It'
S'PRP'
p212
tp213
a(S'was'
g15
tp214
a(S'old'
S'JJ'
p215
tp216
a(S'school'
S'NN'
p217
tp218
a(S'night'
S'NN'
p219
tp220
a(S'at'
g61
tp221
a(S'CP'
g37
tp222
a(S','
S','
tp223
a(S'as'
g17
tp224
a(S'we'
S'PRP'
p225
tp226
a(S'rolled'
g15
tp227
a(S'in'
g55
tp228
a(S'with'
g97
tp229
a(S'former'
S'JJ'
p230
tp231
a(S'star'
g8
tp232
a(S'serving'
S'VBG'
p233
tp234
a(S'staff'
S'NN'
p235
tp236
a(S'Blake'
g37
tp237
a(S','
S','
tp238
a(S'Kristin'
g37
tp239
a(S','
S','
tp240
a(S'and'
g112
tp241
a(S'Erin'
g37
tp242
a(S'('
S'('
tp243
a(S'and'
g112
tp244
a(S'yours'
g25
tp245
a(S'truly'
g25
tp246
a(S','
S','
tp247
a(S'of'
g144
tp248
a(S'course'
S'NN'
p249
tp250
a(S')'
S')'
tp251
a(S'and'
g112
tp252
a(S'aside'
g25
tp253
a(S'from'
S'IN'
p254
tp255
a(S'the'
g114
tp256
a(S'fact'
S'NN'
p257
tp258
a(S'that'
g17
tp259
a(S'none'
g8
tp260
a(S'of'
g144
tp261
a(S'us'
S'PRP'
p262
tp263
a(S'was'
g15
tp264
a(S'waiting'
g233
tp265
a(S'on'
g100
tp266
a(S'us'
g262
tp267
a(S','
S','
tp268
a(S'it'
g23
tp269
a(S'was'
g15
tp270
a(S'still'
S'RB'
p271
tp272
a(S'as'
g25
tp273
a(S'good'
g6
tp274
a(S'as'
g17
tp275
a(S'I'
g13
tp276
a(S'remember'
g28
tp277
a(S'!'
S'.'
tp278
aa(lp279
(S'We'
S'PRP'
p280
tp281
a(S'just'
S'RB'
p282
tp283
a(S'went'
g93
tp284
a(S'last'
S'JJ'
p285
tp286
a(S'Friday'
S'NNP'
p287
tp288
a(S'for'
g59
tp289
a(S'a'
g107
tp290
a(S'slice'
g8
tp291
a(S'and'
g112
tp292
a(S'some'
S'DT'
p293
tp294
a(S'beers'
g82
tp295
a(S'.'
S'.'
tp296
a(S'.'
S'.'
tp297
a(S'.'
S'.'
tp298
a(S'and'
g112
tp299
a(S'KARAOKE'
g37
tp300
a(S'.'
S'.'
tp301
aa(lp302
(S'The'
S'DT'
p303
tp304
a(S'first'
g6
tp305
a(S'taqueria'
g8
tp306
a(S'I'
g13
tp307
a(S'ever'
S'RB'
p308
tp309
a(S'ate'
g28
tp310
a(S'at'
g61
tp311
a(S'in'
g55
tp312
a(S'San'
S'NNP'
p313
tp314
a(S'Francisco'
S'NNP'
p315
tp316
a(S'was'
g15
tp317
a(S'the'
g114
tp318
a(S'Taqueria'
g37
tp319
a(S'Cancun'
g37
tp320
a(S'in'
g55
tp321
a(S'the'
g114
tp322
a(S'Mission'
g37
tp323
a(S'.'
S'.'
tp324
aa(lp325
(S'We'
g280
tp326
a(S'arrived'
g15
tp327
a(S'a'
g107
tp328
a(S'little'
g6
tp329
a(S'before'
g17
tp330
a(S'our'
g102
tp331
a(S'reservation'
g8
tp332
a(S'and'
g112
tp333
a(S'when'
S'WRB'
p334
tp335
a(S'we'
g225
tp336
a(S'told'
g15
tp337
a(S'the'
g114
tp338
a(S'hostess'
g8
tp339
a(S'that'
g17
tp340
a(S'we'
g225
tp341
a(S'had'
g15
tp342
a(S'reservations'
g82
tp343
a(S','
S','
tp344
a(S'we'
g225
tp345
a(S'were'
S'VBD'
p346
tp347
a(S'met'
g50
tp348
a(S'with'
g97
tp349
a(S'a'
g107
tp350
a(S'strange'
g6
tp351
a(S'stare'
g8
tp352
a(S'but'
g11
tp353
a(S'she'
S'PRP'
p354
tp355
a(S'graciously'
g25
tp356
a(S'sat'
g15
tp357
a(S'us'
g262
tp358
a(S'at'
g61
tp359
a(S'our'
g102
tp360
a(S'table'
g8
tp361
a(S'.'
S'.'
tp362
aa(lp363
(S'I'
g13
tp364
a(S"don't"
g28
tp365
a(S'care'
g30
tp366
a(S'that'
g17
tp367
a(S'there'
S'EX'
p368
tp369
a(S'is'
g153
tp370
a(S'always'
S'RB'
p371
tp372
a(S'a'
g107
tp373
a(S'line'
g57
tp374
a(S'that'
S'WDT'
p375
tp376
a(S'goes'
S'VBZ'
p377
tp378
a(S'down'
g25
tp379
a(S'the'
g114
tp380
a(S'street'
g8
tp381
a(S'.'
S'.'
tp382
a(S'.'
S'.'
tp383
a(S'.'
S'.'
tp384
a(S'.'
S'.'
tp385
a(S'stand'
g8
tp386
a(S'on'
g100
tp387
a(S'it'
g23
tp388
a(S'and'
g112
tp389
a(S'WAIT'
g37
tp390
a(S'FOR'
g17
tp391
a(S'IT'
g37
tp392
a(S'because'
g17
tp393
a(S'this'
S'DT'
p394
tp395
a(S'cozy'
g6
tp396
a(S'little'
g6
tp397
a(S'spot'
g8
tp398
a(S'has'
S'VBZ'
p399
tp400
a(S'some'
g293
tp401
a(S'of'
g144
tp402
a(S'the'
g114
tp403
a(S'best'
g63
tp404
a(S'brunch'
g8
tp405
a(S'food'
S'NN'
p406
tp407
a(S'anywhere'
g25
tp408
a(S'.'
S'.'
tp409
aa(lp410
(S'We'
g280
tp411
a(S'had'
g15
tp412
a(S'the'
g114
tp413
a(S'five'
S'CD'
p414
tp415
a(S'course'
g249
tp416
a(S'meal'
g8
tp417
a(S'.'
S'.'
tp418
aa(lp419
(S'And'
S'CC'
p420
tp421
a(S'if'
g169
tp422
a(S'you'
g47
tp423
a(S'ask'
g28
tp424
a(S'nicely'
g25
tp425
a(S','
S','
tp426
a(S"they'll"
g15
tp427
a(S'even'
g25
tp428
a(S'bring'
g233
tp429
a(S'you'
g47
tp430
a(S'some'
g293
tp431
a(S'ketchup'
g28
tp432
a(S'!'
S'.'
tp433
aa(lp434
(S'At'
S'IN'
p435
tp436
a(S'17'
S'CD'
p437
tp438
a(S','
S','
tp439
a(S'I'
g13
tp440
a(S'was'
g15
tp441
a(S'going'
g19
tp442
a(S'to'
g52
tp443
a(S'punk'
g30
tp444
a(S'shows'
g82
tp445
a(S'in'
g55
tp446
a(S'the'
g114
tp447
a(S'early'
g6
tp448
a(S'eighties'
g82
tp449
a(S'and'
g112
tp450
a(S"Tommy's"
g37
tp451
a(S'was'
g15
tp452
a(S'one'
S'CD'
p453
tp454
a(S'of'
g144
tp455
a(S'the'
g114
tp456
a(S'only'
g6
tp457
a(S'places'
g82
tp458
a(S'that'
g375
tp459
a(S'would'
S'MD'
p460
tp461
a(S'take'
g30
tp462
a(S'my'
S'PRP$'
p463
tp464
a(S'fake'
g6
tp465
a(S'ID'
g37
tp466
a(S'('
S'('
tp467
a(S"I'm"
g37
tp468
a(S'43'
g453
tp469
a(S'now'
S'RB'
p470
tp471
a(S','
S','
tp472
a(S'so'
g17
tp473
a(S"don't"
g6
tp474
a(S'judge'
g8
tp475
a(S'me'
g196
tp476
a(S'or'
g131
tp477
a(S'Tommys'
g37
tp478
a(S')'
S')'
tp479
a(S'.'
S'.'
tp480
aa(lp481
(S'I'
g13
tp482
a(S"didn't"
g28
tp483
a(S'want'
g30
tp484
a(S'to'
g52
tp485
a(S'venture'
S'NN'
p486
tp487
a(S'far'
S'RB'
p488
tp489
a(S'in'
g55
tp490
a(S'the'
g114
tp491
a(S'rain'
g8
tp492
a(S'.'
S'.'
tp493
aa(lp494
(S'FUCK'
g37
tp495
a(S'YEAH'
g3
tp496
a(S'!'
S'.'
tp497
a(S'!'
S'.'
tp498
a(S'!'
S'.'
tp499
aa(lp500
(S'Overall'
g6
tp501
a(S'I'
g13
tp502
a(S'would'
g460
tp503
a(S'recommend'
g30
tp504
a(S'it'
g23
tp505
a(S'for'
g59
tp506
a(S'the'
g114
tp507
a(S'Farina'
g37
tp508
a(S'flour'
g8
tp509
a(S'based'
S'VBN'
p510
tp511
a(S'dishes'
g82
tp512
a(S'.'
S'.'
tp513
aa(lp514
(S'I'
g13
tp515
a(S'had'
g15
tp516
a(S'the'
g114
tp517
a(S'Meatball'
g37
tp518
a(S'OPEN'
g37
tp519
a(S'FACE'
g37
tp520
a(S'sandwich'
g8
tp521
a(S'.'
S'.'
tp522
a(S'.'
S'.'
tp523
a(S'.'
S'.'
tp524
a(S'or'
g131
tp525
a(S'as'
g17
tp526
a(S'I'
g13
tp527
a(S'like'
g28
tp528
a(S'to'
g52
tp529
a(S'call'
g30
tp530
a(S'it'
g23
tp531
a(S'TEARS'
g37
tp532
a(S'OF'
g17
tp533
a(S'A'
g37
tp534
a(S'VIRGIN'
g37
tp535
a(S'ANGEL'
g37
tp536
a(S'and'
g112
tp537
a(S'it'
g23
tp538
a(S'was'
g15
tp539
a(S'to'
g52
tp540
a(S'die'
g30
tp541
a(S'for'
g59
tp542
a(S'.'
S'.'
tp543
aa(lp544
(S'Pure'
g8
tp545
a(S','
S','
tp546
a(S'unadulterated'
g6
tp547
a(S'culinary'
g6
tp548
a(S'delight'
g8
tp549
a(S'.'
S'.'
tp550
aa(lp551
(S'The'
g303
tp552
a(S'girl'
g8
tp553
a(S'waiting'
g233
tp554
a(S'on'
g100
tp555
a(S'us'
g262
tp556
a(S'mentions'
g82
tp557
a(S'that'
g17
tp558
a(S'they'
S'PRP'
p559
tp560
a(S'also'
S'RB'
p561
tp562
a(S'have'
g28
tp563
a(S'hookahs'
g82
tp564
a(S'.'
S'.'
tp565
aa(lp566
(S'But'
g71
tp567
a(S'when'
g334
tp568
a(S'you'
g47
tp569
a(S'go'
g28
tp570
a(S'in'
g55
tp571
a(S','
S','
tp572
a(S'Lily'
g37
tp573
a(S'greets'
S'VBZ'
p574
tp575
a(S'you'
g47
tp576
a(S'like'
g17
tp577
a(S'are'
S'VBP'
p578
tp579
a(S'family'
S'NN'
p580
tp581
a(S'and'
g112
tp582
a(S'provides'
S'VBZ'
p583
tp584
a(S'the'
g114
tp585
a(S'best'
g63
tp586
a(S'and'
g112
tp587
a(S'friendliest'
g63
tp588
a(S'service'
g8
tp589
a(S'we'
g225
tp590
a(S'have'
g28
tp591
a(S'ever'
g308
tp592
a(S'received'
g50
tp593
a(S'anywhere'
g25
tp594
a(S'!'
S'.'
tp595
aa(lp596
(S'Neighborhood'
g37
tp597
a(S'Gem'
g37
tp598
a(S'.'
S'.'
tp599
aa(lp600
(S'Looking'
g233
tp601
a(S'back'
g25
tp602
a(S','
S','
tp603
a(S'I'
g13
tp604
a(S'also'
g561
tp605
a(S'really'
S'RB'
p606
tp607
a(S'liked'
g15
tp608
a(S'the'
g114
tp609
a(S'lemon'
g8
tp610
a(S'chicken'
g8
tp611
a(S'soup'
g8
tp612
a(S'.'
S'.'
tp613
aa(lp614
(S'For'
S'IN'
p615
tp616
a(S'atmosphere'
g25
tp617
a(S','
S','
tp618
a(S'food'
g406
tp619
a(S','
S','
tp620
a(S'drink'
g8
tp621
a(S'amp'
g8
tp622
a(S';'
S':'
tp623
a(S'service'
g8
tp624
a(S','
S','
tp625
a(S'the'
g114
tp626
a(S'Chieftain'
g37
tp627
a(S'was'
g15
tp628
a(S'as'
g25
tp629
a(S'good'
g6
tp630
a(S'as'
g17
tp631
a(S'any'
S'DT'
p632
tp633
a(S'Irish'
g6
tp634
a(S'pub'
g8
tp635
a(S'experience'
g8
tp636
a(S"I've"
g37
tp637
a(S'had'
g15
tp638
a(S'.'
S'.'
tp639
aa(lp640
(S'the'
g114
tp641
a(S'ladies'
g82
tp642
a(S'that'
g375
tp643
a(S'work'
g28
tp644
a(S'there'
g368
tp645
a(S'are'
g578
tp646
a(S'super'
g6
tp647
a(S'nice'
g6
tp648
a(S'and'
g112
tp649
a(S'its'
g184
tp650
a(S'an'
g159
tp651
a(S'overall'
g6
tp652
a(S'great'
g161
tp653
a(S'place'
g8
tp654
a(S'to'
g52
tp655
a(S'go'
g30
tp656
aa(lp657
(S'17'
g437
tp658
a(S'each'
S'DT'
p659
tp660
a(S','
S','
tp661
a(S'including'
S'VBG'
p662
tp663
a(S'paying'
S'VBG'
p664
tp665
a(S'for'
g59
tp666
a(S'the'
g114
tp667
a(S'bday'
g6
tp668
a(S'girl'
g8
tp669
a(S'.'
S'.'
tp670
aa(lp671
(S'The'
g303
tp672
a(S'atmosphere'
g8
tp673
a(S'is'
g153
tp674
a(S'exceptional'
g6
tp675
a(S';'
S':'
tp676
a(S'cozy'
g82
tp677
a(S'and'
g112
tp678
a(S'intimate'
g8
tp679
a(S','
S','
tp680
a(S'yet'
g25
tp681
a(S'still'
g271
tp682
a(S'cosmopolitan'
g30
tp683
a(S'.'
S'.'
tp684
aa(lp685
(S'Are'
g37
tp686
a(S'you'
g47
tp687
a(S'hungry'
g6
tp688
a(S'?'
S'.'
tp689
aa(lp690
(S'The'
g303
tp691
a(S'tight'
g6
tp692
a(S'fit'
g8
tp693
a(S'between'
S'IN'
p694
tp695
a(S'tables'
g82
tp696
a(S'adds'
S'VBZ'
p697
tp698
a(S'to'
g52
tp699
a(S'the'
g114
tp700
a(S'quaintness'
g8
tp701
a(S','
S','
tp702
a(S'very'
g25
tp703
a(S'appropriate'
g6
tp704
a(S'for'
g59
tp705
a(S'Glen'
g37
tp706
a(S'Park'
g37
tp707
a(S'!'
S'.'
tp708
aa(lp709
(S'its'
g184
tp710
a(S'mind'
g8
tp711
a(S'boggling'
g8
tp712
a(S'and'
g112
tp713
a(S'unique'
g8
tp714
a(S','
S','
tp715
a(S'which'
g375
tp716
a(S'cannot'
g28
tp717
a(S'be'
g86
tp718
a(S'said'
S'VBD'
p719
tp720
a(S'for'
g59
tp721
a(S'most'
g63
tp722
a(S'establishments'
g82
tp723
a(S'.'
S'.'
tp724
aa(lp725
(S'communal'
g6
tp726
a(S'tables'
g82
tp727
a(S'are'
g578
tp728
a(S'not'
S'RB'
p729
tp730
a(S'so'
g25
tp731
a(S'good'
g6
tp732
a(S'for'
g59
tp733
a(S'dates'
g82
tp734
a(S','
S','
tp735
a(S'but'
g11
tp736
a(S'good'
g6
tp737
a(S'for'
g59
tp738
a(S'bigger'
S'JJR'
p739
tp740
a(S'groups'
S'NNS'
p741
tp742
a(S','
S','
tp743
a(S'etc'
S'FW'
p744
tp745
a(S'.'
S'.'
tp746
aa(lp747
(S'I'
g13
tp748
a(S'have'
g28
tp749
a(S'taken'
S'VBN'
p750
tp751
a(S'everyone'
S'NN'
p752
tp753
a(S'and'
g112
tp754
a(S'their'
g75
tp755
a(S'mom'
g8
tp756
a(S'here'
g95
tp757
a(S'and'
g112
tp758
a(S'I'
g13
tp759
a(S'will'
S'MD'
p760
tp761
a(S'keep'
g30
tp762
a(S'on'
g100
tp763
a(S'coming'
g233
tp764
a(S'back'
g25
tp765
a(S'!'
S'.'
tp766
aa(lp767
(S"I'm"
g37
tp768
a(S'not'
g729
tp769
a(S'surprised'
g15
tp770
a(S'.'
S'.'
tp771
aa(lp772
(S'Their'
g184
tp773
a(S'regular'
g6
tp774
a(S'menu'
g8
tp775
a(S'lists'
g82
tp776
a(S'GF'
g37
tp777
a(S'or'
g131
tp778
a(S'gluten'
g50
tp779
a(S'free'
g6
tp780
a(S'version'
S'NN'
p781
tp782
a(S'available'
S'JJ'
p783
tp784
a(S'.'
S'.'
tp785
aa(lp786
(S'the'
g114
tp787
a(S'menu'
g8
tp788
a(S'was'
g15
tp789
a(S'laid'
g50
tp790
a(S'out'
g129
tp791
a(S'in'
g55
tp792
a(S'a'
g107
tp793
a(S'very'
g25
tp794
a(S'Italian'
g6
tp795
a(S'osteria'
g8
tp796
a(S'way'
S'NN'
p797
tp798
a(S'.'
S'.'
tp799
aa(lp800
(S'Or'
S'CC'
p801
tp802
a(S'at'
g61
tp803
a(S'least'
g63
tp804
a(S'the'
g114
tp805
a(S'afternoon'
S'NN'
p806
tp807
a(S'.'
S'.'
tp808
aa(lp809
(S"Can't"
g37
tp810
a(S'go'
g30
tp811
a(S'wrong'
g6
tp812
a(S'.'
S'.'
tp813
aa(lp814
(S'True'
g8
tp815
a(S','
S','
tp816
a(S'the'
g114
tp817
a(S'wait'
g8
tp818
a(S'is'
g153
tp819
a(S'long'
g25
tp820
a(S','
S','
tp821
a(S'but'
g11
tp822
a(S'the'
g114
tp823
a(S'food'
g406
tp824
a(S'is'
g153
tp825
a(S'incredibly'
g25
tp826
a(S'fresh'
g6
tp827
a(S'.'
S'.'
tp828
aa(lp829
(S')'
S')'
tp830
a(S'One'
g453
tp831
a(S'thing'
S'NN'
p832
tp833
a(S'for'
g59
tp834
a(S'sure'
g6
tp835
a(S','
S','
tp836
a(S'not'
g729
tp837
a(S'meant'
g50
tp838
a(S'for'
g59
tp839
a(S'big'
S'JJ'
p840
tp841
a(S'groups'
g741
tp842
a(S'.'
S'.'
tp843
aa(lp844
(S'Getting'
g233
tp845
a(S'a'
g107
tp846
a(S'hot'
g6
tp847
a(S'slice'
g8
tp848
a(S'straight'
g15
tp849
a(S'out'
g17
tp850
a(S'of'
g144
tp851
a(S'the'
g114
tp852
a(S'oven'
g8
tp853
a(S'is'
g153
tp854
a(S'like'
g17
tp855
a(S'getting'
S'VBG'
p856
tp857
a(S'a'
g107
tp858
a(S'donut'
g8
tp859
a(S'straight'
g15
tp860
a(S'out'
g17
tp861
a(S'of'
g144
tp862
a(S'the'
g114
tp863
a(S'fryer'
g8
tp864
a(S'.'
S'.'
tp865
aa(lp866
(S'if'
g169
tp867
a(S'you'
g47
tp868
a(S'want'
g28
tp869
a(S'the'
g114
tp870
a(S'whole'
g6
tp871
a(S'experience'
g8
tp872
a(S','
S','
tp873
a(S'the'
g114
tp874
a(S'perfect'
g6
tp875
a(S'drink'
g8
tp876
a(S'to'
g52
tp877
a(S'accompany'
g30
tp878
a(S'your'
S'PRP$'
p879
tp880
a(S'slice'
g8
tp881
a(S'('
S'('
tp882
a(S's'
g8
tp883
a(S')'
S')'
tp884
a(S'is'
g153
tp885
a(S'the'
g114
tp886
a(S'suicide'
g6
tp887
a(S'earthquake'
S'NN'
p888
tp889
a(S'whatever'
g375
tp890
a(S'you'
g47
tp891
a(S'call'
g28
tp892
a(S'some'
g293
tp893
a(S'of'
g144
tp894
a(S'each'
g659
tp895
a(S'from'
g254
tp896
a(S'the'
g114
tp897
a(S'soda'
g8
tp898
a(S'dispenser'
g8
tp899
a(S'('
S'('
tp900
a(S'but'
g11
tp901
a(S'skip'
g574
tp902
a(S'the'
g114
tp903
a(S'lemonade'
g8
tp904
a(S')'
S')'
tp905
aa(lp906
(S'If'
S'IN'
p907
tp908
a(S'you'
g47
tp909
a(S'want'
g28
tp910
a(S'souffles'
g82
tp911
a(S'('
S'('
tp912
a(S'chocolate'
g8
tp913
a(S'or'
g131
tp914
a(S'Grand'
S'NNP'
p915
tp916
a(S'Marnier'
g37
tp917
a(S')'
S')'
tp918
a(S','
S','
tp919
a(S'you'
g47
tp920
a(S'need'
g28
tp921
a(S'to'
g52
tp922
a(S'order'
S'NN'
p923
tp924
a(S'those'
g79
tp925
a(S'at'
g61
tp926
a(S'the'
g114
tp927
a(S'beginning'
g8
tp928
a(S';'
S':'
tp929
a(S'extra'
g6
tp930
a(S'6'
S'CD'
p931
tp932
a(S'.'
S'.'
tp933
aa(lp934
(S"It's"
g37
tp935
a(S'not'
g729
tp936
a(S'one'
g453
tp937
a(S'of'
g144
tp938
a(S'those'
g79
tp939
a(S'places'
g82
tp940
a(S'that'
g375
tp941
a(S'Yelpers'
g82
tp942
a(S'normally'
g25
tp943
a(S'rave'
g28
tp944
a(S'about'
g17
tp945
a(S','
S','
tp946
a(S'but'
g11
tp947
a(S"it's"
g574
tp948
a(S'a'
g107
tp949
a(S'place'
g8
tp950
a(S'I'
g13
tp951
a(S'end'
g28
tp952
a(S'up'
g25
tp953
a(S'going'
g19
tp954
a(S'to'
g52
tp955
a(S'over'
g30
tp956
a(S'and'
g112
tp957
a(S'over'
g25
tp958
a(S'.'
S'.'
tp959
aa(lp960
(S'We'
g280
tp961
a(S'had'
g15
tp962
a(S'the'
g114
tp963
a(S'Angel'
g37
tp964
a(S'Wings'
g37
tp965
a(S'which'
g375
tp966
a(S'were'
g346
tp967
a(S'5'
S'CD'
p968
tp969
a(S'.'
S'.'
tp970
a(S'95'
g453
tp971
a(S'and'
g112
tp972
a(S'most'
g63
tp973
a(S'of'
g144
tp974
a(S'the'
g114
tp975
a(S'other'
S'JJ'
p976
tp977
a(S'appetizers'
g82
tp978
a(S'were'
g346
tp979
a(S'the'
g114
tp980
a(S'same'
S'JJ'
p981
tp982
a(S'price'
S'NN'
p983
tp984
a(S','
S','
tp985
a(S'which'
g375
tp986
a(S'was'
g15
tp987
a(S'nice'
g6
tp988
a(S'.'
S'.'
tp989
aa(lp990
(S'So'
g25
tp991
a(S"don't"
g6
tp992
a(S'complain'
g8
tp993
a(S'about'
g17
tp994
a(S'them'
S'PRP'
p995
tp996
a(S'not'
g729
tp997
a(S'taking'
g233
tp998
a(S'reservations'
g82
tp999
a(S'.'
S'.'
tp1000
aa(lp1001
(S'Great'
g37
tp1002
a(S'food'
g406
tp1003
a(S','
S','
tp1004
a(S'reasonable'
g6
tp1005
a(S'prices'
S'NNS'
p1006
tp1007
a(S'.'
S'.'
tp1008
aa(lp1009
(S'We'
g280
tp1010
a(S'waited'
g15
tp1011
a(S'about'
g17
tp1012
a(S'15'
S'CD'
p1013
tp1014
a(S'minutes'
g67
tp1015
a(S','
S','
tp1016
a(S'it'
g23
tp1017
a(S"wasn't"
g15
tp1018
a(S'too'
S'RB'
p1019
tp1020
a(S'bad'
S'JJ'
p1021
tp1022
a(S'.'
S'.'
tp1023
aa(lp1024
(S'i'
g8
tp1025
a(S'will'
g760
tp1026
a(S'definitely'
g25
tp1027
a(S'be'
g86
tp1028
a(S'back'
g25
tp1029
a(S'in'
g55
tp1030
a(S'the'
g114
tp1031
a(S'future'
g8
tp1032
a(S'.'
S'.'
tp1033
aa(lp1034
(S'small'
S'JJ'
p1035
tp1036
a(S'cheese'
g8
tp1037
a(S'lovers'
g82
tp1038
a(S'pizza'
g28
tp1039
a(S'w'
g6
tp1040
a(S'basil'
g8
tp1041
a(S'.'
S'.'
tp1042
aa(lp1043
(S'Maybe'
g25
tp1044
a(S'not'
g729
tp1045
a(S'the'
g114
tp1046
a(S'fanciest'
g63
tp1047
a(S'or'
g131
tp1048
a(S'most'
S'RBS'
p1049
tp1050
a(S'hip'
g6
tp1051
a(S'Italian'
g6
tp1052
a(S'restaurant'
g8
tp1053
a(S'in'
g55
tp1054
a(S'town'
S'NN'
p1055
tp1056
a(S'but'
g11
tp1057
a(S'definitely'
g25
tp1058
a(S'one'
g453
tp1059
a(S'of'
g144
tp1060
a(S'my'
g463
tp1061
a(S'favorites'
g82
tp1062
a(S'.'
S'.'
tp1063
aa(lp1064
(S'Or'
g801
tp1065
a(S'maybe'
g25
tp1066
a(S'changed'
g50
tp1067
a(S'and'
g112
tp1068
a(S'then'
S'RB'
p1069
tp1070
a(S'remade'
g30
tp1071
a(S'.'
S'.'
tp1072
aa(lp1073
(S'The'
g303
tp1074
a(S'variety'
g8
tp1075
a(S'and'
g112
tp1076
a(S'single'
S'JJ'
p1077
tp1078
a(S'servings'
g82
tp1079
a(S'makes'
S'VBZ'
p1080
tp1081
a(S'it'
g23
tp1082
a(S'hard'
g6
tp1083
a(S'not'
g729
tp1084
a(S'to'
g52
tp1085
a(S'buy'
g30
tp1086
a(S'one'
g453
tp1087
a(S'along'
g17
tp1088
a(S'with'
g97
tp1089
a(S'your'
g879
tp1090
a(S'giant'
g6
tp1091
a(S'salad'
g8
tp1092
a(S'.'
S'.'
tp1093
aa(lp1094
(S'This'
S'DT'
p1095
tp1096
a(S'is'
g153
tp1097
a(S'not'
g729
tp1098
a(S'really'
g606
tp1099
a(S'a'
g107
tp1100
a(S'fusion'
g8
tp1101
a(S'dish'
g8
tp1102
a(S';'
S':'
tp1103
a(S"it's"
g8
tp1104
a(S'made'
g15
tp1105
a(S'in'
g55
tp1106
a(S'the'
g114
tp1107
a(S'Indian'
g6
tp1108
a(S'style'
S'NN'
p1109
tp1110
a(S','
S','
tp1111
a(S'but'
g11
tp1112
a(S"it's"
g6
tp1113
a(S'very'
g25
tp1114
a(S'good'
g6
tp1115
a(S'.'
S'.'
tp1116
aa(lp1117
(S'It'
g212
tp1118
a(S'comes'
S'VBZ'
p1119
tp1120
a(S'with'
g97
tp1121
a(S"Mama's"
g37
tp1122
a(S'famous'
g6
tp1123
a(S'homemade'
g8
tp1124
a(S'dipping'
g233
tp1125
a(S'jam'
g8
tp1126
a(S'and'
g112
tp1127
a(S'oranges'
g574
tp1128
a(S'strawberries'
g82
tp1129
a(S'.'
S'.'
tp1130
aa(lp1131
(S'I'
g13
tp1132
a(S'would'
g460
tp1133
a(S'recommend'
g30
tp1134
a(S'ordering'
g233
tp1135
a(S'it'
g23
tp1136
a(S'to'
g52
tp1137
a(S'share'
S'NN'
p1138
tp1139
a(S"it's"
g30
tp1140
a(S'a'
g107
tp1141
a(S'must'
S'MD'
p1142
tp1143
a(S'try'
g30
tp1144
a(S'.'
S'.'
tp1145
aa(lp1146
(S'Loved'
g50
tp1147
a(S'it'
g23
tp1148
a(S'.'
S'.'
tp1149
aa(lp1150
(S'Anchor'
g37
tp1151
a(S'Oyster'
g37
tp1152
a(S'Bar'
g37
tp1153
a(S'is'
g153
tp1154
a(S'a'
g107
tp1155
a(S'great'
g161
tp1156
a(S'place'
g8
tp1157
a(S'for'
g59
tp1158
a(S'fresh'
g6
tp1159
a(S'seafood'
g8
tp1160
a(S'.'
S'.'
tp1161
aa(lp1162
(S'It'
g212
tp1163
a(S'definitely'
g25
tp1164
a(S'satisfied'
g15
tp1165
a(S'my'
g463
tp1166
a(S'craving'
g8
tp1167
a(S'for'
g59
tp1168
a(S'some'
g293
tp1169
a(S'artery'
g8
tp1170
a(S'clogging'
g8
tp1171
a(S'.'
S'.'
tp1172
aa(lp1173
(S'A'
g159
tp1174
a(S'boy'
g8
tp1175
a(S'took'
S'VBD'
p1176
tp1177
a(S'me'
g196
tp1178
a(S'there'
g368
tp1179
a(S'the'
g114
tp1180
a(S'weekend'
S'NN'
p1181
tp1182
a(S'after'
S'IN'
p1183
tp1184
a(S'my'
g463
tp1185
a(S'birthday'
g8
tp1186
a(S','
S','
tp1187
a(S'and'
g112
tp1188
a(S'I'
g13
tp1189
a(S"hadn't"
g28
tp1190
a(S'really'
g606
tp1191
a(S'celebrated'
g50
tp1192
a(S'it'
g23
tp1193
a(S'cause'
g8
tp1194
a(S'I'
g13
tp1195
a(S'was'
g15
tp1196
a(S'bummed'
g50
tp1197
a(S'out'
g129
tp1198
a(S'to'
g52
tp1199
a(S'be'
g86
tp1200
a(S'getting'
g856
tp1201
a(S'older'
S'JJR'
p1202
tp1203
a(S','
S','
tp1204
a(S'but'
g11
tp1205
a(S'boy'
g25
tp1206
a(S'did'
S'VBD'
p1207
tp1208
a(S'the'
g114
tp1209
a(S'staff'
g235
tp1210
a(S'make'
g28
tp1211
a(S'me'
g196
tp1212
a(S'feel'
g30
tp1213
a(S'like'
g17
tp1214
a(S'I'
g13
tp1215
a(S'was'
g15
tp1216
a(S'special'
g6
tp1217
a(S'and'
g112
tp1218
a(S'my'
g463
tp1219
a(S'birthday'
g8
tp1220
a(S'was'
g15
tp1221
a(S'special'
g6
tp1222
a(S'.'
S'.'
tp1223
aa(lp1224
(S'I'
g13
tp1225
a(S'will'
g760
tp1226
a(S'be'
g86
tp1227
a(S'here'
g95
tp1228
a(S'more'
S'RBR'
p1229
tp1230
a(S'often'
S'RB'
p1231
tp1232
a(S'whenever'
g334
tp1233
a(S'I'
g13
tp1234
a(S'need'
g28
tp1235
a(S'to'
g52
tp1236
a(S'get'
g30
tp1237
a(S'my'
g463
tp1238
a(S'Korean'
g6
tp1239
a(S'food'
g406
tp1240
a(S'fix'
g8
tp1241
a(S'.'
S'.'
tp1242
aa(lp1243
(S'It'
g212
tp1244
a(S'was'
g15
tp1245
a(S'DELICIOUS'
g37
tp1246
a(S'!'
S'.'
tp1247
aa(lp1248
(S'The'
g303
tp1249
a(S'service'
g8
tp1250
a(S'was'
g15
tp1251
a(S'top'
g6
tp1252
a(S'notch'
g8
tp1253
a(S'and'
g112
tp1254
a(S'our'
g102
tp1255
a(S'waitress'
g8
tp1256
a(S'was'
g15
tp1257
a(S'knowledgeable'
g6
tp1258
a(S','
S','
tp1259
a(S'friendly'
g6
tp1260
a(S'('
S'('
tp1261
a(S'without'
S'IN'
p1262
tp1263
a(S'being'
S'VBG'
p1264
tp1265
a(S'obsequious'
g6
tp1266
a(S'or'
g131
tp1267
a(S'obtrusive'
g6
tp1268
a(S')'
S')'
tp1269
a(S'and'
g112
tp1270
a(S'efficient'
g6
tp1271
a(S'.'
S'.'
tp1272
aa(lp1273
(S'It'
g212
tp1274
a(S'was'
g15
tp1275
a(S'quite'
g25
tp1276
a(S'bland'
g6
tp1277
a(S'and'
g112
tp1278
a(S'inconsistent'
g6
tp1279
a(S','
S','
tp1280
a(S'he'
S'PRP'
p1281
tp1282
a(S'regreted'
g15
tp1283
a(S'not'
g729
tp1284
a(S'ordering'
g233
tp1285
a(S'3'
g453
tp1286
a(S'6'
g931
tp1287
a(S'chicken'
g8
tp1288
a(S'skewer'
g1202
tp1289
a(S'appetizers'
g82
tp1290
a(S'instead'
S'RB'
p1291
tp1292
a(S'of'
g144
tp1293
a(S'1'
S'CD'
p1294
tp1295
a(S'20'
S'CD'
p1296
tp1297
a(S'bland'
g8
tp1298
a(S'chicken'
g8
tp1299
a(S'.'
S'.'
tp1300
aa(lp1301
(S'I'
g13
tp1302
a(S'was'
g15
tp1303
a(S'out'
g129
tp1304
a(S'with'
g97
tp1305
a(S'my'
g463
tp1306
a(S'girls'
g82
tp1307
a(S'enjoying'
g233
tp1308
a(S'some'
g293
tp1309
a(S'drinks'
g82
tp1310
a(S'.'
S'.'
tp1311
aa(lp1312
(S'The'
g303
tp1313
a(S'creamed'
g6
tp1314
a(S'spinach'
g8
tp1315
a(S'was'
g15
tp1316
a(S'tasty'
g6
tp1317
a(S','
S','
tp1318
a(S'w'
g30
tp1319
a(S'a'
g107
tp1320
a(S'hint'
g8
tp1321
a(S'of'
g144
tp1322
a(S'nutmeg'
g8
tp1323
a(S'.'
S'.'
tp1324
aa(lp1325
(S'My'
g184
tp1326
a(S'friend'
g8
tp1327
a(S'and'
g112
tp1328
a(S'I'
g13
tp1329
a(S'received'
g15
tp1330
a(S'excellent'
g6
tp1331
a(S'service'
g8
tp1332
a(S'at'
g61
tp1333
a(S'the'
g114
tp1334
a(S'Marina'
g37
tp1335
a(S'spot'
g8
tp1336
a(S'as'
g25
tp1337
a(S'well'
g25
tp1338
a(S'from'
g254
tp1339
a(S'the'
g114
tp1340
a(S'friendly'
g6
tp1341
a(S'and'
g112
tp1342
a(S'welcoming'
g6
tp1343
a(S'waitstaff'
g8
tp1344
a(S'.'
S'.'
tp1345
aa(lp1346
(S'The'
g303
tp1347
a(S'mussels'
g82
tp1348
a(S'and'
g112
tp1349
a(S'the'
g114
tp1350
a(S'fresh'
g6
tp1351
a(S'fish'
g8
tp1352
a(S'are'
g578
tp1353
a(S'delicious'
g6
tp1354
a(S'('
S'('
tp1355
a(S'my'
g463
tp1356
a(S'favorite'
g8
tp1357
a(S'is'
g153
tp1358
a(S'the'
g114
tp1359
a(S'salmon'
g8
tp1360
a(S'with'
g97
tp1361
a(S'beurre'
g6
tp1362
a(S'blanc'
g8
tp1363
a(S')'
S')'
tp1364
a(S','
S','
tp1365
a(S'and'
g112
tp1366
a(S'the'
g114
tp1367
a(S'one'
g453
tp1368
a(S'time'
S'NN'
p1369
tp1370
a(S'I'
g13
tp1371
a(S'decided'
g15
tp1372
a(S'to'
g52
tp1373
a(S'branch'
g30
tp1374
a(S'out'
g129
tp1375
a(S'and'
g112
tp1376
a(S'get'
g30
tp1377
a(S'a'
g107
tp1378
a(S'steak'
g8
tp1379
a(S'it'
g23
tp1380
a(S'was'
g15
tp1381
a(S'very'
g25
tp1382
a(S'tasty'
g6
tp1383
a(S','
S','
tp1384
a(S'too'
g1019
tp1385
a(S'.'
S'.'
tp1386
aa(lp1387
(S'I'
g13
tp1388
a(S"haven't"
g28
tp1389
a(S'really'
g606
tp1390
a(S'gone'
S'VBN'
p1391
tp1392
a(S'there'
g25
tp1393
a(S'often'
g1231
tp1394
a(S'for'
g59
tp1395
a(S'the'
g114
tp1396
a(S'bar'
g8
tp1397
a(S','
S','
tp1398
a(S"I've"
g37
tp1399
a(S'been'
S'VBN'
p1400
tp1401
a(S'there'
g25
tp1402
a(S'more'
g1229
tp1403
a(S'for'
g59
tp1404
a(S'the'
g114
tp1405
a(S'food'
g406
tp1406
a(S'.'
S'.'
tp1407
aa(lp1408
(S'My'
g184
tp1409
a(S'palate'
g8
tp1410
a(S'is'
g153
tp1411
a(S'not'
g729
tp1412
a(S'yet'
g25
tp1413
a(S'able'
S'JJ'
p1414
tp1415
a(S'to'
g52
tp1416
a(S'distinguish'
g30
tp1417
a(S'whether'
S'IN'
p1418
tp1419
a(S'this'
g394
tp1420
a(S'is'
g153
tp1421
a(S'a'
g107
tp1422
a(S'very'
g25
tp1423
a(S'fine'
g6
tp1424
a(S'coffee'
g8
tp1425
a(S','
S','
tp1426
a(S'so'
g17
tp1427
a(S'for'
g59
tp1428
a(S'now'
g470
tp1429
a(S"it's"
g574
tp1430
a(S'not'
g729
tp1431
a(S'worth'
g6
tp1432
a(S'my'
g463
tp1433
a(S'5'
g968
tp1434
a(S'bucks'
g82
tp1435
a(S'.'
S'.'
tp1436
aa(lp1437
(S'Juicy'
g8
tp1438
a(S','
S','
tp1439
a(S'flavorful'
g6
tp1440
a(S','
S','
tp1441
a(S'abundant'
g6
tp1442
a(S','
S','
tp1443
a(S'large'
S'JJ'
p1444
tp1445
a(S'.'
S'.'
tp1446
aa(lp1447
(S'Being'
g233
tp1448
a(S'the'
g114
tp1449
a(S'mere'
g6
tp1450
a(S'mortals'
g82
tp1451
a(S'we'
g225
tp1452
a(S'are'
g578
tp1453
a(S','
S','
tp1454
a(S'the'
g114
tp1455
a(S'answer'
g8
tp1456
a(S'shoulda'
g8
tp1457
a(S'been'
g1400
tp1458
a(S"'no'"
S'POS'
p1459
tp1460
a(S'.'
S'.'
tp1461
aa(lp1462
(S'Of'
S'IN'
p1463
tp1464
a(S'that'
g159
tp1465
a(S'wait'
g8
tp1466
a(S','
S','
tp1467
a(S'thirty'
g8
tp1468
a(S'to'
g52
tp1469
a(S'forty'
g30
tp1470
a(S'five'
g414
tp1471
a(S'minutes'
g67
tp1472
a(S'were'
g346
tp1473
a(S'spent'
g50
tp1474
a(S'outside'
g25
tp1475
a(S','
S','
tp1476
a(S'queued'
g15
tp1477
a(S'up'
g129
tp1478
a(S','
S','
tp1479
a(S'listening'
g233
tp1480
a(S'to'
g52
tp1481
a(S'a'
g107
tp1482
a(S'bearded'
g6
tp1483
a(S'gentleman'
g8
tp1484
a(S'of'
g144
tp1485
a(S'dubious'
g6
tp1486
a(S'residential'
g6
tp1487
a(S'status'
S'NN'
p1488
tp1489
a(S'give'
g28
tp1490
a(S'us'
g262
tp1491
a(S'extensive'
g6
tp1492
a(S'and'
g112
tp1493
a(S'severe'
g6
tp1494
a(S'warnings'
g82
tp1495
a(S'about'
g17
tp1496
a(S'the'
g114
tp1497
a(S'Kennedy'
g37
tp1498
a(S'family'
g580
tp1499
a(S','
S','
tp1500
a(S'their'
g75
tp1501
a(S'political'
S'JJ'
p1502
tp1503
a(S'connections'
g82
tp1504
a(S','
S','
tp1505
a(S'the'
g114
tp1506
a(S'nefarious'
g6
tp1507
a(S'means'
g82
tp1508
a(S'by'
S'IN'
p1509
tp1510
a(S'which'
g375
tp1511
a(S'they'
g559
tp1512
a(S'had'
g15
tp1513
a(S'stolen'
g50
tp1514
a(S'ideas'
g82
tp1515
a(S'for'
g59
tp1516
a(S'patents'
g82
tp1517
a(S'from'
g254
tp1518
a(S'his'
S'PRP$'
p1519
tp1520
a(S'brain'
S'NN'
p1521
tp1522
a(S','
S','
tp1523
a(S'and'
g112
tp1524
a(S'the'
g114
tp1525
a(S'insidious'
g6
tp1526
a(S'murder'
g8
tp1527
a(S'of'
g144
tp1528
a(S'his'
g1519
tp1529
a(S'father'
g8
tp1530
a(S','
S','
tp1531
a(S'who'
S'WP'
p1532
tp1533
a(S'simply'
S'RB'
p1534
tp1535
a(S'wanted'
g15
tp1536
a(S'to'
g52
tp1537
a(S'go'
g30
tp1538
a(S'home'
g8
tp1539
a(S'.'
S'.'
tp1540
aa(lp1541
(S'I'
g13
tp1542
a(S'was'
g15
tp1543
a(S'given'
S'VBN'
p1544
tp1545
a(S'a'
g107
tp1546
a(S'Groupon'
g37
tp1547
a(S'to'
g52
tp1548
a(S'Chenery'
g37
tp1549
a(S'Park'
g37
tp1550
a(S'and'
g112
tp1551
a(S'took'
g1176
tp1552
a(S'my'
g463
tp1553
a(S'friend'
g8
tp1554
a(S'here'
g95
tp1555
a(S'.'
S'.'
tp1556
aa(lp1557
(S'I'
g13
tp1558
a(S'have'
g28
tp1559
a(S'to'
g52
tp1560
a(S'come'
g30
tp1561
a(S'back'
g25
tp1562
a(S'!'
S'.'
tp1563
aa(lp1564
(S'I'
g13
tp1565
a(S'have'
g28
tp1566
a(S'to'
g52
tp1567
a(S'believe'
g30
tp1568
a(S'there'
g368
tp1569
a(S'is'
g153
tp1570
a(S'truth'
g8
tp1571
a(S'to'
g52
tp1572
a(S'this'
g394
tp1573
a(S'.'
S'.'
tp1574
aa(lp1575
(S'Not'
S'RB'
p1576
tp1577
a(S'much'
g25
tp1578
a(S'has'
g399
tp1579
a(S'changed'
g50
tp1580
a(S'from'
g254
tp1581
a(S'the'
g114
tp1582
a(S'time'
g1369
tp1583
a(S'I'
g13
tp1584
a(S'was'
g15
tp1585
a(S'a'
g107
tp1586
a(S'six'
S'CD'
p1587
tp1588
a(S'to'
g52
tp1589
a(S'now'
g470
tp1590
a(S','
S','
tp1591
a(S'except'
g17
tp1592
a(S'they'
g559
tp1593
a(S'added'
g15
tp1594
a(S'Nuevo'
g37
tp1595
a(S'to'
g52
tp1596
a(S'its'
g184
tp1597
a(S'name'
g8
tp1598
a(S'.'
S'.'
tp1599
aa(lp1600
(S'The'
g303
tp1601
a(S'decor'
g8
tp1602
a(S'is'
g153
tp1603
a(S'appropriate'
g6
tp1604
a(S'.'
S'.'
tp1605
aa(lp1606
(S"They'd"
g37
tp1607
a(S'get'
g28
tp1608
a(S'5'
g968
tp1609
a(S'starts'
g82
tp1610
a(S'if'
g169
tp1611
a(S'these'
S'DT'
p1612
tp1613
a(S'two'
S'CD'
p1614
tp1615
a(S'items'
S'NNS'
p1616
tp1617
a(S'reterned'
g15
tp1618
a(S'to'
g52
tp1619
a(S'the'
g114
tp1620
a(S'menu'
g8
tp1621
a(S'.'
S'.'
tp1622
a(S'.'
S'.'
tp1623
a(S'.'
S'.'
tp1624
a(S'even'
g25
tp1625
a(S'if'
g169
tp1626
a(S'just'
g282
tp1627
a(S'seasonally'
g25
tp1628
a(S'.'
S'.'
tp1629
aa(lp1630
(S'The'
g303
tp1631
a(S'pork'
g8
tp1632
a(S'bun'
g8
tp1633
a(S'was'
g15
tp1634
a(S'just'
g282
tp1635
a(S'as'
g25
tp1636
a(S'good'
g6
tp1637
a(S'as'
g17
tp1638
a(S'I'
g13
tp1639
a(S'expected'
g15
tp1640
a(S','
S','
tp1641
a(S'so'
g25
tp1642
a(S'light'
g6
tp1643
a(S'and'
g112
tp1644
a(S'fluffy'
g574
tp1645
a(S'the'
g114
tp1646
a(S'pork'
g8
tp1647
a(S'tender'
g8
tp1648
a(S'and'
g112
tp1649
a(S'not'
g729
tp1650
a(S'too'
g1019
tp1651
a(S'sweet'
g6
tp1652
a(S','
S','
tp1653
a(S'and'
g112
tp1654
a(S'the'
g114
tp1655
a(S'shrimp'
g6
tp1656
a(S'dumplings'
g82
tp1657
a(S'were'
g346
tp1658
a(S'really'
g606
tp1659
a(S'good'
g6
tp1660
a(S'.'
S'.'
tp1661
aa(lp1662
(S'They'
S'PRP'
p1663
tp1664
a(S'also'
g561
tp1665
a(S'have'
g28
tp1666
a(S'a'
g107
tp1667
a(S'full'
S'JJ'
p1668
tp1669
a(S'Italian'
g6
tp1670
a(S'menu'
g8
tp1671
a(S','
S','
tp1672
a(S'which'
g375
tp1673
a(S'I'
g13
tp1674
a(S'hope'
g28
tp1675
a(S'to'
g52
tp1676
a(S'try'
g30
tp1677
a(S'out'
g129
tp1678
a(S'soon'
S'RB'
p1679
tp1680
a(S'.'
S'.'
tp1681
aa(lp1682
(S'break'
g8
tp1683
a(S'into'
g21
tp1684
a(S'the'
g114
tp1685
a(S'egg'
g8
tp1686
a(S'and'
g112
tp1687
a(S'juicy'
g8
tp1688
a(S'yellow'
g6
tp1689
a(S'yolk'
g8
tp1690
a(S'smothers'
g82
tp1691
a(S'your'
g879
tp1692
a(S'crab'
g8
tp1693
a(S'adding'
S'VBG'
p1694
tp1695
a(S'plentiful'
g8
tp1696
a(S'of'
g144
tp1697
a(S'flavor'
g8
tp1698
a(S'to'
g52
tp1699
a(S'an'
g159
tp1700
a(S'already'
S'RB'
p1701
tp1702
a(S'flavorful'
g6
tp1703
a(S'dish'
g8
tp1704
a(S'!'
S'.'
tp1705
aa(lp1706
(S'It'
g212
tp1707
a(S'was'
g15
tp1708
a(S'a'
g107
tp1709
a(S'phrase'
g8
tp1710
a(S"I'd"
g37
tp1711
a(S'be'
g86
tp1712
a(S'repeating'
g233
tp1713
a(S'to'
g52
tp1714
a(S'make'
g30
tp1715
a(S'my'
g463
tp1716
a(S'friends'
g82
tp1717
a(S'laugh'
g25
tp1718
a(S'.'
S'.'
tp1719
aa(lp1720
(S'The'
g303
tp1721
a(S'place'
g8
tp1722
a(S'was'
g15
tp1723
a(S'hopping'
g233
tp1724
a(S','
S','
tp1725
a(S'even'
g25
tp1726
a(S'at'
g61
tp1727
a(S'our'
g102
tp1728
a(S'early'
g6
tp1729
a(S'dinner'
g8
tp1730
a(S'hour'
S'NN'
p1731
tp1732
a(S'of'
g144
tp1733
a(S'6'
g931
tp1734
a(S'30PM'
g453
tp1735
a(S'.'
S'.'
tp1736
aa(lp1737
(S'I'
g13
tp1738
a(S'seriously'
g25
tp1739
a(S'believe'
g28
tp1740
a(S'that'
g17
tp1741
a(S'you'
g47
tp1742
a(S'can'
S'MD'
p1743
tp1744
a(S'gauge'
g30
tp1745
a(S'how'
S'WRB'
p1746
tp1747
a(S'skilled'
g6
tp1748
a(S'a'
g107
tp1749
a(S'chef'
g8
tp1750
a(S'really'
g606
tp1751
a(S'is'
g153
tp1752
a(S'by'
g1509
tp1753
a(S'trying'
S'VBG'
p1754
tp1755
a(S'the'
g114
tp1756
a(S'vegetarian'
g6
tp1757
a(S'tasting'
g8
tp1758
a(S'menu'
g8
tp1759
a(S'and'
g112
tp1760
a(S'Gregory'
g37
tp1761
a(S'Short'
g37
tp1762
a(S'does'
S'VBZ'
p1763
tp1764
a(S'not'
g729
tp1765
a(S'disappoint'
g30
tp1766
a(S'.'
S'.'
tp1767
aa(lp1768
(S'Ghiradelli'
g37
tp1769
a(S'Chocolate'
g37
tp1770
a(S'!'
S'.'
tp1771
aa(lp1772
(S'All'
g159
tp1773
a(S'I'
g13
tp1774
a(S'need'
g28
tp1775
a(S'to'
g52
tp1776
a(S'say'
g30
tp1777
a(S'is'
g153
tp1778
a(S'Pumpkin'
g37
tp1779
a(S'Pancakes'
g37
tp1780
a(S'.'
S'.'
tp1781
a(S'.'
S'.'
tp1782
a(S'.'
S'.'
tp1783
a(S'I'
g13
tp1784
a(S"didn't"
g28
tp1785
a(S'order'
g923
tp1786
a(S'them'
g995
tp1787
a(S'and'
g112
tp1788
a(S'I'
g13
tp1789
a(S'regret'
g28
tp1790
a(S'it'
g23
tp1791
a(S'!'
S'.'
tp1792
aa(lp1793
(S'I'
g13
tp1794
a(S'walked'
g15
tp1795
a(S'into'
g21
tp1796
a(S'this'
g394
tp1797
a(S'place'
g8
tp1798
a(S'right'
g25
tp1799
a(S'after'
g1183
tp1800
a(S'they'
g559
tp1801
a(S'opened'
g15
tp1802
a(S'at'
g61
tp1803
a(S'4pm'
g453
tp1804
a(S'on'
g100
tp1805
a(S'a'
g107
tp1806
a(S'non'
g6
tp1807
a(S'game'
S'NN'
p1808
tp1809
a(S'day'
S'NN'
p1810
tp1811
a(S'and'
g112
tp1812
a(S'sat'
g8
tp1813
a(S'at'
g61
tp1814
a(S'the'
g114
tp1815
a(S'bar'
g8
tp1816
a(S'.'
S'.'
tp1817
aa(lp1818
(S'I'
g13
tp1819
a(S'had'
g15
tp1820
a(S'the'
g114
tp1821
a(S'filet'
g8
tp1822
a(S'and'
g112
tp1823
a(S'lobster'
g8
tp1824
a(S','
S','
tp1825
a(S'and'
g112
tp1826
a(S"fiance's"
g6
tp1827
a(S'mom'
g8
tp1828
a(S'had'
g15
tp1829
a(S'the'
g114
tp1830
a(S'filet'
g8
tp1831
a(S'.'
S'.'
tp1832
aa(lp1833
(S'If'
g907
tp1834
a(S'you'
g47
tp1835
a(S'just'
g282
tp1836
a(S'want'
g28
tp1837
a(S'to'
g52
tp1838
a(S'order'
g923
tp1839
a(S'off'
g17
tp1840
a(S'of'
g144
tp1841
a(S'the'
g114
tp1842
a(S'carving'
g8
tp1843
a(S'station'
g8
tp1844
a(S','
S','
tp1845
a(S'get'
g30
tp1846
a(S'some'
g293
tp1847
a(S'roast'
g8
tp1848
a(S'beef'
g8
tp1849
a(S','
S','
tp1850
a(S'or'
g131
tp1851
a(S'brisket'
g8
tp1852
a(S','
S','
tp1853
a(S'a'
g107
tp1854
a(S'heaping'
g233
tp1855
a(S'pile'
g8
tp1856
a(S'of'
g144
tp1857
a(S'meat'
g8
tp1858
a(S'awaits'
g82
tp1859
a(S'you'
g47
tp1860
a(S'.'
S'.'
tp1861
aa(lp1862
(S'However'
S'RB'
p1863
tp1864
a(S'I'
g13
tp1865
a(S'went'
g93
tp1866
a(S'on'
g100
tp1867
a(S'a'
g107
tp1868
a(S"friend's"
g6
tp1869
a(S'suggestion'
g8
tp1870
a(S'and'
g112
tp1871
a(S'was'
g15
tp1872
a(S'surprised'
g50
tp1873
a(S'.'
S'.'
tp1874
aa(lp1875
(S'as'
g17
tp1876
a(S'for'
g59
tp1877
a(S'dessert'
g8
tp1878
a(S','
S','
tp1879
a(S'the'
g114
tp1880
a(S'passionfruit'
g8
tp1881
a(S'sorbet'
g8
tp1882
a(S'was'
g15
tp1883
a(S'tart'
g25
tp1884
a(S'but'
g11
tp1885
a(S'delish'
g6
tp1886
a(S','
S','
tp1887
a(S'and'
g112
tp1888
a(S'the'
g114
tp1889
a(S'chocolate'
g8
tp1890
a(S'panna'
g8
tp1891
a(S'cotta'
g8
tp1892
a(S'was'
g15
tp1893
a(S'amazing'
g233
tp1894
a(S'.'
S'.'
tp1895
aa(lp1896
(S"I'd"
g37
tp1897
a(S'come'
g28
tp1898
a(S'back'
g25
tp1899
a(S'just'
g282
tp1900
a(S'for'
g59
tp1901
a(S'the'
g114
tp1902
a(S'pastrami'
g8
tp1903
a(S'!'
S'.'
tp1904
aa(lp1905
(S'You'
S'PRP'
p1906
tp1907
a(S'dim'
g28
tp1908
a(S'sum'
g6
tp1909
a(S','
S','
tp1910
a(S'you'
g47
tp1911
a(S'lose'
g28
tp1912
a(S'some'
g293
tp1913
a(S'.'
S'.'
tp1914
aa(lp1915
(S'There'
S'EX'
p1916
tp1917
a(S'is'
g153
tp1918
a(S'a'
g107
tp1919
a(S'pretty'
g25
tp1920
a(S'good'
g6
tp1921
a(S'variety'
g8
tp1922
a(S'on'
g100
tp1923
a(S'the'
g114
tp1924
a(S'menu'
g8
tp1925
a(S'so'
g17
tp1926
a(S'you'
g47
tp1927
a(S'could'
S'MD'
p1928
tp1929
a(S'bring'
g30
tp1930
a(S'people'
S'NNS'
p1931
tp1932
a(S'with'
g97
tp1933
a(S'varying'
g233
tp1934
a(S'food'
g406
tp1935
a(S'palates'
g82
tp1936
a(S'here'
g95
tp1937
a(S'.'
S'.'
tp1938
aa(lp1939
(S'Very'
g25
tp1940
a(S'delicious'
g6
tp1941
a(S'.'
S'.'
tp1942
aa(lp1943
(S'I'
g13
tp1944
a(S'felt'
g15
tp1945
a(S'a'
g107
tp1946
a(S'bit'
g8
tp1947
a(S'underdressed'
g6
tp1948
a(S'when'
g334
tp1949
a(S'I'
g13
tp1950
a(S'rolled'
g15
tp1951
a(S'into'
g21
tp1952
a(S'District'
g37
tp1953
a(S'in'
g55
tp1954
a(S'my'
g463
tp1955
a(S'jeans'
g82
tp1956
a(S'and'
g112
tp1957
a(S'tank'
g8
tp1958
a(S'top'
g8
tp1959
a(S'.'
S'.'
tp1960
aa(lp1961
(S'I'
g13
tp1962
a(S"don't"
g28
tp1963
a(S'even'
g25
tp1964
a(S'like'
g17
tp1965
a(S'onion'
g8
tp1966
a(S'rings'
g82
tp1967
a(S'.'
S'.'
tp1968
aa(lp1969
(S'I'
g13
tp1970
a(S'usually'
g39
tp1971
a(S'go'
g28
tp1972
a(S'with'
g97
tp1973
a(S'two'
g1614
tp1974
a(S'slices'
g82
tp1975
a(S'of'
g144
tp1976
a(S'their'
g75
tp1977
a(S'combination'
g8
tp1978
a(S'pepperoni'
g8
tp1979
a(S','
S','
tp1980
a(S'sausage'
g8
tp1981
a(S','
S','
tp1982
a(S'mushrooms'
g82
tp1983
a(S','
S','
tp1984
a(S'onions'
g82
tp1985
a(S','
S','
tp1986
a(S'zucchini'
g8
tp1987
a(S','
S','
tp1988
a(S'and'
g112
tp1989
a(S'tomatoes'
g82
tp1990
a(S'.'
S'.'
tp1991
aa(lp1992
(S'My'
g184
tp1993
a(S'personal'
S'JJ'
p1994
tp1995
a(S'fave'
g8
tp1996
a(S'is'
g153
tp1997
a(S'the'
g114
tp1998
a(S'curry'
g8
tp1999
a(S'!'
S'.'
tp2000
aa.