(lp1
(lp2
(S'Beware'
S'NNP'
p3
tp4
a(S'not'
S'RB'
p5
tp6
a(S'to'
S'TO'
p7
tp8
a(S'over'
S'IN'
p9
tp10
a(S'order'
S'NN'
p11
tp12
a(S'.'
S'.'
tp13
aa(lp14
(S'Per'
g9
tp15
a(S'the'
S'DT'
p16
tp17
a(S'norm'
S'NN'
p18
tp19
a(S'with'
S'IN'
p20
tp21
a(S'this'
S'DT'
p22
tp23
a(S'type'
g18
tp24
a(S'of'
S'IN'
p25
tp26
a(S'cuisine'
g18
tp27
a(S','
S','
tp28
a(S'there'
S'EX'
p29
tp30
a(S'were'
S'VBD'
p31
tp32
a(S'many'
S'JJ'
p33
tp34
a(S'veggie'
S'JJ'
p35
tp36
a(S'choices'
S'NNS'
p37
tp38
a(S'.'
S'.'
tp39
aa(lp40
(S'I'
S'PRP'
p41
tp42
a(S'ordered'
S'VBD'
p43
tp44
a(S'the'
g16
tp45
a(S'vegetarian'
g35
tp46
a(S'schnitzel'
g18
tp47
a(S'and'
S'CC'
p48
tp49
a(S'each'
S'DT'
p50
tp51
a(S'piece'
g18
tp52
a(S'of'
g25
tp53
a(S'vegetable'
g18
tp54
a(S'was'
g43
tp55
a(S'perfectly'
S'RB'
p56
tp57
a(S'prepared'
g35
tp58
a(S','
S','
tp59
a(S'so'
g56
tp60
a(S'flavorful'
g35
tp61
a(S'and'
g48
tp62
a(S'so'
g56
tp63
a(S'beautiful'
g35
tp64
a(S'.'
S'.'
tp65
aa(lp66
(S'We'
S'PRP'
p67
tp68
a(S'always'
S'RB'
p69
tp70
a(S'ask'
S'VBP'
p71
tp72
a(S'a'
S'DT'
p73
tp74
a(S'ton'
g18
tp75
a(S'of'
g25
tp76
a(S'questions'
S'NNS'
p77
tp78
a(S','
S','
tp79
a(S'and'
g48
tp80
a(S'the'
g16
tp81
a(S'wait'
g18
tp82
a(S'staff'
S'NN'
p83
tp84
a(S'has'
S'VBZ'
p85
tp86
a(S'always'
g69
tp87
a(S'been'
S'VBN'
p88
tp89
a(S'very'
g56
tp90
a(S'helpful'
g35
tp91
a(S'and'
g48
tp92
a(S'patient'
g35
tp93
a(S'.'
S'.'
tp94
aa(lp95
(S'That'
S'DT'
p96
tp97
a(S"doesn't"
S'VBZ'
p98
tp99
a(S'mean'
g71
tp100
a(S'that'
g9
tp101
a(S'it'
S'PRP'
p102
tp103
a(S"wasn't"
g43
tp104
a(S'good'
g35
tp105
a(S','
S','
tp106
a(S'and'
g48
tp107
a(S'who'
S'WP'
p108
tp109
a(S'needs'
g98
tp110
a(S'a'
g73
tp111
a(S'huge'
S'JJ'
p112
tp113
a(S'salad'
g18
tp114
a(S'when'
S'WRB'
p115
tp116
a(S'a'
g73
tp117
a(S'pound'
S'NN'
p118
tp119
a(S'of'
g25
tp120
a(S'award'
g18
tp121
a(S'winning'
S'VBG'
p122
tp123
a(S'beef'
g18
tp124
a(S'is'
S'VBZ'
p125
tp126
a(S'coming'
g122
tp127
a(S'your'
S'PRP$'
p128
tp129
a(S'way'
S'NN'
p130
tp131
a(S'?'
S'.'
tp132
a(S')'
S')'
tp133
aa(lp134
(S'I'
g41
tp135
a(S'could'
S'MD'
p136
tp137
a(S'live'
S'VB'
p138
tp139
a(S'on'
S'IN'
p140
tp141
a(S'the'
g16
tp142
a(S'Chicken'
g3
tp143
a(S'Pho'
g3
tp144
a(S'and'
g48
tp145
a(S'shredded'
g43
tp146
a(S'pork'
g18
tp147
a(S'rolls'
g37
tp148
a(S'from'
S'IN'
p149
tp150
a(S'here'
S'RB'
p151
tp152
a(S'.'
S'.'
tp153
aa(lp154
(S'Til'
g18
tp155
a(S'this'
g22
tp156
a(S'day'
S'NN'
p157
tp158
a(S'I'
g41
tp159
a(S'still'
S'RB'
p160
tp161
a(S'remember'
g138
tp162
a(S'what'
g108
tp163
a(S'I'
g41
tp164
a(S'ordered'
g43
tp165
a(S'fettucine'
g35
tp166
a(S'Alfredo'
g3
tp167
a(S'with'
g20
tp168
a(S'broccoli'
g18
tp169
a(S'.'
S'.'
tp170
aa(lp171
(S'The'
S'DT'
p172
tp173
a(S'red'
g35
tp174
a(S'vegetarian'
g35
tp175
a(S'curry'
g18
tp176
a(S'with'
g20
tp177
a(S'potato'
g18
tp178
a(S'could'
g136
tp179
a(S'be'
S'VB'
p180
tp181
a(S'my'
S'PRP$'
p182
tp183
a(S'staple'
g35
tp184
a(S'dish'
g18
tp185
a(S'for'
S'IN'
p186
tp187
a(S'the'
g16
tp188
a(S'rest'
g18
tp189
a(S'of'
g25
tp190
a(S'my'
g182
tp191
a(S'life'
S'NN'
p192
tp193
a(S'and'
g48
tp194
a(S'I'
g41
tp195
a(S'would'
S'MD'
p196
tp197
a(S'never'
S'RB'
p198
tp199
a(S'tire'
g138
tp200
a(S'of'
g25
tp201
a(S'it'
g102
tp202
a(S'.'
S'.'
tp203
aa(lp204
(S'The'
g172
tp205
a(S'spring'
g18
tp206
a(S'rolls'
g37
tp207
a(S'were'
g31
tp208
a(S'pretty'
g56
tp209
a(S'fresh'
g35
tp210
a(S','
S','
tp211
a(S'but'
S'CC'
p212
tp213
a(S'all'
g96
tp214
a(S'enjoyment'
g18
tp215
a(S'was'
g43
tp216
a(S'probably'
S'RB'
p217
tp218
a(S'due'
g35
tp219
a(S'to'
g7
tp220
a(S'the'
g16
tp221
a(S'dipping'
g18
tp222
a(S'sauce'
g18
tp223
a(S'.'
S'.'
tp224
aa(lp225
(S'even'
g56
tp226
a(S'if'
S'IN'
p227
tp228
a(S'there'
g29
tp229
a(S'are'
S'VBP'
p230
tp231
a(S'15'
S'CD'
p232
tp233
a(S'people'
S'NNS'
p234
tp235
a(S'waiting'
g122
tp236
a(S'for'
g186
tp237
a(S'their'
S'PRP$'
p238
tp239
a(S'orders'
S'NNS'
p240
tp241
a(S','
S','
tp242
a(S'when'
g115
tp243
a(S'you'
S'PRP'
p244
tp245
a(S'go'
g71
tp246
a(S'to'
g7
tp247
a(S'pick'
g138
tp248
a(S'up'
S'RP'
p249
tp250
a(S'your'
g128
tp251
a(S'extra'
g35
tp252
a(S'spicy'
g18
tp253
a(S'shawarma'
g18
tp254
a(S'.'
S'.'
tp255
a(S'.'
S'.'
tp256
a(S'the'
g16
tp257
a(S'guy'
g18
tp258
a(S'working'
g122
tp259
a(S'the'
g16
tp260
a(S'counter'
g18
tp261
a(S'will'
S'MD'
p262
tp263
a(S'remind'
g138
tp264
a(S'you'
g244
tp265
a(S'that'
g9
tp266
a(S'you'
g244
tp267
a(S'ordered'
g43
tp268
a(S'the'
g16
tp269
a(S'extra'
g35
tp270
a(S'extra'
g35
tp271
a(S'spicy'
g18
tp272
a(S'order'
g11
tp273
a(S'and'
g48
tp274
a(S"it's"
g18
tp275
a(S'coming'
g122
tp276
a(S'up'
g249
tp277
a(S'.'
S'.'
tp278
aa(lp279
(S'A'
g96
tp280
a(S'good'
g35
tp281
a(S'pad'
g18
tp282
a(S'thai'
g18
tp283
a(S'spot'
g18
tp284
a(S'on'
g140
tp285
a(S'the'
g16
tp286
a(S'Mission'
g3
tp287
a(S'.'
S'.'
tp288
aa(lp289
(S'I'
g41
tp290
a(S'usually'
S'RB'
p291
tp292
a(S'plan'
g71
tp293
a(S'my'
g182
tp294
a(S'Korean'
g35
tp295
a(S'BBQ'
g3
tp296
a(S'outfit'
g18
tp297
a(S'and'
g48
tp298
a(S'after'
S'IN'
p299
tp300
a(S'dinner'
g18
tp301
a(S'activities'
S'NNS'
p302
tp303
a(S'carefully'
g56
tp304
a(S'cotton'
g71
tp305
a(S'only'
g56
tp306
a(S'garments'
g37
tp307
a(S','
S','
tp308
a(S'nothing'
S'NN'
p309
tp310
a(S'that'
S'WDT'
p311
tp312
a(S'requires'
S'VBZ'
p313
tp314
a(S'dry'
g35
tp315
a(S'cleaning'
g18
tp316
a(S','
S','
tp317
a(S'no'
g96
tp318
a(S'activities'
g302
tp319
a(S'in'
S'IN'
p320
tp321
a(S'close'
g35
tp322
a(S'proximity'
g18
tp323
a(S'to'
g7
tp324
a(S'strangers'
g37
tp325
a(S'('
S'('
tp326
a(S'i'
g18
tp327
a(S'.'
S'.'
tp328
a(S'e'
g18
tp329
a(S'.'
S'.'
tp330
aa(lp331
(S'I'
g41
tp332
a(S'only'
g56
tp333
a(S'got'
g43
tp334
a(S'half'
g35
tp335
a(S'way'
g130
tp336
a(S'through'
g9
tp337
a(S'the'
g16
tp338
a(S'lo'
g18
tp339
a(S'mai'
g18
tp340
a(S'gai'
g18
tp341
a(S'and'
g48
tp342
a(S'almost'
S'RB'
p343
tp344
a(S'fainted'
S'VBN'
p345
tp346
a(S'sooo'
g35
tp347
a(S'goood'
g18
tp348
a(S'!'
S'.'
tp349
aa(lp350
(S'Yet'
g56
tp351
a(S','
S','
tp352
a(S'despite'
S'IN'
p353
tp354
a(S"it's"
g35
tp355
a(S'small'
S'JJ'
p356
tp357
a(S'stature'
g18
tp358
a(S','
S','
tp359
a(S'it'
g102
tp360
a(S'seems'
S'VBZ'
p361
tp362
a(S'to'
g7
tp363
a(S'have'
g138
tp364
a(S'a'
g73
tp365
a(S'loyal'
g18
tp366
a(S'following'
g122
tp367
a(S'Every'
g3
tp368
a(S'sit'
g18
tp369
a(S'was'
g43
tp370
a(S'filled'
g345
tp371
a(S'('
S'('
tp372
a(S'although'
S'IN'
p373
tp374
a(S'that'
g96
tp375
a(S"wasn't"
g98
tp376
a(S'too'
S'RB'
p377
tp378
a(S'hard'
g35
tp379
a(S'to'
g7
tp380
a(S'accomplish'
g138
tp381
a(S')'
S')'
tp382
a(S','
S','
tp383
a(S'and'
g48
tp384
a(S'the'
g16
tp385
a(S'stream'
g18
tp386
a(S'of'
g25
tp387
a(S'to'
g7
tp388
a(S'go'
g138
tp389
a(S'orders'
g240
tp390
a(S'was'
g43
tp391
a(S'every'
S'DT'
p392
tp393
a(S'bit'
g18
tp394
a(S'as'
g9
tp395
a(S'consistent'
g18
tp396
a(S'.'
S'.'
tp397
aa(lp398
(S'Sitting'
g122
tp399
a(S'at'
S'IN'
p400
tp401
a(S'a'
g73
tp402
a(S'perfect'
g35
tp403
a(S'small'
g356
tp404
a(S'table'
g18
tp405
a(S'by'
S'IN'
p406
tp407
a(S'the'
g16
tp408
a(S'bar'
g18
tp409
a(S'we'
S'PRP'
p410
tp411
a(S'had'
g43
tp412
a(S'a'
g73
tp413
a(S'great'
S'JJ'
p414
tp415
a(S'view'
g18
tp416
a(S'of'
g25
tp417
a(S'the'
g16
tp418
a(S'pasta'
g18
tp419
a(S'guy'
g18
tp420
a(S'at'
g400
tp421
a(S'work'
g18
tp422
a(S'.'
S'.'
tp423
a(S'.'
S'.'
tp424
a(S'My'
S'PRP$'
p425
tp426
a(S'roomate'
g18
tp427
a(S'was'
g43
tp428
a(S'in'
g320
tp429
a(S'love'
g18
tp430
a(S'.'
S'.'
tp431
a(S'.'
S'.'
tp432
aa(lp433
(S'There'
S'EX'
p434
tp435
a(S'was'
g43
tp436
a(S'one'
S'CD'
p437
tp438
a(S'glass'
g18
tp439
a(S'of'
g25
tp440
a(S'red'
g35
tp441
a(S'wine'
g18
tp442
a(S'he'
S'PRP'
p443
tp444
a(S'fell'
S'VBD'
p445
tp446
a(S'in'
g320
tp447
a(S'love'
g18
tp448
a(S'with'
g20
tp449
a(S','
S','
tp450
a(S'and'
g48
tp451
a(S'made'
g43
tp452
a(S'the'
g16
tp453
a(S'mistake'
g18
tp454
a(S'of'
g25
tp455
a(S'drinking'
g122
tp456
a(S'too'
g377
tp457
a(S'fast'
g56
tp458
a(S'.'
S'.'
tp459
a(S'.'
S'.'
tp460
a(S'.'
S'.'
tp461
a(S'.'
S'.'
tp462
a(S'he'
g443
tp463
a(S'asked'
g43
tp464
a(S'for'
g186
tp465
a(S'another'
S'DT'
p466
tp467
a(S','
S','
tp468
a(S'but'
g212
tp469
a(S'thinks'
g98
tp470
a(S'he'
g443
tp471
a(S'may'
S'MD'
p472
tp473
a(S'have'
g138
tp474
a(S'gotten'
g345
tp475
a(S'a'
g73
tp476
a(S'completely'
g56
tp477
a(S'different'
S'JJ'
p478
tp479
a(S'wine'
g18
tp480
a(S'for'
g186
tp481
a(S'the'
g16
tp482
a(S'second'
g35
tp483
a(S'pour'
g18
tp484
a(S'.'
S'.'
tp485
aa(lp486
(S'Otherwise'
g56
tp487
a(S','
S','
tp488
a(S'it'
g102
tp489
a(S'tastes'
g98
tp490
a(S'more'
S'RBR'
p491
tp492
a(S'sweet'
g35
tp493
a(S'.'
S'.'
tp494
aa(lp495
(S'The'
g172
tp496
a(S'nigiri'
g18
tp497
a(S'is'
g125
tp498
a(S'more'
g491
tp499
a(S'fish'
g35
tp500
a(S'than'
S'IN'
p501
tp502
a(S'rice'
g18
tp503
a(S','
S','
tp504
a(S'again'
S'RB'
p505
tp506
a(S'as'
g9
tp507
a(S'the'
g16
tp508
a(S'rice'
g18
tp509
a(S'portion'
S'NN'
p510
tp511
a(S'is'
g125
tp512
a(S'small'
g356
tp513
a(S','
S','
tp514
a(S'and'
g48
tp515
a(S'the'
g16
tp516
a(S'fish'
g35
tp517
a(S'portion'
g510
tp518
a(S'large'
S'JJ'
p519
tp520
a(S'.'
S'.'
tp521
aa(lp522
(S'I'
g41
tp523
a(S'love'
g71
tp524
a(S'their'
g238
tp525
a(S'garlic'
g35
tp526
a(S'bread'
g18
tp527
a(S'and'
g48
tp528
a(S'spaghetti'
g138
tp529
a(S'meatball'
g18
tp530
a(S'!'
S'.'
tp531
aa(lp532
(S'Usually'
g56
tp533
a(S'the'
g16
tp534
a(S'chicken'
g18
tp535
a(S'karaages'
g98
tp536
a(S"I've"
g3
tp537
a(S'had'
g43
tp538
a(S'at'
g400
tp539
a(S'other'
S'JJ'
p540
tp541
a(S'places'
g37
tp542
a(S'are'
g230
tp543
a(S'too'
g377
tp544
a(S'hard'
g35
tp545
a(S','
S','
tp546
a(S'too'
g377
tp547
a(S'oily'
g56
tp548
a(S','
S','
tp549
a(S'or'
S'CC'
p550
tp551
a(S'the'
g16
tp552
a(S'juice'
g18
tp553
a(S'from'
g149
tp554
a(S'the'
g16
tp555
a(S'meat'
g18
tp556
a(S'has'
g85
tp557
a(S'been'
g88
tp558
a(S'sucked'
g345
tp559
a(S'dry'
g35
tp560
a(S'from'
g149
tp561
a(S'them'
S'PRP'
p562
tp563
a(S'so'
g56
tp564
a(S"it's"
g56
tp565
a(S'not'
g5
tp566
a(S'yummy'
g35
tp567
a(S'anymore'
g56
tp568
a(S'.'
S'.'
tp569
aa(lp570
(S'A'
g96
tp571
a(S'romantic'
g35
tp572
a(S'pre'
g18
tp573
a(S"mother's"
g18
tp574
a(S'day'
g157
tp575
a(S'surprise'
g138
tp576
a(S'dinner'
g18
tp577
a(S'set'
g345
tp578
a(S'up'
g249
tp579
a(S'by'
g406
tp580
a(S'my'
g182
tp581
a(S'wonderful'
g35
tp582
a(S'hubby'
g18
tp583
a(S'a'
g73
tp584
a(S'month'
S'NN'
p585
tp586
a(S'and'
g48
tp587
a(S'a'
g73
tp588
a(S'half'
g35
tp589
a(S'ahead'
S'RB'
p590
tp591
a(S'and'
g48
tp592
a(S'I'
g41
tp593
a(S'loved'
g43
tp594
a(S'every'
g392
tp595
a(S'minute'
g18
tp596
a(S'of'
g25
tp597
a(S'it'
g102
tp598
a(S'.'
S'.'
tp599
aa(lp600
(S'Maybe'
g56
tp601
a(S'they'
S'PRP'
p602
tp603
a(S'should'
S'MD'
p604
tp605
a(S'place'
g138
tp606
a(S'a'
g73
tp607
a(S'sign'
g18
tp608
a(S'in'
g320
tp609
a(S'the'
g16
tp610
a(S'window'
g18
tp611
a(S'saying'
g122
tp612
a(S"they'll"
g35
tp613
a(S'give'
g138
tp614
a(S'you'
g244
tp615
a(S'small'
g356
tp616
a(S'amounts'
g37
tp617
a(S'of'
g25
tp618
a(S'appetizers'
g37
tp619
a(S'and'
g48
tp620
a(S'drinks'
g37
tp621
a(S','
S','
tp622
a(S'but'
g212
tp623
a(S'nothing'
g309
tp624
a(S'big'
S'JJ'
p625
tp626
a(S'if'
g227
tp627
a(S'its'
g425
tp628
a(S'past'
g35
tp629
a(S'10'
S'CD'
p630
tp631
a(S'30'
S'CD'
p632
tp633
a(S'.'
S'.'
tp634
aa(lp635
(S'the'
g16
tp636
a(S'shrimp'
g18
tp637
a(S'was'
g43
tp638
a(S'nice'
g35
tp639
a(S'and'
g48
tp640
a(S'fresh'
g35
tp641
a(S','
S','
tp642
a(S'easy'
g35
tp643
a(S'to'
g7
tp644
a(S'peel'
g138
tp645
a(S'.'
S'.'
tp646
aa(lp647
(S'I'
g41
tp648
a(S'was'
g43
tp649
a(S'pretty'
g56
tp650
a(S'annoyed'
g35
tp651
a(S'that'
g9
tp652
a(S'we'
g410
tp653
a(S'dropped'
g43
tp654
a(S'32'
g437
tp655
a(S'on'
g140
tp656
a(S'a'
g73
tp657
a(S'lunch'
g18
tp658
a(S'of'
g25
tp659
a(S'a'
g73
tp660
a(S'teeny'
g18
tp661
a(S'weeny'
g18
tp662
a(S'lobster'
g18
tp663
a(S'roll'
g18
tp664
a(S','
S','
tp665
a(S'lobster'
g18
tp666
a(S'bisque'
g18
tp667
a(S'soup'
g18
tp668
a(S'in'
g320
tp669
a(S'a'
g73
tp670
a(S'breadbowl'
g18
tp671
a(S'and'
g48
tp672
a(S'a'
g73
tp673
a(S'small'
g356
tp674
a(S'cup'
g18
tp675
a(S'of'
g25
tp676
a(S'clam'
g18
tp677
a(S'chowder'
g18
tp678
a(S'.'
S'.'
tp679
aa(lp680
(S'The'
g172
tp681
a(S'Carbonara'
g3
tp682
a(S'and'
g48
tp683
a(S'Eggplant'
g3
tp684
a(S'Parmigiana'
g3
tp685
a(S'were'
g31
tp686
a(S'both'
g96
tp687
a(S'very'
g56
tp688
a(S'tasty'
g35
tp689
a(S'.'
S'.'
tp690
aa(lp691
(S'The'
g172
tp692
a(S'pan'
g18
tp693
a(S'fried'
g43
tp694
a(S'potstickers'
g37
tp695
a(S'were'
g31
tp696
a(S'ok'
g56
tp697
a(S','
S','
tp698
a(S'not'
g5
tp699
a(S'phenomenal'
g35
tp700
a(S'but'
g212
tp701
a(S'definitely'
g56
tp702
a(S'good'
g35
tp703
a(S'.'
S'.'
tp704
aa(lp705
(S'I'
g41
tp706
a(S'usually'
g291
tp707
a(S'order'
g11
tp708
a(S'the'
g16
tp709
a(S'Chicken'
g3
tp710
a(S'Shawarma'
g3
tp711
a(S'with'
g20
tp712
a(S'extra'
g35
tp713
a(S'hot'
g35
tp714
a(S'sauce'
g18
tp715
a(S'and'
g48
tp716
a(S'some'
S'DT'
p717
tp718
a(S'garlic'
g35
tp719
a(S'sauce'
g18
tp720
a(S'in'
g320
tp721
a(S'it'
g102
tp722
a(S'.'
S'.'
tp723
aa(lp724
(S'the'
g16
tp725
a(S'oxtail'
g18
tp726
a(S'stew'
g18
tp727
a(S'soup'
g18
tp728
a(S'came'
S'VBD'
p729
tp730
a(S'with'
g20
tp731
a(S'soy'
g18
tp732
a(S'sauce'
g18
tp733
a(S'and'
g48
tp734
a(S'a'
g73
tp735
a(S'cup'
g18
tp736
a(S'of'
g25
tp737
a(S'salt'
g18
tp738
a(S'which'
g311
tp739
a(S'was'
g43
tp740
a(S'helpful'
g35
tp741
a(S'in'
g320
tp742
a(S'flavoring'
g122
tp743
a(S'the'
g16
tp744
a(S'bland'
g18
tp745
a(S','
S','
tp746
a(S'milky'
g35
tp747
a(S'white'
S'JJ'
p748
tp749
a(S'broth'
g18
tp750
a(S'which'
g311
tp751
a(S'had'
g43
tp752
a(S'some'
g717
tp753
a(S'strands'
g37
tp754
a(S'of'
g25
tp755
a(S'yam'
g18
tp756
a(S'threads'
g37
tp757
a(S'in'
g320
tp758
a(S'it'
g102
tp759
a(S'.'
S'.'
tp760
aa(lp761
(S'First'
g3
tp762
a(S'of'
g25
tp763
a(S'all'
g96
tp764
a(S','
S','
tp765
a(S'everything'
S'NN'
p766
tp767
a(S'about'
g9
tp768
a(S'this'
g22
tp769
a(S'place'
g18
tp770
a(S'screams'
g43
tp771
a(S'East'
g3
tp772
a(S'Germany'
S'NNP'
p773
tp774
a(S'from'
g149
tp775
a(S'the'
g16
tp776
a(S'moment'
S'NN'
p777
tp778
a(S'you'
g244
tp779
a(S'enter'
g71
tp780
a(S'the'
g16
tp781
a(S'restaurant'
g18
tp782
a(S'even'
g56
tp783
a(S'to'
g7
tp784
a(S'the'
g16
tp785
a(S'very'
g56
tp786
a(S'last'
S'JJ'
p787
tp788
a(S'moment'
g777
tp789
a(S'where'
S'WRB'
p790
tp791
a(S'you'
g244
tp792
a(S'shut'
g71
tp793
a(S'the'
g16
tp794
a(S'door'
g18
tp795
a(S'behind'
g9
tp796
a(S'you'
g244
tp797
a(S';'
S':'
tp798
a(S'the'
g16
tp799
a(S'instant'
g18
tp800
a(S'you'
g244
tp801
a(S'set'
g71
tp802
a(S'foot'
g56
tp803
a(S'into'
S'IN'
p804
tp805
a(S'the'
g16
tp806
a(S'restaurant'
g18
tp807
a(S"you'll"
g18
tp808
a(S'be'
g180
tp809
a(S'surrounded'
g345
tp810
a(S'by'
g406
tp811
a(S'rustic'
g35
tp812
a(S'post'
g18
tp813
a(S'war'
S'NN'
p814
tp815
a(S'propaganda'
g18
tp816
a(S'posters'
g37
tp817
a(S'from'
g149
tp818
a(S'around'
g9
tp819
a(S'the'
g16
tp820
a(S'DDR'
g3
tp821
a(S','
S','
tp822
a(S'and'
g48
tp823
a(S'also'
S'RB'
p824
tp825
a(S'by'
g406
tp826
a(S'your'
g128
tp827
a(S'standard'
g35
tp828
a(S'hof'
g18
tp829
a(S'style'
S'NN'
p830
tp831
a(S'wooden'
g35
tp832
a(S'picnic'
g18
tp833
a(S'tables'
g37
tp834
a(S'and'
g48
tp835
a(S'homey'
g35
tp836
a(S'seatings'
g37
tp837
a(S'.'
S'.'
tp838
a(S'.'
S'.'
tp839
a(S'.'
S'.'
tp840
a(S'On'
S'IN'
p841
tp842
a(S'to'
g7
tp843
a(S'the'
g16
tp844
a(S'food'
S'NN'
p845
tp846
a(S'and'
g48
tp847
a(S'brew'
g18
tp848
a(S'as'
g9
tp849
a(S'usual'
g35
tp850
a(S'I'
g41
tp851
a(S'was'
g43
tp852
a(S'the'
g16
tp853
a(S'first'
g35
tp854
a(S'to'
g7
tp855
a(S'arrive'
g138
tp856
a(S','
S','
tp857
a(S'so'
g56
tp858
a(S'while'
g9
tp859
a(S'waiting'
g122
tp860
a(S'for'
g186
tp861
a(S'my'
g182
tp862
a(S'fellow'
g35
tp863
a(S'diners'
g37
tp864
a(S'to'
g7
tp865
a(S'arrive'
g138
tp866
a(S','
S','
tp867
a(S'I'
g41
tp868
a(S'decided'
g43
tp869
a(S'to'
g7
tp870
a(S'start'
g138
tp871
a(S'the'
g16
tp872
a(S'night'
S'NN'
p873
tp874
a(S'off'
g249
tp875
a(S'right'
g18
tp876
a(S'with'
g20
tp877
a(S'an'
g96
tp878
a(S'erdinger'
g18
tp879
a(S'kristallweizen'
g18
tp880
a(S'.'
S'.'
tp881
aa(lp882
(S'I'
g41
tp883
a(S'would'
g196
tp884
a(S'choose'
g138
tp885
a(S'their'
g238
tp886
a(S'pasta'
g18
tp887
a(S'over'
g9
tp888
a(S'Bucca'
g3
tp889
a(S'di'
S'FW'
p890
tp891
a(S'Beppo'
g3
tp892
a(S'anytime'
g18
tp893
a(S'!'
S'.'
tp894
aa(lp895
(S'But'
S'CC'
p896
tp897
a(S'the'
g16
tp898
a(S'pork'
g18
tp899
a(S'was'
g43
tp900
a(S'wonderful'
g35
tp901
a(S'as'
g56
tp902
a(S'well'
g56
tp903
a(S'.'
S'.'
tp904
aa(lp905
(S'This'
S'DT'
p906
tp907
a(S'place'
g18
tp908
a(S'has'
g85
tp909
a(S'good'
g35
tp910
a(S'pizza'
g18
tp911
a(S'!'
S'.'
tp912
aa(lp913
(S'There'
g434
tp914
a(S'were'
g31
tp915
a(S'no'
g96
tp916
a(S'pictures'
g37
tp917
a(S'on'
g140
tp918
a(S'the'
g16
tp919
a(S'menu'
g18
tp920
a(S','
S','
tp921
a(S'and'
g48
tp922
a(S'the'
g16
tp923
a(S'only'
g35
tp924
a(S'dish'
g18
tp925
a(S'I'
g41
tp926
a(S'know'
g71
tp927
a(S'is'
g125
tp928
a(S'pork'
g35
tp929
a(S'bun'
g18
tp930
a(S','
S','
tp931
a(S'so'
g9
tp932
a(S'that'
g9
tp933
a(S'all'
g96
tp934
a(S'I'
g41
tp935
a(S'could'
g136
tp936
a(S'order'
g11
tp937
a(S'.'
S'.'
tp938
aa(lp939
(S'My'
g425
tp940
a(S'second'
g35
tp941
a(S'favorite'
g35
tp942
a(S'steak'
g18
tp943
a(S'place'
g18
tp944
a(S'ever'
S'RB'
p945
tp946
a(S'!'
S'.'
tp947
aa(lp948
(S'The'
g172
tp949
a(S'fish'
g35
tp950
a(S'special'
g18
tp951
a(S'was'
g43
tp952
a(S','
S','
tp953
a(S'I'
g41
tp954
a(S'believe'
g71
tp955
a(S','
S','
tp956
a(S'a'
g73
tp957
a(S'corvina'
g18
tp958
a(S'seabass'
g18
tp959
a(S'w'
g43
tp960
a(S'some'
g717
tp961
a(S'kind'
S'NN'
p962
tp963
a(S'of'
g25
tp964
a(S'chipotle'
g18
tp965
a(S'sauce'
g18
tp966
a(S'and'
g48
tp967
a(S'the'
g16
tp968
a(S'guys'
g37
tp969
a(S'who'
g108
tp970
a(S'ordered'
g43
tp971
a(S'it'
g102
tp972
a(S'were'
g31
tp973
a(S'loving'
g122
tp974
a(S'it'
g102
tp975
a(S'too'
g377
tp976
a(S'.'
S'.'
tp977
aa(lp978
(S'grilled'
g35
tp979
a(S'octopus'
g18
tp980
a(S'was'
g43
tp981
a(S'probably'
g217
tp982
a(S'the'
g16
tp983
a(S'best'
S'JJS'
p984
tp985
a(S'octopus'
g35
tp986
a(S'preparation'
g18
tp987
a(S"i've"
g18
tp988
a(S'ever'
g945
tp989
a(S'had'
g43
tp990
a(S'.'
S'.'
tp991
aa(lp992
(S'My'
g425
tp993
a(S'favorite'
g35
tp994
a(S'burger'
g18
tp995
a(S'!'
S'.'
tp996
aa(lp997
(S'Always'
g56
tp998
a(S'well'
g56
tp999
a(S'cooked'
g345
tp1000
a(S','
S','
tp1001
a(S'comes'
S'VBZ'
p1002
tp1003
a(S'out'
g249
tp1004
a(S'fast'
g56
tp1005
a(S','
S','
tp1006
a(S'and'
g48
tp1007
a(S'tastes'
g98
tp1008
a(S'better'
S'JJR'
p1009
tp1010
a(S'than'
g501
tp1011
a(S'pretty'
g56
tp1012
a(S'much'
g35
tp1013
a(S'any'
S'DT'
p1014
tp1015
a(S'analogous'
g35
tp1016
a(S'sandwich'
g18
tp1017
a(S'elsewhere'
g56
tp1018
a(S'.'
S'.'
tp1019
aa(lp1020
(S'I'
g41
tp1021
a(S'got'
g43
tp1022
a(S'the'
g16
tp1023
a(S'lamb'
g18
tp1024
a(S'lavash'
g18
tp1025
a(S'delux'
g18
tp1026
a(S'.'
S'.'
tp1027
aa(lp1028
(S'The'
g172
tp1029
a(S'seabass'
g18
tp1030
a(S'and'
g48
tp1031
a(S'snapper'
g18
tp1032
a(S'were'
g31
tp1033
a(S'dry'
g35
tp1034
a(S'and'
g48
tp1035
a(S'rather'
S'RB'
p1036
tp1037
a(S'small'
g356
tp1038
a(S'portions'
g37
tp1039
a(S'at'
g400
tp1040
a(S'26'
S'CD'
p1041
tp1042
a(S'each'
g50
tp1043
a(S'.'
S'.'
tp1044
aa(lp1045
(S'It'
S'PRP'
p1046
tp1047
a(S'was'
g43
tp1048
a(S'HUGE'
g3
tp1049
a(S'and'
g48
tp1050
a(S'the'
g16
tp1051
a(S'falafel'
g18
tp1052
a(S'was'
g43
tp1053
a(S'freshly'
g56
tp1054
a(S'fried'
g345
tp1055
a(S'and'
g48
tp1056
a(S'the'
g16
tp1057
a(S'cucumbers'
g37
tp1058
a(S'were'
g31
tp1059
a(S'nice'
g35
tp1060
a(S'and'
g48
tp1061
a(S'crunchy'
g35
tp1062
a(S'fresh'
g35
tp1063
a(S'and'
g48
tp1064
a(S'defintley'
g35
tp1065
a(S'spicy'
g18
tp1066
a(S'!'
S'.'
tp1067
aa(lp1068
(S"Za's"
g3
tp1069
a(S'pizza'
g18
tp1070
a(S'is'
g125
tp1071
a(S'the'
g16
tp1072
a(S'best'
g984
tp1073
a(S'frickin'
g35
tp1074
a(S'pizza'
g18
tp1075
a(S'I'
g41
tp1076
a(S'have'
g71
tp1077
a(S'had'
g345
tp1078
a(S'in'
g320
tp1079
a(S'a'
g73
tp1080
a(S'LONG'
g35
tp1081
a(S'time'
S'NN'
p1082
tp1083
a(S'.'
S'.'
tp1084
aa(lp1085
(S'The'
g172
tp1086
a(S'walnut'
g18
tp1087
a(S'bread'
g18
tp1088
a(S','
S','
tp1089
a(S'was'
g43
tp1090
a(S'a'
g73
tp1091
a(S'bit'
g18
tp1092
a(S'dry'
g35
tp1093
a(S'.'
S'.'
tp1094
aa(lp1095
(S'The'
g172
tp1096
a(S'food'
g845
tp1097
a(S'was'
g43
tp1098
a(S'delicious'
g35
tp1099
a(S'and'
g48
tp1100
a(S'fresh'
g35
tp1101
a(S'.'
S'.'
tp1102
aa(lp1103
(S'Try'
g138
tp1104
a(S'the'
g16
tp1105
a(S'lamb'
g35
tp1106
a(S'chops'
g37
tp1107
a(S'or'
g550
tp1108
a(S'the'
g16
tp1109
a(S'meatloaf'
g18
tp1110
aa(lp1111
(S'I'
g41
tp1112
a(S'had'
g43
tp1113
a(S'the'
g16
tp1114
a(S'salad'
g18
tp1115
a(S'for'
g186
tp1116
a(S'starters'
g37
tp1117
a(S'which'
g311
tp1118
a(S'had'
g43
tp1119
a(S'organic'
g35
tp1120
a(S'vegetables'
g37
tp1121
a(S'and'
g48
tp1122
a(S'the'
g16
tp1123
a(S'most'
S'RBS'
p1124
tp1125
a(S'buttery'
g35
tp1126
a(S'croutons'
g37
tp1127
a(S'EVER'
g56
tp1128
a(S'!'
S'.'
tp1129
aa(lp1130
(S'My'
g425
tp1131
a(S'favorite'
g35
tp1132
a(S'sandwich'
g18
tp1133
a(S'shop'
g18
tp1134
a(S'in'
g320
tp1135
a(S'the'
g16
tp1136
a(S'city'
S'NN'
p1137
tp1138
a(S'I'
g41
tp1139
a(S'get'
g71
tp1140
a(S'one'
g437
tp1141
a(S'every'
g392
tp1142
a(S'weekend'
S'NN'
p1143
tp1144
a(S'.'
S'.'
tp1145
aa(lp1146
(S'For'
S'IN'
p1147
tp1148
a(S'my'
g182
tp1149
a(S'birthday'
g18
tp1150
a(S'.'
S'.'
tp1151
a(S'.'
S'.'
tp1152
a(S'i'
g18
tp1153
a(S'told'
g43
tp1154
a(S'my'
g182
tp1155
a(S'bf'
g18
tp1156
a(S'i'
g18
tp1157
a(S'wanted'
g43
tp1158
a(S'to'
g7
tp1159
a(S'eat'
g138
tp1160
a(S'here'
g151
tp1161
a(S'after'
g299
tp1162
a(S'searching'
g122
tp1163
a(S'here'
g151
tp1164
a(S'for'
g186
tp1165
a(S'a'
g73
tp1166
a(S'new'
S'JJ'
p1167
tp1168
a(S'restaurant'
g18
tp1169
a(S'.'
S'.'
tp1170
a(S'.'
S'.'
tp1171
a(S'he'
g443
tp1172
a(S'made'
g43
tp1173
a(S'reservations'
g37
tp1174
a(S'online'
g249
tp1175
a(S'requesting'
g122
tp1176
a(S'for'
g186
tp1177
a(S'a'
g73
tp1178
a(S'table'
g18
tp1179
a(S'with'
g20
tp1180
a(S'a'
g73
tp1181
a(S'view'
g18
tp1182
a(S'and'
g48
tp1183
a(S'to'
g7
tp1184
a(S'note'
g138
tp1185
a(S'that'
g9
tp1186
a(S'it'
g102
tp1187
a(S'was'
g43
tp1188
a(S'my'
g182
tp1189
a(S'birthday'
g18
tp1190
a(S'With'
S'IN'
p1191
tp1192
a(S'all'
S'PDT'
p1193
tp1194
a(S'the'
g16
tp1195
a(S'good'
g35
tp1196
a(S'reviews'
g37
tp1197
a(S'.'
S'.'
tp1198
a(S'.'
S'.'
tp1199
a(S'i'
g18
tp1200
a(S'ordered'
g43
tp1201
a(S'the'
g16
tp1202
a(S'filet'
g18
tp1203
a(S'mignon'
g18
tp1204
a(S'and'
g48
tp1205
a(S'the'
g16
tp1206
a(S'rib'
g18
tp1207
a(S'eye'
S'NN'
p1208
tp1209
a(S'both'
g96
tp1210
a(S'cooked'
g35
tp1211
a(S'medium'
g18
tp1212
a(S'.'
S'.'
tp1213
a(S'.'
S'.'
tp1214
a(S'for'
g186
tp1215
a(S'appetizer'
g18
tp1216
a(S'we'
g410
tp1217
a(S'decided'
g43
tp1218
a(S'on'
g140
tp1219
a(S'the'
g16
tp1220
a(S'shrimp'
g18
tp1221
a(S'.'
S'.'
tp1222
a(S'.'
S'.'
tp1223
a(S'.'
S'.'
tp1224
a(S'of'
g25
tp1225
a(S'course'
S'NN'
p1226
tp1227
a(S'for'
g186
tp1228
a(S'dessert'
g18
tp1229
a(S'.'
S'.'
tp1230
a(S'.'
S'.'
tp1231
a(S'i'
g18
tp1232
a(S'could'
g136
tp1233
a(S'not'
g5
tp1234
a(S'miss'
g138
tp1235
a(S'the'
g16
tp1236
a(S'chance'
S'NN'
p1237
tp1238
a(S'for'
g186
tp1239
a(S'the'
g16
tp1240
a(S'caramelized'
g35
tp1241
a(S'french'
g35
tp1242
a(S'toast'
g18
tp1243
a(S'my'
g182
tp1244
a(S'bf'
g18
tp1245
a(S'said'
S'VBD'
p1246
tp1247
a(S'it'
g102
tp1248
a(S"didn't"
g43
tp1249
a(S'even'
g56
tp1250
a(S'taste'
g18
tp1251
a(S'like'
g9
tp1252
a(S'french'
g35
tp1253
a(S'toast'
g18
tp1254
a(S'.'
S'.'
tp1255
a(S'.'
S'.'
tp1256
a(S'that'
g9
tp1257
a(S"we're"
g18
tp1258
a(S'used'
g345
tp1259
a(S'to'
g7
tp1260
a(S'when'
g115
tp1261
a(S'we'
g410
tp1262
a(S'got'
g43
tp1263
a(S'there'
g56
tp1264
a(S'10'
g630
tp1265
a(S'minutes'
S'NNS'
p1266
tp1267
a(S'before'
g9
tp1268
a(S'our'
S'PRP$'
p1269
tp1270
a(S'reservation'
g18
tp1271
a(S'we'
g410
tp1272
a(S'were'
g31
tp1273
a(S'seated'
g345
tp1274
a(S'at'
g400
tp1275
a(S'an'
g96
tp1276
a(S'open'
g35
tp1277
a(S'table'
g18
tp1278
a(S'in'
g320
tp1279
a(S'the'
g16
tp1280
a(S'corner'
g18
tp1281
a(S'right'
g56
tp1282
a(S'next'
g35
tp1283
a(S'to'
g7
tp1284
a(S'the'
g16
tp1285
a(S'window'
g18
tp1286
a(S'.'
S'.'
tp1287
a(S'.'
S'.'
tp1288
a(S'once'
g56
tp1289
a(S'i'
g35
tp1290
a(S'sat'
g71
tp1291
a(S'down'
g249
tp1292
a(S'i'
g56
tp1293
a(S'totally'
g56
tp1294
a(S'adored'
g43
tp1295
a(S'the'
g16
tp1296
a(S'salt'
g18
tp1297
a(S'and'
g48
tp1298
a(S'pepper'
g18
tp1299
a(S'dishes'
g37
tp1300
a(S'with'
g20
tp1301
a(S'its'
g425
tp1302
a(S'small'
g356
tp1303
a(S'shovel'
g18
tp1304
a(S'P'
g3
tp1305
a(S'the'
g16
tp1306
a(S'shrimp'
g18
tp1307
a(S'was'
g43
tp1308
a(S'interesting'
g122
tp1309
a(S'.'
S'.'
tp1310
a(S'.'
S'.'
tp1311
a(S'they'
g602
tp1312
a(S'cut'
g43
tp1313
a(S'them'
g562
tp1314
a(S'length'
g984
tp1315
a(S'wise'
g18
tp1316
a(S'in'
g320
tp1317
a(S'half'
g18
tp1318
a(S'.'
S'.'
tp1319
a(S'.'
S'.'
tp1320
a(S'the'
g16
tp1321
a(S'inner'
g35
tp1322
a(S'sides'
S'NNS'
p1323
tp1324
a(S'looked'
g43
tp1325
a(S'so'
g56
tp1326
a(S'smooth'
g35
tp1327
a(S'!'
S'.'
tp1328
aa(lp1329
(S'just'
S'RB'
p1330
tp1331
a(S'a'
g73
tp1332
a(S'good'
g35
tp1333
a(S'neighborhood'
g18
tp1334
a(S'coffee'
g18
tp1335
a(S'shop'
g18
tp1336
a(S'without'
S'IN'
p1337
tp1338
a(S'the'
g16
tp1339
a(S'boy'
g18
tp1340
a(S'watching'
g18
tp1341
a(S'or'
g550
tp1342
a(S'pretentiousness'
g18
tp1343
a(S'you'
g244
tp1344
a(S'may'
g472
tp1345
a(S'find'
g138
tp1346
a(S'at'
g400
tp1347
a(S'the'
g16
tp1348
a(S'nearest'
g984
tp1349
a(S'starbucks'
g37
tp1350
a(S'.'
S'.'
tp1351
aa(lp1352
(S'One'
g437
tp1353
a(S'entree'
g18
tp1354
a(S'was'
g43
tp1355
a(S'the'
g16
tp1356
a(S'salmon'
g18
tp1357
a(S','
S','
tp1358
a(S'and'
g48
tp1359
a(S'it'
g102
tp1360
a(S'was'
g43
tp1361
a(S'heavenly'
g56
tp1362
a(S'.'
S'.'
tp1363
aa(lp1364
(S'except'
g9
tp1365
a(S'This'
g906
tp1366
a(S'pizza'
g18
tp1367
a(S'.'
S'.'
tp1368
aa(lp1369
(S'The'
g172
tp1370
a(S'server'
g18
tp1371
a(S'brought'
g43
tp1372
a(S'delicious'
g35
tp1373
a(S'bread'
g18
tp1374
a(S'and'
g48
tp1375
a(S'bean'
g35
tp1376
a(S'spread'
g18
tp1377
a(S'and'
g48
tp1378
a(S'that'
g9
tp1379
a(S'made'
g43
tp1380
a(S'the'
g16
tp1381
a(S'brussel'
g18
tp1382
a(S'sprout'
g18
tp1383
a(S'appetizer'
g18
tp1384
a(S'and'
g48
tp1385
a(S'the'
g16
tp1386
a(S'roasted'
g35
tp1387
a(S'beet'
g18
tp1388
a(S'appetizer'
g18
tp1389
a(S'so'
g56
tp1390
a(S'sinfully'
g56
tp1391
a(S'delicious'
g35
tp1392
a(S'I'
g41
tp1393
a(S'had'
g43
tp1394
a(S'to'
g7
tp1395
a(S'eat'
g138
tp1396
a(S'really'
S'RB'
p1397
tp1398
a(S'slow'
g35
tp1399
a(S'to'
g7
tp1400
a(S'savor'
g138
tp1401
a(S'each'
g50
tp1402
a(S'bite'
g18
tp1403
a(S'.'
S'.'
tp1404
aa(lp1405
(S'Much'
g35
tp1406
a(S'of'
g25
tp1407
a(S'the'
g16
tp1408
a(S'old'
S'JJ'
p1409
tp1410
a(S"Swensen's"
g3
tp1411
a(S'chain'
S'NN'
p1412
tp1413
a(S'seems'
g361
tp1414
a(S'to'
g7
tp1415
a(S'be'
g180
tp1416
a(S'gone'
S'VBN'
p1417
tp1418
a(S','
S','
tp1419
a(S'but'
g212
tp1420
a(S'the'
g16
tp1421
a(S'Mother'
g3
tp1422
a(S'Ship'
g3
tp1423
a(S'is'
g125
tp1424
a(S'still'
g160
tp1425
a(S'a'
g73
tp1426
a(S'light'
g18
tp1427
a(S'in'
g320
tp1428
a(S'the'
g16
tp1429
a(S'storm'
g18
tp1430
a(S'with'
g20
tp1431
a(S'its'
g425
tp1432
a(S'reliably'
g56
tp1433
a(S'good'
g35
tp1434
a(S'ice'
g18
tp1435
a(S'cream'
g18
tp1436
a(S'.'
S'.'
tp1437
aa(lp1438
(S'My'
g425
tp1439
a(S'favorite'
g18
tp1440
a(S'is'
g125
tp1441
a(S'the'
g16
tp1442
a(S'chocolate'
g18
tp1443
a(S'with'
g20
tp1444
a(S'the'
g16
tp1445
a(S'peanut'
g18
tp1446
a(S'butter'
g18
tp1447
a(S'filling'
g18
tp1448
a(S'.'
S'.'
tp1449
aa(lp1450
(S'Four'
g437
tp1451
a(S'our'
g1269
tp1452
a(S'main'
S'JJ'
p1453
tp1454
a(S'dish'
g18
tp1455
a(S'we'
g410
tp1456
a(S'got'
g43
tp1457
a(S'chicken'
g345
tp1458
a(S'kabobs'
g18
tp1459
a(S'and'
g48
tp1460
a(S'kibbi'
g18
tp1461
a(S'('
S'('
tp1462
a(S'lamb'
g35
tp1463
a(S'balls'
g37
tp1464
a(S')'
S')'
tp1465
a(S'.'
S'.'
tp1466
aa(lp1467
(S'for'
g186
tp1468
a(S'my'
g182
tp1469
a(S'brunch'
g18
tp1470
a(S','
S','
tp1471
a(S'i'
g18
tp1472
a(S'ended'
g43
tp1473
a(S'up'
g249
tp1474
a(S'getting'
S'VBG'
p1475
tp1476
a(S'the'
g16
tp1477
a(S'chicken'
g18
tp1478
a(S'apple'
S'NN'
p1479
tp1480
a(S'sausage'
g18
tp1481
a(S'w'
g18
tp1482
a(S'fried'
g43
tp1483
a(S'eggs'
g37
tp1484
a(S','
S','
tp1485
a(S'an'
g96
tp1486
a(S'english'
g35
tp1487
a(S'muffin'
g18
tp1488
a(S'and'
g48
tp1489
a(S'grits'
g37
tp1490
a(S'.'
S'.'
tp1491
aa(lp1492
(S"I've"
g3
tp1493
a(S'had'
g43
tp1494
a(S'the'
g16
tp1495
a(S'soup'
g18
tp1496
a(S'a'
g73
tp1497
a(S'couple'
g18
tp1498
a(S'times'
g37
tp1499
a(S'and'
g48
tp1500
a(S'it'
g102
tp1501
a(S'is'
g125
tp1502
a(S'a'
g73
tp1503
a(S'bit'
g18
tp1504
a(S'oily'
g56
tp1505
a(S'.'
S'.'
tp1506
aa(lp1507
(S'The'
g172
tp1508
a(S'waiters'
g37
tp1509
a(S'are'
g230
tp1510
a(S'always'
g69
tp1511
a(S'friendly'
g56
tp1512
a(S'and'
g48
tp1513
a(S'knowledgeable'
g138
tp1514
a(S'about'
g9
tp1515
a(S'their'
g238
tp1516
a(S'selections'
g37
tp1517
a(S'for'
g186
tp1518
a(S'the'
g16
tp1519
a(S'day'
g157
tp1520
a(S','
S','
tp1521
a(S'and'
g48
tp1522
a(S'the'
g16
tp1523
a(S'fish'
g18
tp1524
a(S'is'
g125
tp1525
a(S'always'
g69
tp1526
a(S'fresh'
g35
tp1527
a(S'and'
g48
tp1528
a(S'amazing'
g35
tp1529
a(S'.'
S'.'
tp1530
aa(lp1531
(S'The'
g172
tp1532
a(S'Roasted'
g3
tp1533
a(S'Turkey'
g3
tp1534
a(S'plate'
g18
tp1535
a(S'came'
g729
tp1536
a(S'with'
g20
tp1537
a(S'stuffing'
g18
tp1538
a(S','
S','
tp1539
a(S'mashed'
g43
tp1540
a(S'potatoes'
g37
tp1541
a(S'and'
g48
tp1542
a(S'cranberry'
g18
tp1543
a(S'sauce'
g18
tp1544
a(S'.'
S'.'
tp1545
aa(lp1546
(S'The'
g172
tp1547
a(S'staff'
g83
tp1548
a(S'churns'
g98
tp1549
a(S'out'
g249
tp1550
a(S'overstuffed'
g35
tp1551
a(S'hot'
g35
tp1552
a(S'and'
g48
tp1553
a(S'cold'
g35
tp1554
a(S'gourmet'
g18
tp1555
a(S'sandwiches'
g37
tp1556
a(S'rapidly'
g56
tp1557
a(S'enough'
g56
tp1558
a(S'to'
g7
tp1559
a(S'keep'
g138
tp1560
a(S'the'
g16
tp1561
a(S'line'
S'NN'
p1562
tp1563
a(S'moving'
g122
tp1564
a(S'at'
g400
tp1565
a(S'a'
g73
tp1566
a(S'steady'
g35
tp1567
a(S'clip'
g18
tp1568
a(S'.'
S'.'
tp1569
aa(lp1570
(S'If'
S'IN'
p1571
tp1572
a(S'I'
g41
tp1573
a(S'had'
g43
tp1574
a(S'known'
g345
tp1575
a(S'I'
g41
tp1576
a(S'would'
g196
tp1577
a(S'have'
g138
tp1578
a(S'mixed'
g345
tp1579
a(S'the'
g16
tp1580
a(S'toppings'
g37
tp1581
a(S'together'
g56
tp1582
a(S'before'
g9
tp1583
a(S'I'
g41
tp1584
a(S'ate'
g71
tp1585
a(S'the'
g16
tp1586
a(S'first'
g35
tp1587
a(S'taco'
g18
tp1588
a(S'.'
S'.'
tp1589
aa(lp1590
(S"It's"
g3
tp1591
a(S'all'
g96
tp1592
a(S'about'
g9
tp1593
a(S'the'
g16
tp1594
a(S'homemade'
g18
tp1595
a(S'noodles'
g37
tp1596
a(S'black'
S'JJ'
p1597
tp1598
a(S'bean'
g35
tp1599
a(S'noodles'
g37
tp1600
a(S'('
S'('
tp1601
a(S'jja'
g18
tp1602
a(S'jjang'
g18
tp1603
a(S'mien'
g18
tp1604
a(S')'
S')'
tp1605
a(S'and'
g48
tp1606
a(S'spicy'
S'$'
tp1607
a(S'seafood'
g18
tp1608
a(S'noodle'
g35
tp1609
a(S'soup'
g18
tp1610
a(S'('
S'('
tp1611
a(S'jjam'
g18
tp1612
a(S'pong'
g18
tp1613
a(S')'
S')'
tp1614
a(S'.'
S'.'
tp1615
aa(lp1616
(S'The'
g172
tp1617
a(S'Figs'
g3
tp1618
a(S'were'
g31
tp1619
a(S'so'
g56
tp1620
a(S'fresh'
g35
tp1621
a(S'and'
g48
tp1622
a(S'the'
g16
tp1623
a(S'prosciutto'
g18
tp1624
a(S'so'
g56
tp1625
a(S'damn'
g35
tp1626
a(S'BUTTERY'
g3
tp1627
a(S','
S','
tp1628
a(S'the'
g16
tp1629
a(S'whole'
g35
tp1630
a(S'thing'
S'NN'
p1631
tp1632
a(S'melted'
g345
tp1633
a(S'in'
g320
tp1634
a(S'our'
g1269
tp1635
a(S'mouths'
g37
tp1636
a(S'.'
S'.'
tp1637
a(S'.'
S'.'
tp1638
a(S'.'
S'.'
tp1639
a(S'As'
g56
tp1640
a(S'far'
S'RB'
p1641
tp1642
a(S'as'
g9
tp1643
a(S'the'
g16
tp1644
a(S'Entrees'
g3
tp1645
a(S','
S','
tp1646
a(S'we'
g410
tp1647
a(S'all'
g96
tp1648
a(S'shared'
g43
tp1649
a(S'3'
g437
tp1650
a(S'different'
g478
tp1651
a(S'dishes'
g37
tp1652
a(S'had'
g43
tp1653
a(S'one'
g437
tp1654
a(S'phenomenal'
g35
tp1655
a(S'Food'
g3
tp1656
a(S'Orgy'
g3
tp1657
a(S'.'
S'.'
tp1658
a(S'.'
S'.'
tp1659
a(S'.'
S'.'
tp1660
a(S'yeah'
S'CC'
p1661
tp1662
a(S'you'
g244
tp1663
a(S'heard'
g71
tp1664
a(S'me'
S'PRP'
p1665
tp1666
a(S'right'
g35
tp1667
a(S','
S','
tp1668
a(S'a'
g73
tp1669
a(S'straight'
g35
tp1670
a(S'up'
g249
tp1671
a(S'Food'
g3
tp1672
a(S'Orgy'
g3
tp1673
a(S'.'
S'.'
tp1674
a(S'.'
S'.'
tp1675
a(S'.'
S'.'
tp1676
a(S'Nipples'
S'NNPS'
p1677
tp1678
a(S'were'
g31
tp1679
a(S'hard'
g56
tp1680
a(S','
S','
tp1681
a(S'Eyes'
g37
tp1682
a(S'were'
g31
tp1683
a(S'rolling'
g122
tp1684
a(S'back'
g56
tp1685
a(S'and'
g48
tp1686
a(S'a'
g73
tp1687
a(S'lot'
g18
tp1688
a(S'of'
g25
tp1689
a(S'Moaning'
g3
tp1690
a(S'and'
g48
tp1691
a(S'Drooling'
g3
tp1692
a(S'.'
S'.'
tp1693
a(S'.'
S'.'
tp1694
a(S'.'
S'.'
tp1695
aa(lp1696
(S'Still'
S'RB'
p1697
tp1698
a(S','
S','
tp1699
a(S'glad'
g18
tp1700
a(S'they'
g602
tp1701
a(S'had'
g43
tp1702
a(S'the'
g16
tp1703
a(S'samusa'
g18
tp1704
a(S'soup'
g18
tp1705
a(S','
S','
tp1706
a(S'which'
g311
tp1707
a(S'I'
g41
tp1708
a(S'love'
g71
tp1709
a(S','
S','
tp1710
a(S'but'
g212
tp1711
a(S'I'
g41
tp1712
a(S'also'
g824
tp1713
a(S'found'
g43
tp1714
a(S'a'
g73
tp1715
a(S'couple'
g18
tp1716
a(S'of'
g25
tp1717
a(S'new'
g1167
tp1718
a(S'dishes'
g37
tp1719
a(S'that'
g311
tp1720
a(S"I'll"
g3
tp1721
a(S'remember'
g138
tp1722
a(S'if'
g227
tp1723
a(S'I'
g41
tp1724
a(S'return'
g71
tp1725
a(S'('
S'('
tp1726
a(S'chicken'
g35
tp1727
a(S'claypot'
g18
tp1728
a(S','
S','
tp1729
a(S'kau'
g138
tp1730
a(S'soi'
g18
tp1731
a(S'('
S'('
tp1732
a(S'coconut'
g35
tp1733
a(S'chicken'
g18
tp1734
a(S'noodle'
g18
tp1735
a(S')'
S')'
tp1736
a(S','
S','
tp1737
a(S'platha'
g890
tp1738
a(S'dipper'
g18
tp1739
a(S'for'
g186
tp1740
a(S'appetizers'
g37
tp1741
a(S')'
S')'
tp1742
a(S'.'
S'.'
tp1743
aa(lp1744
(S'The'
g172
tp1745
a(S'jam'
g18
tp1746
a(S'is'
g125
tp1747
a(S'made'
g345
tp1748
a(S'fresh'
g35
tp1749
a(S'every'
g392
tp1750
a(S'morning'
S'NN'
p1751
tp1752
a(S'!'
S'.'
tp1753
a(S'!'
S'.'
tp1754
aa(lp1755
(S'OUR'
g56
tp1756
a(S'FOOD'
g3
tp1757
a(S'We'
g67
tp1758
a(S'ordered'
g43
tp1759
a(S'the'
g16
tp1760
a(S'crab'
g18
tp1761
a(S'benedict'
g18
tp1762
a(S','
S','
tp1763
a(S'the'
g16
tp1764
a(S'monte'
g18
tp1765
a(S'christo'
g18
tp1766
a(S','
S','
tp1767
a(S'and'
g48
tp1768
a(S'the'
g16
tp1769
a(S'french'
g35
tp1770
a(S'toast'
g18
tp1771
a(S'sampler'
g18
tp1772
a(S'.'
S'.'
tp1773
aa(lp1774
(S'Yelp'
g18
tp1775
a(S'was'
g43
tp1776
a(S'right'
g56
tp1777
a(S'on'
g140
tp1778
a(S'totally'
g56
tp1779
a(S'authentic'
g35
tp1780
a(S','
S','
tp1781
a(S'fresh'
g35
tp1782
a(S','
S','
tp1783
a(S'delicious'
g35
tp1784
a(S'large'
g519
tp1785
a(S'portions'
g37
tp1786
a(S'not'
g5
tp1787
a(S'a'
g73
tp1788
a(S'lot'
g18
tp1789
a(S'for'
g186
tp1790
a(S'non'
g35
tp1791
a(S'mammal'
g35
tp1792
a(S'eaters'
g37
tp1793
a(S'but'
g212
tp1794
a(S"there's"
g71
tp1795
a(S'the'
g16
tp1796
a(S'veggie'
g18
tp1797
a(S'schnitzel'
g18
tp1798
a(S','
S','
tp1799
a(S'always'
g69
tp1800
a(S'a'
g73
tp1801
a(S'good'
g35
tp1802
a(S'fish'
g18
tp1803
a(S'special'
g35
tp1804
a(S'('
S'('
tp1805
a(S'tonight'
g35
tp1806
a(S'rainbow'
g18
tp1807
a(S'trout'
g18
tp1808
a(S'stuffed'
g43
tp1809
a(S'w'
g35
tp1810
a(S'spinach'
g18
tp1811
a(S')'
S')'
tp1812
a(S','
S','
tp1813
a(S'apps'
g56
tp1814
a(S'smoked'
g43
tp1815
a(S'salmon'
g18
tp1816
a(S','
S','
tp1817
a(S'pickled'
g43
tp1818
a(S'herring'
g122
tp1819
a(S'w'
g18
tp1820
a(S'creamy'
g18
tp1821
a(S'dill'
g18
tp1822
a(S'sauce'
g138
tp1823
a(S','
S','
tp1824
a(S'potato'
g18
tp1825
a(S'latkes'
g37
tp1826
a(S'which'
g311
tp1827
a(S'are'
g230
tp1828
a(S'mashed'
g345
tp1829
a(S'vs'
g56
tp1830
a(S'grated'
g345
tp1831
a(S','
S','
tp1832
a(S'etc'
g890
tp1833
a(S'.'
S'.'
tp1834
aa(lp1835
(S'On'
g841
tp1836
a(S'my'
g182
tp1837
a(S'most'
g1124
tp1838
a(S'recent'
S'JJ'
p1839
tp1840
a(S'trip'
S'NN'
p1841
tp1842
a(S','
S','
tp1843
a(S'we'
g410
tp1844
a(S'had'
g43
tp1845
a(S'the'
g16
tp1846
a(S'spicy'
g18
tp1847
a(S'green'
g35
tp1848
a(S'beans'
g37
tp1849
a(S','
S','
tp1850
a(S'pad'
g18
tp1851
a(S'thai'
g18
tp1852
a(S','
S','
tp1853
a(S'and'
g48
tp1854
a(S'the'
g16
tp1855
a(S'gang'
g18
tp1856
a(S'garee'
g35
tp1857
a(S'gai'
g18
tp1858
a(S','
S','
tp1859
a(S'which'
g311
tp1860
a(S'were'
g31
tp1861
a(S'all'
g96
tp1862
a(S'quite'
g56
tp1863
a(S'tasty'
g35
tp1864
a(S','
S','
tp1865
a(S'and'
g48
tp1866
a(S'for'
g186
tp1867
a(S'about'
g56
tp1868
a(S'7'
S'CD'
p1869
tp1870
a(S'a'
g73
tp1871
a(S'dish'
g18
tp1872
a(S','
S','
tp1873
a(S'you'
g244
tp1874
a(S'really'
g1397
tp1875
a(S'cant'
g35
tp1876
a(S'beat'
g43
tp1877
a(S'the'
g16
tp1878
a(S'price'
S'NN'
p1879
tp1880
a(S'!'
S'.'
tp1881
aa(lp1882
(S"Can't"
g3
tp1883
a(S'go'
g138
tp1884
a(S'wrong'
g35
tp1885
a(S'with'
g20
tp1886
a(S'Guac'
g3
tp1887
a(S','
S','
tp1888
a(S'Western'
g3
tp1889
a(S','
S','
tp1890
a(S'Hickory'
g3
tp1891
a(S','
S','
tp1892
a(S'Bacon'
g3
tp1893
a(S'Cheese'
g3
tp1894
a(S','
S','
tp1895
a(S'North'
g3
tp1896
a(S'Beach'
g3
tp1897
a(S'and'
g48
tp1898
a(S'the'
g16
tp1899
a(S'Classic'
g35
tp1900
a(S'burgers'
g37
tp1901
a(S'.'
S'.'
tp1902
aa(lp1903
(S'The'
g172
tp1904
a(S'tuna'
g18
tp1905
a(S'rolls'
g37
tp1906
a(S'were'
g31
tp1907
a(S'pretty'
g56
tp1908
a(S'small'
g356
tp1909
a(S'as'
g56
tp1910
a(S'well'
g56
tp1911
a(S'('
S'('
tp1912
a(S'I'
g41
tp1913
a(S'guess'
g71
tp1914
a(S"that's"
g56
tp1915
a(S'considered'
g345
tp1916
a(S'normal'
S'JJ'
p1917
tp1918
a(S')'
S')'
tp1919
a(S'.'
S'.'
tp1920
aa(lp1921
(S'Also'
S'RB'
p1922
tp1923
a(S'had'
g43
tp1924
a(S'the'
g16
tp1925
a(S'asparagus'
g18
tp1926
a(S'and'
g48
tp1927
a(S'goat'
g18
tp1928
a(S'cheese'
g35
tp1929
a(S'omlet'
g18
tp1930
a(S'and'
g48
tp1931
a(S'it'
g102
tp1932
a(S'hit'
g43
tp1933
a(S'the'
g16
tp1934
a(S'spot'
g18
tp1935
a(S'.'
S'.'
tp1936
aa(lp1937
(S'Seems'
g37
tp1938
a(S'like'
g9
tp1939
a(S'a'
g73
tp1940
a(S'nice'
g35
tp1941
a(S'place'
g18
tp1942
a(S'to'
g7
tp1943
a(S'read'
g138
tp1944
a(S'a'
g73
tp1945
a(S'book'
S'NN'
p1946
tp1947
a(S'or'
g550
tp1948
a(S'chat'
g18
tp1949
a(S'over'
g9
tp1950
a(S'coffee'
g18
tp1951
a(S'.'
S'.'
tp1952
aa(lp1953
(S"I've"
g3
tp1954
a(S'had'
g43
tp1955
a(S'a'
g73
tp1956
a(S'variety'
g18
tp1957
a(S'of'
g25
tp1958
a(S'hearty'
g18
tp1959
a(S'pasta'
g18
tp1960
a(S'dishes'
g37
tp1961
a(S','
S','
tp1962
a(S'like'
g9
tp1963
a(S'the'
g16
tp1964
a(S'Linguine'
g3
tp1965
a(S'and'
g48
tp1966
a(S'Capellini'
g3
tp1967
a(S','
S','
tp1968
a(S'and'
g48
tp1969
a(S'great'
g414
tp1970
a(S'protein'
g18
tp1971
a(S'dishes'
g37
tp1972
a(S'like'
g9
tp1973
a(S'the'
g16
tp1974
a(S'Hangar'
g3
tp1975
a(S'Steak'
g3
tp1976
a(S'and'
g48
tp1977
a(S'Liberty'
g3
tp1978
a(S'Farms'
g3
tp1979
a(S'Duck'
g3
tp1980
a(S'Breast'
g3
tp1981
a(S'('
S'('
tp1982
a(S'and'
g48
tp1983
a(S"it's"
g138
tp1984
a(S'nice'
g35
tp1985
a(S'to'
g7
tp1986
a(S'see'
g138
tp1987
a(S"they're"
g35
tp1988
a(S'showcasing'
g122
tp1989
a(S'local'
S'JJ'
p1990
tp1991
a(S'meat'
g18
tp1992
a(S'sources'
S'NNS'
p1993
tp1994
a(S'to'
g7
tp1995
a(S'an'
g96
tp1996
a(S'extent'
g18
tp1997
a(S')'
S')'
tp1998
a(S'.'
S'.'
tp1999
aa(lp2000
(S'If'
g1571
tp2001
a(S'you'
g244
tp2002
a(S"don't"
g71
tp2003
a(S'eat'
g138
tp2004
a(S'white'
g748
tp2005
a(S'rice'
g18
tp2006
a(S','
S','
tp2007
a(S'tell'
g138
tp2008
a(S'them'
g562
tp2009
a(S'when'
g115
tp2010
a(S'you'
g244
tp2011
a(S'order'
g11
tp2012
a(S'.'
S'.'
tp2013
aa(lp2014
(S'the'
g16
tp2015
a(S'meatballs'
g37
tp2016
a(S'were'
g31
tp2017
a(S'really'
g1397
tp2018
a(S'tender'
g35
tp2019
a(S'and'
g48
tp2020
a(S'flavorful'
g35
tp2021
a(S','
S','
tp2022
a(S'but'
g212
tp2023
a(S'i'
g56
tp2024
a(S'liked'
g43
tp2025
a(S'the'
g16
tp2026
a(S'bits'
g37
tp2027
a(S'of'
g25
tp2028
a(S'pinenuts'
g37
tp2029
a(S'in'
g320
tp2030
a(S'the'
g16
tp2031
a(S'meatballs'
g37
tp2032
a(S','
S','
tp2033
a(S'added'
g43
tp2034
a(S'a'
g73
tp2035
a(S'bit'
g18
tp2036
a(S'of'
g25
tp2037
a(S'texture'
g18
tp2038
a(S'.'
S'.'
tp2039
aa(lp2040
(S'I'
g41
tp2041
a(S'was'
g43
tp2042
a(S'informed'
g345
tp2043
a(S'that'
g9
tp2044
a(S'it'
g102
tp2045
a(S'was'
g43
tp2046
a(S'hofbrau'
g35
tp2047
a(S'style'
g830
tp2048
a(S'food'
g845
tp2049
a(S'with'
g20
tp2050
a(S'lots'
g37
tp2051
a(S'of'
g25
tp2052
a(S'different'
g478
tp2053
a(S'kinds'
g37
tp2054
a(S'of'
g25
tp2055
a(S'carved'
g35
tp2056
a(S'meats'
g37
tp2057
a(S','
S','
tp2058
a(S'pastas'
g37
tp2059
a(S'and'
g48
tp2060
a(S'more'
g1009
tp2061
a(S'.'
S'.'
tp2062
aa(lp2063
(S'That'
g96
tp2064
a(S'being'
S'VBG'
p2065
tp2066
a(S'said'
g1246
tp2067
a(S','
S','
tp2068
a(S'their'
g238
tp2069
a(S'green'
g35
tp2070
a(S'beans'
g37
tp2071
a(S'taste'
g71
tp2072
a(S'like'
g9
tp2073
a(S'they'
g602
tp2074
a(S'came'
g729
tp2075
a(S'right'
g56
tp2076
a(S'from'
g149
tp2077
a(S'the'
g16
tp2078
a(S'can'
S'MD'
p2079
tp2080
a(S','
S','
tp2081
a(S'IE'
g3
tp2082
a(S','
S','
tp2083
a(S'like'
g9
tp2084
a(S'garbage'
g18
tp2085
a(S'.'
S'.'
tp2086
aa(lp2087
(S'And'
S'CC'
p2088
tp2089
a(S'then'
S'RB'
p2090
tp2091
a(S','
S','
tp2092
a(S'for'
g186
tp2093
a(S'the'
g16
tp2094
a(S'dessert'
g18
tp2095
a(S','
S','
tp2096
a(S'we'
g410
tp2097
a(S'split'
g43
tp2098
a(S'the'
g16
tp2099
a(S'Sokolatina'
g3
tp2100
a(S'('
S'('
tp2101
a(S'flourless'
g35
tp2102
a(S'dark'
g18
tp2103
a(S'chocolate'
g18
tp2104
a(S'cake'
g18
tp2105
a(S'with'
g20
tp2106
a(S'sweetened'
g345
tp2107
a(S'whipped'
g35
tp2108
a(S'cream'
g18
tp2109
a(S')'
S')'
tp2110
a(S'to'
g7
tp2111
a(S'die'
g138
tp2112
a(S'for'
g186
tp2113
a(S'!'
S'.'
tp2114
aa(lp2115
(S'Had'
g43
tp2116
a(S'the'
g16
tp2117
a(S'fried'
g345
tp2118
a(S'calimari'
g18
tp2119
a(S'appetizer'
g18
tp2120
a(S'which'
g311
tp2121
a(S'were'
g31
tp2122
a(S'grubbing'
g122
tp2123
a(S'('
S'('
tp2124
a(S'and'
g48
tp2125
a(S'huge'
g112
tp2126
a(S')'
S')'
tp2127
a(S'.'
S'.'
tp2128
aa(lp2129
(S'Family'
g56
tp2130
a(S'style'
g830
tp2131
a(S'dining'
g18
tp2132
a(S'in'
g320
tp2133
a(S'a'
g73
tp2134
a(S'big'
g625
tp2135
a(S'dining'
g18
tp2136
a(S'room'
S'NN'
p2137
tp2138
a(S'upstairs'
g37
tp2139
a(S','
S','
tp2140
a(S'with'
g20
tp2141
a(S'all'
g96
tp2142
a(S'sorts'
g37
tp2143
a(S'of'
g25
tp2144
a(S'pictures'
g37
tp2145
a(S'and'
g48
tp2146
a(S'art'
g18
tp2147
a(S'on'
g140
tp2148
a(S'the'
g16
tp2149
a(S'wall'
g18
tp2150
a(S','
S','
tp2151
a(S'and'
g48
tp2152
a(S'the'
g16
tp2153
a(S'infamous'
g35
tp2154
a(S'bust'
g18
tp2155
a(S'of'
g25
tp2156
a(S'the'
g16
tp2157
a(S'Pope'
g3
tp2158
a(S'as'
g9
tp2159
a(S'others'
S'NNS'
p2160
tp2161
a(S'mentioned'
g43
tp2162
a(S'!'
S'.'
tp2163
aa(lp2164
(S'Had'
g43
tp2165
a(S'a'
g73
tp2166
a(S'great'
g414
tp2167
a(S'pizza'
g18
tp2168
a(S'.'
S'.'
tp2169
aa(lp2170
(S'I'
g41
tp2171
a(S'would'
g196
tp2172
a(S'recommend'
g138
tp2173
a(S'the'
g16
tp2174
a(S'seafood'
g18
tp2175
a(S'stew'
g18
tp2176
a(S'.'
S'.'
tp2177
aa(lp2178
(S'The'
g172
tp2179
a(S'warm'
g35
tp2180
a(S'baby'
g18
tp2181
a(S'spinach'
g18
tp2182
a(S'salad'
g18
tp2183
a(S'with'
g20
tp2184
a(S'balsamic'
g35
tp2185
a(S'onions'
g37
tp2186
a(S','
S','
tp2187
a(S'crispy'
g18
tp2188
a(S'pancetta'
g18
tp2189
a(S'('
S'('
tp2190
a(S'AMAZING'
g3
tp2191
a(S')'
S')'
tp2192
a(S','
S','
tp2193
a(S'roasted'
g345
tp2194
a(S'tomatoes'
g37
tp2195
a(S'and'
g48
tp2196
a(S'goat'
g18
tp2197
a(S'cheese'
g18
tp2198
a(S'was'
g43
tp2199
a(S'great'
g414
tp2200
a(S'!'
S'.'
tp2201
aa(lp2202
(S'great'
g414
tp2203
a(S'sashimi'
g18
tp2204
a(S','
S','
tp2205
a(S'creative'
g35
tp2206
a(S'grilled'
g345
tp2207
a(S'items'
S'NNS'
p2208
tp2209
a(S','
S','
tp2210
a(S'lots'
g37
tp2211
a(S'of'
g25
tp2212
a(S'sake'
g18
tp2213
a(S'choices'
g37
tp2214
a(S'.'
S'.'
tp2215
aa(lp2216
(S'They'
S'PRP'
p2217
tp2218
a(S'noticeably'
g56
tp2219
a(S'forgo'
g71
tp2220
a(S'MSG'
g3
tp2221
a(S'in'
g320
tp2222
a(S'favor'
g18
tp2223
a(S'of'
g25
tp2224
a(S'more'
g1009
tp2225
a(S'beef'
g18
tp2226
a(S'bones'
g37
tp2227
a(S'simmered'
g43
tp2228
a(S'over'
g9
tp2229
a(S'more'
g1009
tp2230
a(S'time'
g1082
tp2231
a(S'to'
g7
tp2232
a(S'get'
g138
tp2233
a(S'this'
g22
tp2234
a(S'level'
g18
tp2235
a(S'of'
g25
tp2236
a(S'sweetness'
g18
tp2237
a(S'.'
S'.'
tp2238
aa(lp2239
(S'Probably'
g56
tp2240
a(S'the'
g16
tp2241
a(S'most'
g1124
tp2242
a(S'fun'
g35
tp2243
a(S'margarita'
g18
tp2244
a(S"I've"
g3
tp2245
a(S'ever'
g945
tp2246
a(S'had'
g43
tp2247
a(S'.'
S'.'
tp2248
aa(lp2249
(S'The'
g172
tp2250
a(S'asparagus'
g18
tp2251
a(S'salad'
g18
tp2252
a(S'is'
g125
tp2253
a(S'really'
g1397
tp2254
a(S'yummy'
g35
tp2255
a(S'.'
S'.'
tp2256
aa(lp2257
(S'Went'
g3
tp2258
a(S'inside'
g56
tp2259
a(S','
S','
tp2260
a(S'sat'
g43
tp2261
a(S'myself'
g102
tp2262
a(S'down'
g249
tp2263
a(S'in'
g320
tp2264
a(S'front'
g18
tp2265
a(S'of'
g25
tp2266
a(S'the'
g16
tp2267
a(S'window'
g18
tp2268
a(S'('
S'('
tp2269
a(S'I'
g41
tp2270
a(S'love'
g71
tp2271
a(S'people'
g234
tp2272
a(S'watching'
g122
tp2273
a(S')'
S')'
tp2274
a(S','
S','
tp2275
a(S'and'
g48
tp2276
a(S'the'
g16
tp2277
a(S'waitress'
g18
tp2278
a(S'came'
g729
tp2279
a(S'on'
g140
tp2280
a(S'over'
g9
tp2281
a(S'soon'
S'RB'
p2282
tp2283
a(S'after'
g299
tp2284
a(S'.'
S'.'
tp2285
aa(lp2286
(S'One'
g437
tp2287
a(S'helped'
g43
tp2288
a(S'me'
g1665
tp2289
a(S'choose'
g138
tp2290
a(S'a'
g73
tp2291
a(S'red'
g35
tp2292
a(S'wine'
g18
tp2293
a(S'to'
g7
tp2294
a(S'sip'
g138
tp2295
a(S'as'
g9
tp2296
a(S'we'
g410
tp2297
a(S'checked'
g43
tp2298
a(S'out'
g249
tp2299
a(S'the'
g16
tp2300
a(S'menu'
g18
tp2301
a(S','
S','
tp2302
a(S'and'
g48
tp2303
a(S'the'
g16
tp2304
a(S'other'
g540
tp2305
a(S'helped'
g43
tp2306
a(S'me'
g1665
tp2307
a(S'find'
g138
tp2308
a(S'something'
S'NN'
p2309
tp2310
a(S'on'
g140
tp2311
a(S'the'
g16
tp2312
a(S'menu'
g18
tp2313
a(S'I'
g41
tp2314
a(S'could'
g136
tp2315
a(S'actually'
S'RB'
p2316
tp2317
a(S'eat'
g138
tp2318
a(S'!'
S'.'
tp2319
aa(lp2320
(S'I'
g41
tp2321
a(S"wasn't"
g71
tp2322
a(S'expecting'
g122
tp2323
a(S'much'
g35
tp2324
a(S'but'
g212
tp2325
a(S'was'
g43
tp2326
a(S'definitely'
g56
tp2327
a(S'overwhelmed'
g345
tp2328
a(S'with'
g20
tp2329
a(S'the'
g16
tp2330
a(S'flavor'
g18
tp2331
a(S'of'
g25
tp2332
a(S'the'
g16
tp2333
a(S'burrito'
g18
tp2334
a(S'which'
g311
tp2335
a(S'combined'
g43
tp2336
a(S'the'
g16
tp2337
a(S'('
S'('
tp2338
a(S'Mexican'
g3
tp2339
a(S')'
S')'
tp2340
a(S'salsa'
g18
tp2341
a(S'and'
g48
tp2342
a(S'the'
g16
tp2343
a(S'('
S'('
tp2344
a(S'Korean'
g3
tp2345
a(S')'
S')'
tp2346
a(S'sauce'
g18
tp2347
a(S'with'
g20
tp2348
a(S'bulgogi'
g18
tp2349
a(S','
S','
tp2350
a(S'kimchee'
g18
tp2351
a(S','
S','
tp2352
a(S'rice'
g18
tp2353
a(S','
S','
tp2354
a(S'beans'
g37
tp2355
a(S','
S','
tp2356
a(S'onion'
g18
tp2357
a(S'amp'
g18
tp2358
a(S';'
S':'
tp2359
a(S'cilantro'
g18
tp2360
a(S'.'
S'.'
tp2361
aa(lp2362
(S'Came'
g18
tp2363
a(S'here'
g151
tp2364
a(S'with'
g20
tp2365
a(S'Julia'
g3
tp2366
a(S'Z'
g3
tp2367
a(S'.'
S'.'
tp2368
a(S'and'
g48
tp2369
a(S'buddies'
g37
tp2370
a(S'for'
g186
tp2371
a(S'round'
g18
tp2372
a(S'one'
g437
tp2373
a(S'of'
g25
tp2374
a(S'Dine'
g3
tp2375
a(S'About'
g9
tp2376
a(S'Town'
g3
tp2377
a(S'2010'
g437
tp2378
a(S'and'
g48
tp2379
a(S'was'
g43
tp2380
a(S'pretty'
g56
tp2381
a(S'blown'
g345
tp2382
a(S'away'
g56
tp2383
a(S'by'
g406
tp2384
a(S'the'
g16
tp2385
a(S'steak'
g18
tp2386
a(S'and'
g48
tp2387
a(S'ambiance'
g18
tp2388
a(S'.'
S'.'
tp2389
aa(lp2390
(S'The'
g172
tp2391
a(S'only'
g35
tp2392
a(S'thing'
g1631
tp2393
a(S"I'd"
g3
tp2394
a(S'wish'
g35
tp2395
a(S"they'd"
g18
tp2396
a(S'improve'
g138
tp2397
a(S'on'
g140
tp2398
a(S'is'
g125
tp2399
a(S'their'
g238
tp2400
a(S'Iced'
g35
tp2401
a(S'Tea'
g3
tp2402
a(S'.'
S'.'
tp2403
aa(lp2404
(S'The'
g172
tp2405
a(S'duck'
g18
tp2406
a(S'was'
g43
tp2407
a(S'pretty'
g35
tp2408
a(S'moist'
g18
tp2409
a(S'and'
g48
tp2410
a(S'yummy'
g18
tp2411
a(S')'
S')'
tp2412
a(S'.'
S'.'
tp2413
aa(lp2414
(S'B2B'
g3
tp2415
a(S'done'
S'VBN'
p2416
tp2417
a(S'and'
g48
tp2418
a(S'over'
g9
tp2419
a(S'with'
g20
tp2420
a(S'?'
S'.'
tp2421
aa(lp2422
(S'Under'
S'IN'
p2423
tp2424
a(S'my'
g182
tp2425
a(S"friend's"
g35
tp2426
a(S'instruction'
g18
tp2427
a(S'I'
g41
tp2428
a(S'had'
g43
tp2429
a(S'the'
g16
tp2430
a(S'Monte'
g3
tp2431
a(S'Cristo'
g3
tp2432
a(S'which'
g311
tp2433
a(S'was'
g43
tp2434
a(S'a'
g73
tp2435
a(S'plethora'
g18
tp2436
a(S'of'
g25
tp2437
a(S'cheese'
g18
tp2438
a(S'and'
g48
tp2439
a(S'deep'
g35
tp2440
a(S'fried'
g35
tp2441
a(S'goodness'
g18
tp2442
a(S'.'
S'.'
tp2443
aa(lp2444
(S')'
S')'
tp2445
a(S','
S','
tp2446
a(S'a'
g73
tp2447
a(S'small'
g356
tp2448
a(S'scoop'
g18
tp2449
a(S'of'
g25
tp2450
a(S'ice'
g18
tp2451
a(S'cream'
g18
tp2452
a(S'with'
g20
tp2453
a(S'berry'
g18
tp2454
a(S'sauce'
g18
tp2455
a(S','
S','
tp2456
a(S'and'
g48
tp2457
a(S'some'
g717
tp2458
a(S'berries'
g37
tp2459
a(S'in'
g320
tp2460
a(S'cream'
g18
tp2461
a(S'on'
g140
tp2462
a(S'the'
g16
tp2463
a(S'side'
g18
tp2464
a(S'.'
S'.'
tp2465
aa(lp2466
(S'I'
g41
tp2467
a(S'had'
g43
tp2468
a(S'the'
g16
tp2469
a(S'corned'
g345
tp2470
a(S'beef'
g18
tp2471
a(S'hash'
g18
tp2472
a(S','
S','
tp2473
a(S'which'
g311
tp2474
a(S'was'
g43
tp2475
a(S'quite'
g56
tp2476
a(S'delicious'
g35
tp2477
a(S'.'
S'.'
tp2478
aa(lp2479
(S'all'
g96
tp2480
a(S'in'
g320
tp2481
a(S'all'
g96
tp2482
a(S','
S','
tp2483
a(S'a'
g73
tp2484
a(S'good'
g35
tp2485
a(S'combination'
g18
tp2486
a(S'.'
S'.'
tp2487
aa(lp2488
(S'Everything'
g18
tp2489
a(S'we'
g410
tp2490
a(S'had'
g43
tp2491
a(S'was'
g43
tp2492
a(S'fresh'
g35
tp2493
a(S'and'
g48
tp2494
a(S'delicious'
g35
tp2495
a(S'.'
S'.'
tp2496
aa(lp2497
(S'Love'
g138
tp2498
a(S'the'
g16
tp2499
a(S'garden'
g18
tp2500
a(S','
S','
tp2501
a(S'love'
g138
tp2502
a(S'the'
g16
tp2503
a(S'breakfasts'
g37
tp2504
a(S','
S','
tp2505
a(S'love'
g71
tp2506
a(S'the'
g16
tp2507
a(S'great'
g414
tp2508
a(S'wines'
g37
tp2509
a(S'by'
g406
tp2510
a(S'the'
g16
tp2511
a(S'glass'
g18
tp2512
a(S'.'
S'.'
tp2513
aa.