(lp1
(lp2
(S'Back'
S'RB'
p3
S'O'
tp4
a(S'when'
S'WRB'
p5
S'O'
tp6
a(S'I'
S'PRP'
p7
S'O'
tp8
a(S'was'
S'VBD'
p9
S'O'
tp10
a(S'splurging'
S'VBG'
p11
S'O'
tp12
a(S'more'
S'JJR'
p13
S'O'
tp14
a(S'than'
S'IN'
p15
S'O'
tp16
a(S'normal'
S'JJ'
S'O'
tp17
a(S','
S','
S'O'
tp18
a(S'I'
g7
S'O'
tp19
a(S'used'
g9
S'O'
tp20
a(S'to'
S'TO'
p21
S'O'
tp22
a(S'like'
S'VB'
p23
S'O'
tp24
a(S'to'
g21
S'O'
tp25
a(S'come'
g23
S'O'
tp26
a(S'here'
S'RB'
p27
S'O'
tp28
a(S'and'
S'CC'
p29
S'O'
tp30
a(S'eat'
g23
S'O'
tp31
a(S'a'
S'DT'
p32
S'O'
tp33
a(S'breakfast'
S'NN'
p34
S'FOOD'
p35
tp36
a(S'burrito'
g34
g35
tp37
a(S'slathered'
S'VBN'
p38
S'O'
tp39
a(S'with'
S'IN'
p40
S'O'
tp41
a(S'some'
S'DT'
p42
S'O'
tp43
a(S'hot'
S'JJ'
p44
g35
tp45
a(S'sauce'
g34
g35
tp46
a(S'in'
S'IN'
p47
S'O'
tp48
a(S'the'
S'DT'
p49
S'O'
tp50
a(S'morning'
S'NN'
S'O'
tp51
a(S'before'
S'IN'
p52
S'O'
tp53
a(S'work'
g34
S'O'
tp54
a(S'.'
S'.'
S'O'
tp55
aa(lp56
(S'Almost'
g3
S'O'
tp57
a(S'the'
g49
S'O'
tp58
a(S'entire'
S'JJ'
S'O'
tp59
a(S'wait'
g34
S'O'
tp60
a(S'staff'
S'NN'
p61
S'O'
tp62
a(S'seemed'
g9
S'O'
tp63
a(S'to'
g21
S'O'
tp64
a(S'be'
S'VB'
p65
S'O'
tp66
a(S'cranky'
g44
S'O'
tp67
a(S'older'
g13
S'O'
tp68
a(S'men'
S'NNS'
S'O'
tp69
a(S'('
S'('
S'O'
tp70
a(S'in'
g47
S'O'
tp71
a(S'a'
g32
S'O'
tp72
a(S'good'
g44
S'O'
tp73
a(S','
S','
S'O'
tp74
a(S'fun'
g44
S'O'
tp75
a(S'way'
S'NN'
p76
S'O'
tp77
a(S')'
S')'
S'O'
tp78
a(S'.'
S'.'
S'O'
tp79
aa(lp80
(S'I'
g7
S'O'
tp81
a(S'had'
g9
S'O'
tp82
a(S'the'
g49
S'O'
tp83
a(S'gumbo'
g34
g35
tp84
a(S','
S','
S'O'
tp85
a(S'which'
S'WDT'
p86
S'O'
tp87
a(S'was'
g9
S'O'
tp88
a(S'more'
g13
S'O'
tp89
a(S'of'
S'IN'
p90
S'O'
tp91
a(S'a'
g32
S'O'
tp92
a(S'tomato'
g34
g35
tp93
a(S'based'
S'VBN'
g35
tp94
a(S'soup'
g34
g35
tp95
a(S'to'
g21
S'O'
tp96
a(S'me'
S'PRP'
p97
S'O'
tp98
a(S'.'
S'.'
S'O'
tp99
aa(lp100
(S'Since'
S'IN'
S'O'
tp101
a(S'I'
g7
S'O'
tp102
a(S'live'
S'VBP'
p103
S'O'
tp104
a(S'up'
S'RP'
p105
S'O'
tp106
a(S'the'
g49
S'O'
tp107
a(S'hill'
g34
S'O'
tp108
a(S'it'
S'PRP'
p109
S'O'
tp110
a(S'is'
S'VBZ'
p111
S'O'
tp112
a(S'almost'
S'RB'
p113
S'O'
tp114
a(S'always'
S'RB'
p115
S'O'
tp116
a(S'on'
S'IN'
p117
S'O'
tp118
a(S'my'
S'PRP$'
p119
S'O'
tp120
a(S'way'
g76
S'O'
tp121
a(S'home'
g34
S'O'
tp122
a(S','
S','
S'O'
tp123
a(S'so'
g52
S'O'
tp124
a(S'eating'
g11
S'O'
tp125
a(S'here'
g27
S'O'
tp126
a(S'or'
S'CC'
p127
S'O'
tp128
a(S'getting'
S'VBG'
p129
S'O'
tp130
a(S'takeout'
g34
S'O'
tp131
a(S'is'
g111
S'O'
tp132
a(S'a'
g32
S'O'
tp133
a(S'regular'
g44
S'O'
tp134
a(S'occurrence'
g34
S'O'
tp135
a(S'.'
S'.'
S'O'
tp136
aa(lp137
(S'Seriously'
g3
S'O'
tp138
a(S'in'
g47
S'O'
tp139
a(S'terms'
S'NNS'
S'O'
tp140
a(S'of'
g90
S'O'
tp141
a(S'drunk'
g34
S'O'
tp142
a(S'pizza'
g34
g35
tp143
a(S'this'
S'DT'
p144
S'O'
tp145
a(S'is'
g111
S'O'
tp146
a(S'close'
g44
S'O'
tp147
a(S'to'
g21
S'O'
tp148
a(S'5'
S'CD'
p149
S'O'
tp150
a(S'stars'
S'NNS'
p151
S'O'
tp152
a(S'.'
S'.'
S'O'
tp153
aa(lp154
(S'A'
S'DT'
p155
S'O'
tp156
a(S'local'
S'JJ'
S'O'
tp157
a(S'favorite'
g34
S'O'
tp158
a(S'serving'
g11
S'O'
tp159
a(S'up'
g105
S'O'
tp160
a(S'four'
S'CD'
S'O'
tp161
a(S'different'
S'JJ'
p162
S'O'
tp163
a(S'kinds'
g151
S'O'
tp164
a(S'of'
g90
S'O'
tp165
a(S'pizza'
g34
g35
tp166
a(S'slices'
g151
g35
tp167
a(S'with'
g40
S'O'
tp168
a(S'a'
g32
S'O'
tp169
a(S'variety'
g34
S'O'
tp170
a(S'of'
g90
S'O'
tp171
a(S'toppings'
g151
S'O'
tp172
a(S','
S','
S'O'
tp173
a(S'see'
g103
S'O'
tp174
a(S'the'
g49
S'O'
tp175
a(S'photo'
g34
S'O'
tp176
a(S'gallery'
g34
S'O'
tp177
a(S'!'
S'.'
S'O'
tp178
aa(lp179
(S'I'
g7
S'O'
tp180
a(S"haven't"
g103
S'O'
tp181
a(S'been'
S'VBN'
p182
S'O'
tp183
a(S'here'
g27
S'O'
tp184
a(S'in'
g47
S'O'
tp185
a(S'a'
g32
S'O'
tp186
a(S'while'
g34
S'O'
tp187
a(S','
S','
S'O'
tp188
a(S'even'
g3
S'O'
tp189
a(S'though'
g52
S'O'
tp190
a(S"it's"
g44
S'O'
tp191
a(S'only'
g3
S'O'
tp192
a(S'like'
g52
S'O'
tp193
a(S'a'
g32
S'O'
tp194
a(S'block'
g34
S'O'
tp195
a(S'from'
S'IN'
p196
S'O'
tp197
a(S'my'
g119
S'O'
tp198
a(S'house'
S'NN'
p199
S'O'
tp200
a(S','
S','
S'O'
tp201
a(S'but'
S'CC'
p202
S'O'
tp203
a(S'I'
g7
S'O'
tp204
a(S'know'
g103
S'O'
tp205
a(S"it's"
g3
S'O'
tp206
a(S'good'
g44
S'O'
tp207
a(S'.'
S'.'
S'O'
tp208
aa(lp209
(S'I'
g7
S'O'
tp210
a(S'was'
g9
S'O'
tp211
a(S'pleasantly'
g3
S'O'
tp212
a(S'surprised'
g38
S'O'
tp213
a(S'that'
g52
S'O'
tp214
a(S'rather'
S'RB'
S'O'
tp215
a(S'than'
g15
S'O'
tp216
a(S'calling'
S'VBG'
S'O'
tp217
a(S'me'
g97
S'O'
tp218
a(S'on'
g117
S'O'
tp219
a(S'my'
g119
S'O'
tp220
a(S'cell'
g34
S'O'
tp221
a(S'phone'
S'NN'
S'O'
tp222
a(S','
S','
S'O'
tp223
a(S'she'
S'PRP'
p224
S'O'
tp225
a(S'walked'
g9
S'O'
tp226
a(S'over'
g3
S'O'
tp227
a(S'and'
g29
S'O'
tp228
a(S'found'
g9
S'O'
tp229
a(S'us'
S'PRP'
p230
S'O'
tp231
a(S'in'
g47
S'O'
tp232
a(S'the'
g49
S'O'
tp233
a(S'crowded'
g44
S'O'
tp234
a(S'bar'
g34
S'O'
tp235
a(S'.'
S'.'
S'O'
tp236
aa(lp237
(S'I'
g7
S'O'
tp238
a(S'finally'
S'RB'
S'O'
tp239
a(S'make'
g23
S'O'
tp240
a(S'it'
g109
S'O'
tp241
a(S'down'
g105
S'O'
tp242
a(S','
S','
S'O'
tp243
a(S'nearing'
g11
S'O'
tp244
a(S'the'
g49
S'O'
tp245
a(S'completion'
g34
S'O'
tp246
a(S'of'
g90
S'O'
tp247
a(S'my'
g119
S'O'
tp248
a(S'lunch'
g34
S'O'
tp249
a(S'break'
g34
S'O'
tp250
a(S','
S','
S'O'
tp251
a(S'to'
g21
S'O'
tp252
a(S'unmask'
g23
S'O'
tp253
a(S'the'
g49
S'O'
tp254
a(S'coveted'
g44
S'O'
tp255
a(S'thai'
g34
g35
tp256
a(S'buy'
g34
g35
tp257
a(S'panang'
g34
g35
tp258
a(S'curry'
g34
g35
tp259
a(S'with'
g40
g35
tp260
a(S'tofu'
g34
g35
tp261
a(S'and'
g29
g35
tp262
a(S'pumpkin'
g44
g35
tp263
a(S'w'
g34
g35
tp264
a(S'o'
g52
g35
tp265
a(S'fish'
g44
g35
tp266
a(S'sauce'
g34
g35
tp267
a(S'.'
S'.'
S'O'
tp268
aa(lp269
(S'Then'
S'RB'
S'O'
tp270
a(S"it's"
g34
S'O'
tp271
a(S'piled'
g38
S'O'
tp272
a(S'on'
g117
S'O'
tp273
a(S'a'
g32
S'O'
tp274
a(S'roll'
g34
g35
tp275
a(S','
S','
S'O'
tp276
a(S'and'
g29
S'O'
tp277
a(S'slathered'
g9
S'O'
tp278
a(S'with'
g40
S'O'
tp279
a(S'mayo'
g34
g35
tp280
a(S'and'
g29
S'O'
tp281
a(S'mustard'
g34
g35
tp282
a(S'to'
g21
S'O'
tp283
a(S'seal'
g23
S'O'
tp284
a(S'the'
g49
S'O'
tp285
a(S'deal'
g34
S'O'
tp286
a(S'.'
S'.'
S'O'
tp287
aa(lp288
(S'All'
g155
S'O'
tp289
a(S'of'
g90
S'O'
tp290
a(S'a'
g32
S'O'
tp291
a(S'sudden'
g44
S'O'
tp292
a(S'a'
g32
S'O'
tp293
a(S'bunch'
g34
S'O'
tp294
a(S'of'
g90
S'O'
tp295
a(S'appetizers'
g151
S'O'
tp296
a(S'come'
g103
S'O'
tp297
a(S'flying'
g11
S'O'
tp298
a(S'over'
g52
S'O'
tp299
a(S'and'
g29
S'O'
tp300
a(S'I'
g7
S'O'
tp301
a(S'was'
g9
S'O'
tp302
a(S'like'
g52
S'O'
tp303
a(S'whaaat'
g34
S'O'
tp304
a(S'?'
S'.'
S'O'
tp305
aa(lp306
(S'The'
S'DT'
p307
S'O'
tp308
a(S'chips'
S'NNS'
g35
tp309
a(S'rice'
g34
g35
tp310
a(S'beans'
g151
g35
tp311
a(S'left'
g9
S'O'
tp312
a(S'something'
S'NN'
p313
S'O'
tp314
a(S'to'
g21
S'O'
tp315
a(S'be'
g65
S'O'
tp316
a(S'desired'
g38
S'O'
tp317
a(S','
S','
S'O'
tp318
a(S'but'
g202
S'O'
tp319
a(S'I'
g7
S'O'
tp320
a(S"won't"
g103
S'O'
tp321
a(S'be'
g65
S'O'
tp322
a(S'unhappy'
g44
S'O'
tp323
a(S'when'
g5
S'O'
tp324
a(S'I'
g7
S'O'
tp325
a(S'eat'
g103
S'O'
tp326
a(S'my'
g119
S'O'
tp327
a(S'leftovers'
g151
S'O'
tp328
a(S'in'
g47
S'O'
tp329
a(S'a'
g32
S'O'
tp330
a(S'delicious'
g44
S'O'
tp331
a(S'breakfast'
g34
g35
tp332
a(S'burrito'
g34
g35
tp333
a(S'!'
S'.'
S'O'
tp334
a(S'!'
S'.'
S'O'
tp335
aa(lp336
(S'I'
g7
S'O'
tp337
a(S'wanted'
g9
S'O'
tp338
a(S'to'
g21
S'O'
tp339
a(S'be'
g65
S'O'
tp340
a(S'a'
g32
S'O'
tp341
a(S'little'
g44
S'O'
tp342
a(S'healthier'
g34
S'O'
tp343
a(S'and'
g29
S'O'
tp344
a(S'got'
g9
S'O'
tp345
a(S'the'
g49
S'O'
tp346
a(S'Chicken'
S'NNP'
p347
g35
tp348
a(S'Karaage'
g347
g35
tp349
a(S'Salad'
g347
g35
tp350
a(S'('
S'('
S'O'
tp351
a(S'around'
g52
S'O'
tp352
a(S'10'
S'CD'
p353
S'O'
tp354
a(S')'
S')'
S'O'
tp355
a(S'.'
S'.'
S'O'
tp356
aa(lp357
(S'I'
g7
S'O'
tp358
a(S'also'
S'RB'
p359
S'O'
tp360
a(S'had'
g9
S'O'
tp361
a(S'a'
g32
S'O'
tp362
a(S'few'
S'JJ'
S'O'
tp363
a(S'bites'
g151
S'O'
tp364
a(S'of'
g90
S'O'
tp365
a(S'the'
g49
S'O'
tp366
a(S'flourless'
g34
g35
tp367
a(S'chocolate'
g34
g35
tp368
a(S'cake'
g34
g35
tp369
a(S'.'
S'.'
S'O'
tp370
a(S'.'
S'.'
S'O'
tp371
a(S'.'
S'.'
S'O'
tp372
a(S'.'
S'.'
S'O'
tp373
a(S'heavenly'
g3
S'O'
tp374
a(S'!'
S'.'
S'O'
tp375
a(S'!'
S'.'
S'O'
tp376
a(S'!'
S'.'
S'O'
tp377
a(S'!'
S'.'
S'O'
tp378
aa(lp379
(S'Everything'
g34
S'O'
tp380
a(S'is'
g111
S'O'
tp381
a(S'fresh'
g44
S'O'
tp382
a(S','
S','
S'O'
tp383
a(S'organic'
g44
g35
tp384
a(S'and'
g29
S'O'
tp385
a(S'surprisingly'
g3
S'O'
tp386
a(S'creative'
g44
S'O'
tp387
a(S'while'
g52
S'O'
tp388
a(S'maintaining'
g11
S'O'
tp389
a(S'the'
g49
S'O'
tp390
a(S'simplicity'
g34
S'O'
tp391
a(S'of'
g90
S'O'
tp392
a(S'tradition'
g34
S'O'
tp393
a(S'behind'
g52
S'O'
tp394
a(S'the'
g49
S'O'
tp395
a(S'original'
g44
S'O'
tp396
a(S'cuisines'
g151
S'O'
tp397
a(S'.'
S'.'
S'O'
tp398
aa(lp399
(S'Certainly'
g3
S'O'
tp400
a(S'for'
S'IN'
p401
S'O'
tp402
a(S'those'
S'DT'
S'O'
tp403
a(S'with'
g40
S'O'
tp404
a(S'a'
g32
S'O'
tp405
a(S'sweet'
g44
S'O'
tp406
a(S'tooth'
g34
S'O'
tp407
a(S'!'
S'.'
S'O'
tp408
aa(lp409
(S'They'
S'PRP'
p410
S'O'
tp411
a(S'also'
g359
S'O'
tp412
a(S'serve'
g103
S'O'
tp413
a(S'this'
g144
S'O'
tp414
a(S'awesome'
g44
S'O'
tp415
a(S'curry'
g34
g35
tp416
a(S'rice'
g34
g35
tp417
a(S'.'
S'.'
S'O'
tp418
aa(lp419
(S"Pro's"
g347
S'O'
tp420
a(S'Great'
g347
S'O'
tp421
a(S'food'
S'NN'
p422
S'O'
tp423
a(S'and'
g29
S'O'
tp424
a(S'drink'
g23
S'O'
tp425
a(S'Clean'
g347
S'O'
tp426
a(S'and'
g29
S'O'
tp427
a(S'simple'
g44
S'O'
tp428
a(S'wooden'
g44
S'O'
tp429
a(S'tables'
g151
S'O'
tp430
a(S'and'
g29
S'O'
tp431
a(S'Friendly'
g44
S'O'
tp432
a(S'staff'
g61
S'O'
tp433
a(S'('
S'('
S'O'
tp434
a(S'but'
g202
S'O'
tp435
a(S'no'
g155
S'O'
tp436
a(S'waiter'
g34
S'O'
tp437
a(S'sevice'
g3
S'O'
tp438
a(S'FYI'
g347
S'O'
tp439
a(S')'
S')'
S'O'
tp440
a(S'I'
g7
S'O'
tp441
a(S'got'
g9
S'O'
tp442
a(S'a'
g32
S'O'
tp443
a(S'great'
S'JJ'
p444
S'O'
tp445
a(S'Google'
g347
S'O'
tp446
a(S'offer'
g34
S'O'
tp447
a(S'('
S'('
S'O'
tp448
a(S'10'
g353
S'O'
tp449
a(S'for'
g401
S'O'
tp450
a(S'25'
S'CD'
S'O'
tp451
a(S')'
S')'
S'O'
tp452
a(S'to'
g21
S'O'
tp453
a(S'try'
g23
S'O'
tp454
a(S'this'
g144
S'O'
tp455
a(S'place'
g34
S'O'
tp456
a(S'and'
g29
S'O'
tp457
a(S'it'
g109
S'O'
tp458
a(S'was'
g9
S'O'
tp459
a(S'great'
g444
S'O'
tp460
a(S'food'
g422
g35
tp461
a(S'and'
g29
S'O'
tp462
a(S'drink'
g34
S'O'
tp463
a(S','
S','
S'O'
tp464
a(S'it'
g109
S'O'
tp465
a(S'can'
S'MD'
p466
S'O'
tp467
a(S'get'
g23
S'O'
tp468
a(S'really'
S'RB'
p469
S'O'
tp470
a(S'busy'
g44
S'O'
tp471
a(S'and'
g29
S'O'
tp472
a(S'I'
g7
S'O'
tp473
a(S'noticed'
g9
S'O'
tp474
a(S'the'
g49
S'O'
tp475
a(S'regular'
g44
S'O'
tp476
a(S'patrons'
g151
S'O'
tp477
a(S'consisted'
g9
S'O'
tp478
a(S'mainly'
g3
S'O'
tp479
a(S'of'
g90
S'O'
tp480
a(S'the'
g49
S'O'
tp481
a(S'nearby'
g44
S'O'
tp482
a(S'culinary'
g44
S'O'
tp483
a(S'school'
S'NN'
S'O'
tp484
a(S'which'
g86
S'O'
tp485
a(S'was'
g9
S'O'
tp486
a(S'a'
g32
S'O'
tp487
a(S'good'
g44
S'O'
tp488
a(S'sign'
g34
S'O'
tp489
a(S'for'
g401
S'O'
tp490
a(S'me'
g97
S'O'
tp491
a(S'.'
S'.'
S'O'
tp492
aa(lp493
(S'Also'
S'RB'
S'O'
tp494
a(S','
S','
S'O'
tp495
a(S'that'
g52
S'O'
tp496
a(S'flavor'
g34
S'O'
tp497
a(S'to'
g21
S'O'
tp498
a(S'the'
g49
S'O'
tp499
a(S'ice'
g34
S'O'
tp500
a(S'tea'
g34
S'O'
tp501
a(S"that's"
g34
S'O'
tp502
a(S'terribly'
g3
S'O'
tp503
a(S'familiar'
S'JJ'
S'O'
tp504
a(S'but'
g202
S'O'
tp505
a(S'you'
S'PRP'
p506
S'O'
tp507
a(S"can't"
g103
S'O'
tp508
a(S'quite'
g3
S'O'
tp509
a(S'place'
g34
S'O'
tp510
a(S'because'
g52
S'O'
tp511
a(S'it'
g109
S'O'
tp512
a(S'seems'
S'VBZ'
S'O'
tp513
a(S'like'
g52
S'O'
tp514
a(S'it'
g109
S'O'
tp515
a(S'should'
S'MD'
p516
S'O'
tp517
a(S'be'
g65
S'O'
tp518
a(S'something'
g313
S'O'
tp519
a(S'tropical'
g44
S'O'
tp520
a(S'but'
g202
S'O'
tp521
a(S'damn'
S'VBZ'
p522
S'O'
tp523
a(S'it'
g109
S'O'
tp524
a(S','
S','
S'O'
tp525
a(S'what'
S'WP'
p526
S'O'
tp527
a(S'the'
g49
S'O'
tp528
a(S'hell'
g34
S'O'
tp529
a(S'is'
g111
S'O'
tp530
a(S'it'
g109
S'O'
tp531
a(S'?'
S'.'
S'O'
tp532
aa(lp533
(S'Ok'
g347
S'O'
tp534
a(S'.'
S'.'
S'O'
tp535
a(S'For'
S'IN'
S'O'
tp536
a(S'the'
g49
S'O'
tp537
a(S'record'
g34
S'O'
tp538
a(S','
S','
S'O'
tp539
a(S'just'
S'RB'
p540
S'O'
tp541
a(S'because'
g52
S'O'
tp542
a(S'you'
g506
S'O'
tp543
a(S'are'
S'VBP'
p544
S'O'
tp545
a(S'240'
S'CD'
p546
S'O'
tp547
a(S'lbs'
g151
S'O'
tp548
a(S'of'
g90
S'O'
tp549
a(S'snarky'
g44
S'O'
tp550
a(S'white'
S'JJ'
p551
S'O'
tp552
a(S'guy'
g34
S'O'
tp553
a(S','
S','
S'O'
tp554
a(S'have'
g103
S'O'
tp555
a(S'eaten'
g38
S'O'
tp556
a(S'the'
g49
S'O'
tp557
a(S'72'
g546
S'O'
tp558
a(S'oz'
g44
S'O'
tp559
a(S'steak'
g34
g35
tp560
a(S'at'
S'IN'
p561
S'O'
tp562
a(S'the'
g49
S'O'
tp563
a(S'Big'
g347
S'O'
tp564
a(S'Texan'
g347
S'O'
tp565
a(S'in'
g47
S'O'
tp566
a(S'Amarillo'
g347
S'O'
tp567
a(S','
S','
S'O'
tp568
a(S'and'
g29
S'O'
tp569
a(S'have'
g103
S'O'
tp570
a(S'a'
g32
S'O'
tp571
a(S'Korean'
g44
S'O'
tp572
a(S'cousin'
g34
S'O'
tp573
a(S'as'
g3
S'O'
tp574
a(S'well'
g3
S'O'
tp575
a(S'as'
g52
S'O'
tp576
a(S'a'
g32
S'O'
tp577
a(S'half'
g44
S'O'
tp578
a(S'Korean'
g44
S'O'
tp579
a(S'god'
g34
S'O'
tp580
a(S'daughter'
g34
S'O'
tp581
a(S'is'
g111
S'O'
tp582
a(S'NO'
g347
S'O'
tp583
a(S'REASON'
g347
S'O'
tp584
a(S'to'
g21
S'O'
tp585
a(S'talk'
g23
S'O'
tp586
a(S'smack'
g34
S'O'
tp587
a(S'to'
g21
S'O'
tp588
a(S'the'
g49
S'O'
tp589
a(S'ridiculous'
g44
S'O'
tp590
a(S'amount'
g34
S'O'
tp591
a(S'of'
g90
S'O'
tp592
a(S'BBQ'
g347
g35
tp593
a(S'that'
g86
S'O'
tp594
a(S'Han'
g347
S'O'
tp595
a(S'II'
g347
S'O'
tp596
a(S'Kwan'
g347
S'O'
tp597
a(S'has'
S'VBZ'
p598
S'O'
tp599
a(S'waiting'
g11
S'O'
tp600
a(S'for'
g401
S'O'
tp601
a(S'you'
g506
S'O'
tp602
a(S'.'
S'.'
S'O'
tp603
aa(lp604
(S'There'
S'EX'
S'O'
tp605
a(S'were'
S'VBD'
p606
S'O'
tp607
a(S'more'
g13
S'O'
tp608
a(S'than'
g15
S'O'
tp609
a(S'enough'
g44
S'O'
tp610
a(S'veggies'
g151
g35
tp611
a(S'like'
g52
S'O'
tp612
a(S'tomato'
g34
g35
tp613
a(S','
S','
S'O'
tp614
a(S'olive'
g44
g35
tp615
a(S'and'
g29
S'O'
tp616
a(S'green'
g44
g35
tp617
a(S'pepper'
g34
g35
tp618
a(S'.'
S'.'
S'O'
tp619
aa(lp620
(S'The'
g307
S'O'
tp621
a(S'pork'
g34
g35
tp622
a(S'and'
g29
g35
tp623
a(S'cheese'
g44
g35
tp624
a(S'sandwhiches'
g151
g35
tp625
a(S'are'
g544
S'O'
tp626
a(S'yummy'
g44
S'O'
tp627
a(S'!'
S'.'
S'O'
tp628
aa(lp629
(S'They'
g410
S'O'
tp630
a(S'have'
g103
S'O'
tp631
a(S'large'
S'JJ'
p632
S'O'
tp633
a(S'aray'
g34
S'O'
tp634
a(S'of'
g90
S'O'
tp635
a(S'magazines'
S'NNS'
S'O'
tp636
a(S'and'
g29
S'O'
tp637
a(S'newpapers'
g151
S'O'
tp638
a(S'to'
g21
S'O'
tp639
a(S'read'
g23
S'O'
tp640
a(S'while'
g52
S'O'
tp641
a(S'waiting'
g11
S'O'
tp642
a(S'.'
S'.'
S'O'
tp643
aa(lp644
(S'We'
S'PRP'
p645
S'O'
tp646
a(S'had'
g9
S'O'
tp647
a(S'the'
g49
S'O'
tp648
a(S'six'
S'CD'
S'O'
tp649
a(S'course'
S'NN'
p650
S'O'
tp651
a(S'.'
S'.'
S'O'
tp652
a(S'.'
S'.'
S'O'
tp653
a(S'.'
S'.'
S'O'
tp654
a(S'.'
S'.'
S'O'
tp655
a(S'.'
S'.'
S'O'
tp656
a(S'Dungeness'
g347
g35
tp657
a(S'Crab'
g347
g35
tp658
a(S'Cakes'
g347
g35
tp659
a(S'Sauteed'
g347
g35
tp660
a(S'Filet'
g347
g35
tp661
a(S'of'
g90
g35
tp662
a(S'Alaskan'
g347
g35
tp663
a(S'True'
g347
g35
tp664
a(S'Cod'
g347
g35
tp665
a(S'Pan'
g347
g35
tp666
a(S'Sauteed'
g347
g35
tp667
a(S'Breast'
g347
g35
tp668
a(S'of'
g90
g35
tp669
a(S'Central'
g347
g35
tp670
a(S'Valley'
g347
g35
tp671
a(S'Squab'
g347
g35
tp672
a(S'Roasted'
g347
g35
tp673
a(S'Medallion'
g347
g35
tp674
a(S'of'
g90
g35
tp675
a(S'Marin'
g347
g35
tp676
a(S'Sun'
S'NNP'
g35
tp677
a(S'Farms'
g347
g35
tp678
a(S'Dry'
g347
g35
tp679
a(S'Aged'
g347
g35
tp680
a(S'New'
S'NNP'
g35
tp681
a(S'York'
S'NNP'
g35
tp682
a(S'Petit'
g347
g35
tp683
a(S'Sorbet'
g347
g35
tp684
a(S'Chocolate'
g347
g35
tp685
a(S'Blackberry'
g347
g35
tp686
a(S'Glace'
g347
g35
tp687
a(S'the'
g49
g35
tp688
a(S'candy'
g34
g35
tp689
a(S'cart'
g34
g35
tp690
a(S'was'
g9
S'O'
tp691
a(S'very'
g3
S'O'
tp692
a(S'cool'
g44
S'O'
tp693
a(S'.'
S'.'
S'O'
tp694
aa(lp695
(S'By'
S'IN'
S'O'
tp696
a(S'the'
g49
S'O'
tp697
a(S'way'
g76
S'O'
tp698
a(S','
S','
S'O'
tp699
a(S'the'
g49
S'O'
tp700
a(S'deserts'
g151
S'O'
tp701
a(S'we'
S'PRP'
p702
S'O'
tp703
a(S'ordered'
g9
S'O'
tp704
a(S'were'
g606
S'O'
tp705
a(S'the'
g49
S'O'
tp706
a(S'floating'
S'VBG'
S'FOOD'
tp707
a(S'island'
S'NN'
S'FOOD'
tp708
a(S','
S','
S'O'
tp709
a(S'caramelized'
S'VBN'
S'FOOD'
tp710
a(S'french'
S'JJ'
S'FOOD'
tp711
a(S'toast'
S'NN'
S'FOOD'
tp712
a(S','
S','
S'O'
tp713
a(S'and'
g29
S'O'
tp714
a(S'warm'
S'JJ'
S'FOOD'
tp715
a(S'chocolate'
S'NN'
S'FOOD'
tp716
a(S'cake'
S'NN'
S'FOOD'
tp717
a(S'.'
S'.'
S'O'
tp718
aa(lp719
(S'My'
S'PRP$'
p720
S'O'
tp721
a(S'favorite'
g34
S'O'
tp722
a(S'would'
S'MD'
p723
S'O'
tp724
a(S'have'
g23
S'O'
tp725
a(S'to'
g21
S'O'
tp726
a(S'be'
g65
S'O'
tp727
a(S'their'
S'PRP$'
p728
S'O'
tp729
a(S'Chicken'
S'NNP'
S'FOOD'
tp730
a(S'Karaage'
S'NNP'
S'FOOD'
tp731
a(S'because'
g52
S'O'
tp732
a(S"it's"
g34
S'O'
tp733
a(S'not'
S'RB'
p734
S'O'
tp735
a(S'too'
S'RB'
p736
S'O'
tp737
a(S'oily'
g3
S'O'
tp738
a(S','
S','
S'O'
tp739
a(S'not'
g734
S'O'
tp740
a(S'too'
g736
S'O'
tp741
a(S'hard'
g44
S'O'
tp742
a(S','
S','
S'O'
tp743
a(S'just'
g540
S'O'
tp744
a(S'the'
g49
S'O'
tp745
a(S'right'
g44
S'O'
tp746
a(S'crispiness'
g34
S'O'
tp747
a(S','
S','
S'O'
tp748
a(S'juicy'
g34
S'O'
tp749
a(S'ness'
g34
S'O'
tp750
a(S','
S','
S'O'
tp751
a(S'and'
g29
S'O'
tp752
a(S'flavoring'
g34
S'O'
tp753
a(S'.'
S'.'
S'O'
tp754
aa(lp755
(S'Prime'
S'NNP'
S'FOOD'
tp756
a(S'('
S'('
S'O'
tp757
a(S'or'
g127
S'O'
tp758
a(S'bone'
S'NN'
S'FOOD'
tp759
a(S'in'
S'IN'
S'FOOD'
tp760
a(S')'
S')'
S'O'
tp761
a(S'Rib'
S'NNP'
S'FOOD'
tp762
a(S'Eye'
S'NNP'
S'FOOD'
tp763
a(S'Very'
g3
S'O'
tp764
a(S'good'
g44
S'O'
tp765
a(S'Rack'
S'NN'
S'FOOD'
tp766
a(S'of'
S'IN'
S'FOOD'
tp767
a(S'Lamb'
S'NNP'
S'FOOD'
tp768
a(S'Very'
g347
S'O'
tp769
a(S'good'
g44
S'O'
tp770
a(S'Veal'
S'NNP'
S'FOOD'
tp771
a(S'Chop'
S'NNP'
S'FOOD'
tp772
a(S'Very'
g3
S'O'
tp773
a(S'good'
g44
S'O'
tp774
a(S'Appetizers'
g151
S'O'
tp775
a(S'Average'
S'VBP'
S'FOOD'
tp776
a(S'Glazed'
g38
g35
tp777
a(S'Carrot'
g347
g35
tp778
a(S'('
S'('
S'O'
tp779
a(S'somewhat'
g3
S'O'
tp780
a(S'different'
g162
S'O'
tp781
a(S')'
S')'
S'O'
tp782
a(S'but'
g202
S'O'
tp783
a(S'good'
g44
S'O'
tp784
a(S'Scallop'
g347
g35
tp785
a(S'Potato'
g347
g35
tp786
a(S'Not'
S'RB'
S'O'
tp787
a(S'all'
S'PDT'
p788
S'O'
tp789
a(S'that'
g52
S'O'
tp790
a(S','
S','
S'O'
tp791
a(S'I'
g7
S'O'
tp792
a(S'would'
g723
S'O'
tp793
a(S'have'
g23
S'O'
tp794
a(S'the'
g49
S'O'
tp795
a(S'bake'
g34
g35
tp796
a(S'potato'
g34
g35
tp797
a(S'instead'
S'RB'
p798
S'O'
tp799
a(S'Bottom'
g347
S'O'
tp800
a(S'line'
S'NN'
S'O'
tp801
a(S','
S','
S'O'
tp802
a(S'if'
S'IN'
p803
S'O'
tp804
a(S'you'
g506
S'O'
tp805
a(S'want'
g103
S'O'
tp806
a(S'a'
g32
S'O'
tp807
a(S'good'
g44
S'O'
tp808
a(S'piece'
g34
S'O'
tp809
a(S'of'
g90
S'O'
tp810
a(S'steak'
g34
g35
tp811
a(S','
S','
S'O'
tp812
a(S'you'
g506
S'O'
tp813
a(S'can'
g466
S'O'
tp814
a(S'find'
g23
S'O'
tp815
a(S'it'
g109
S'O'
tp816
a(S'here'
g27
S'O'
tp817
a(S','
S','
S'O'
tp818
a(S'if'
g803
S'O'
tp819
a(S'your'
S'PRP$'
p820
S'O'
tp821
a(S'looking'
S'VBG'
S'O'
tp822
a(S'for'
g401
S'O'
tp823
a(S'superior'
g44
S'O'
tp824
a(S'service'
g34
S'O'
tp825
a(S','
S','
S'O'
tp826
a(S'maybe'
g3
S'O'
tp827
a(S'you'
g506
S'O'
tp828
a(S'should'
g516
S'O'
tp829
a(S'try'
g23
S'O'
tp830
a(S'an'
g155
S'O'
tp831
a(S'expensive'
g44
S'O'
tp832
a(S'French'
g44
S'O'
tp833
a(S'restaurant'
g34
S'O'
tp834
a(S'.'
S'.'
S'O'
tp835
aa(lp836
(S'Huge'
g44
S'O'
tp837
a(S'slices'
g151
g35
tp838
a(S'!'
S'.'
S'O'
tp839
aa(lp840
(S'The'
g307
S'O'
tp841
a(S'meat'
g34
g35
tp842
a(S'was'
g9
S'O'
tp843
a(S'pretty'
g3
S'O'
tp844
a(S'well'
g3
S'O'
tp845
a(S'marinated'
g38
S'O'
tp846
a(S','
S','
S'O'
tp847
a(S'just'
g540
S'O'
tp848
a(S'about'
g3
S'O'
tp849
a(S'right'
g44
S'O'
tp850
a(S'.'
S'.'
S'O'
tp851
aa(lp852
(S'My'
g720
S'O'
tp853
a(S'kids'
g151
S'O'
tp854
a(S'ordered'
g9
S'O'
tp855
a(S'the'
g49
S'O'
tp856
a(S'waffles'
g151
g35
tp857
a(S'with'
g40
g35
tp858
a(S'fresh'
g44
g35
tp859
a(S'cream'
g34
g35
tp860
a(S'and'
g29
g35
tp861
a(S'strawberries'
g151
g35
tp862
a(S'.'
S'.'
S'O'
tp863
aa(lp864
(S'We'
g645
S'O'
tp865
a(S'started'
g9
S'O'
tp866
a(S'off'
g105
S'O'
tp867
a(S'with'
g40
S'O'
tp868
a(S'the'
g49
S'O'
tp869
a(S'egg'
g34
g35
tp870
a(S'roll'
g34
g35
tp871
a(S'appetizer'
g34
S'O'
tp872
a(S'freshly'
g3
S'O'
tp873
a(S'fried'
g38
S'O'
tp874
a(S'and'
g29
S'O'
tp875
a(S'very'
g3
S'O'
tp876
a(S'hot'
g44
S'O'
tp877
a(S';'
S':'
S'O'
tp878
a(S'the'
g49
S'O'
tp879
a(S'Gaeng'
g347
g35
tp880
a(S'Khiaw'
g347
g35
tp881
a(S'warn'
g103
g35
tp882
a(S'chicken'
g38
g35
tp883
a(S'in'
g47
g35
tp884
a(S'green'
g44
g35
tp885
a(S'curry'
g34
g35
tp886
a(S'and'
g29
g35
tp887
a(S'coconut'
g34
g35
tp888
a(S'milk'
g34
g35
tp889
a(S'with'
g40
g35
tp890
a(S'bamboo'
g44
g35
tp891
a(S'shoot'
g34
g35
tp892
a(S','
S','
S'O'
tp893
a(S'bell'
g103
g35
tp894
a(S'pepper'
g13
g35
tp895
a(S'and'
g29
g35
tp896
a(S'fresh'
g44
g35
tp897
a(S'basil'
g34
g35
tp898
a(S'which'
g86
S'O'
tp899
a(S"wasn't"
g103
S'O'
tp900
a(S'too'
g736
S'O'
tp901
a(S'soupy'
g44
S'O'
tp902
a(S'because'
g52
S'O'
tp903
a(S'there'
S'EX'
p904
S'O'
tp905
a(S'was'
g9
S'O'
tp906
a(S'so'
g3
S'O'
tp907
a(S'much'
g44
S'O'
tp908
a(S'substance'
g34
S'O'
tp909
a(S'to'
g21
S'O'
tp910
a(S'it'
g109
S'O'
tp911
a(S';'
S':'
S'O'
tp912
a(S'the'
g49
S'O'
tp913
a(S'Pad'
g347
g35
tp914
a(S'Makheur'
g347
g35
tp915
a(S'Yao'
g347
g35
tp916
a(S'sauteed'
g9
g35
tp917
a(S'calamari'
g151
g35
tp918
a(S'with'
g40
g35
tp919
a(S'eggplant'
g44
g35
tp920
a(S','
S','
S'O'
tp921
a(S'chili'
g34
S'O'
tp922
a(S','
S','
S'O'
tp923
a(S'onion'
g34
g35
tp924
a(S','
S','
S'O'
tp925
a(S'bell'
g103
g35
tp926
a(S'pepper'
g13
g35
tp927
a(S'and'
g29
S'O'
tp928
a(S'basil'
g23
g35
tp929
a(S'I'
g7
S'O'
tp930
a(S'loved'
g9
S'O'
tp931
a(S'the'
g49
S'O'
tp932
a(S'eggplant'
g34
g35
tp933
a(S'and'
g29
S'O'
tp934
a(S'the'
g49
S'O'
tp935
a(S'calamari'
g34
g35
tp936
a(S'pieces'
g151
S'O'
tp937
a(S'were'
g606
S'O'
tp938
a(S'huge'
S'JJ'
p939
S'O'
tp940
a(S';'
S':'
S'O'
tp941
a(S'and'
g29
S'O'
tp942
a(S'the'
g49
S'O'
tp943
a(S'Lard'
g347
g35
tp944
a(S'nar'
g34
g35
tp945
a(S'pan'
g34
g35
tp946
a(S'fried'
g9
g35
tp947
a(S'noodle'
g44
g35
tp948
a(S'with'
g40
g35
tp949
a(S'gravy'
g44
g35
tp950
a(S'sauce'
g34
g35
tp951
a(S','
S','
S'O'
tp952
a(S'broccoli'
g34
g35
tp953
a(S'and'
g29
S'O'
tp954
a(S'sliced'
g9
g35
tp955
a(S'chicken'
g34
g35
tp956
a(S'.'
S'.'
S'O'
tp957
aa(lp958
(S'I'
g7
S'O'
tp959
a(S'like'
g103
S'O'
tp960
a(S'some'
g42
S'O'
tp961
a(S'vegetables'
g151
g35
tp962
a(S'on'
g117
S'O'
tp963
a(S'my'
g119
S'O'
tp964
a(S'sandwiches'
g151
g35
tp965
a(S','
S','
S'O'
tp966
a(S'not'
g734
S'O'
tp967
a(S'just'
g540
S'O'
tp968
a(S'slices'
g151
S'O'
tp969
a(S'of'
g90
S'O'
tp970
a(S'meat'
g34
g35
tp971
a(S'and'
g29
S'O'
tp972
a(S'bread'
g34
g35
tp973
a(S'.'
S'.'
S'O'
tp974
aa(lp975
(S'My'
g720
S'O'
tp976
a(S'comments'
S'NNS'
S'O'
tp977
a(S'on'
g117
S'O'
tp978
a(S"Harris'"
g347
S'O'
tp979
a(S'Come'
g347
S'O'
tp980
a(S'for'
g401
S'O'
tp981
a(S'the'
g49
S'O'
tp982
a(S'steak'
g34
g35
tp983
a(S'.'
S'.'
S'O'
tp984
aa(lp985
(S'I'
g7
S'O'
tp986
a(S'hate'
g103
S'O'
tp987
a(S'peeling'
g11
S'O'
tp988
a(S'open'
g44
S'O'
tp989
a(S'shrimp'
g34
g35
tp990
a(S','
S','
S'O'
tp991
a(S'crab'
g34
g35
tp992
a(S','
S','
S'O'
tp993
a(S'etc'
S'FW'
S'O'
tp994
a(S'!'
S'.'
S'O'
tp995
aa(lp996
(S'They'
g410
S'O'
tp997
a(S'also'
g359
S'O'
tp998
a(S'have'
g103
S'O'
tp999
a(S'great'
g444
S'O'
tp1000
a(S'iced'
g44
S'O'
tp1001
a(S'drinks'
g151
S'O'
tp1002
a(S'.'
S'.'
S'O'
tp1003
a(S'.'
S'.'
S'O'
tp1004
a(S'.'
S'.'
S'O'
tp1005
a(S'.'
S'.'
S'O'
tp1006
a(S'I'
g7
S'O'
tp1007
a(S'think'
g103
S'O'
tp1008
a(S'one'
g546
S'O'
tp1009
a(S'of'
g90
S'O'
tp1010
a(S'the'
g49
S'O'
tp1011
a(S'best'
S'JJS'
p1012
S'O'
tp1013
a(S'Iced'
g44
S'O'
tp1014
a(S'Americanos'
g347
S'O'
tp1015
a(S"I've"
g347
S'O'
tp1016
a(S'had'
g9
S'O'
tp1017
a(S'in'
g47
S'O'
tp1018
a(S'a'
g32
S'O'
tp1019
a(S'long'
g44
S'O'
tp1020
a(S'time'
S'NN'
p1021
S'O'
tp1022
a(S','
S','
S'O'
tp1023
a(S'and'
g29
S'O'
tp1024
a(S'they'
S'PRP'
p1025
S'O'
tp1026
a(S'just'
g540
S'O'
tp1027
a(S'started'
g9
S'O'
tp1028
a(S'serving'
g11
S'O'
tp1029
a(S'bagels'
g151
g35
tp1030
a(S'with'
g40
g35
tp1031
a(S'real'
S'JJ'
p1032
g35
tp1033
a(S'lox'
g34
g35
tp1034
a(S'and'
g29
g35
tp1035
a(S'cream'
g34
g35
tp1036
a(S'cheese'
g34
g35
tp1037
a(S'at'
g561
S'O'
tp1038
a(S'under'
S'IN'
S'O'
tp1039
a(S'4'
S'CD'
p1040
S'O'
tp1041
a(S'!'
S'.'
S'O'
tp1042
aa(lp1043
(S'The'
g307
S'O'
tp1044
a(S'regular'
g44
S'O'
tp1045
a(S'cheese'
g44
g35
tp1046
a(S'slice'
g34
g35
tp1047
a(S'was'
g9
S'O'
tp1048
a(S'okay'
g44
S'O'
tp1049
a(S','
S','
S'O'
tp1050
a(S'but'
g202
S'O'
tp1051
a(S'I'
g7
S'O'
tp1052
a(S'especially'
S'RB'
p1053
S'O'
tp1054
a(S'recommend'
g103
S'O'
tp1055
a(S'the'
g49
S'O'
tp1056
a(S'Italian'
g44
g35
tp1057
a(S'sausage'
g34
g35
tp1058
a(S'.'
S'.'
S'O'
tp1059
aa(lp1060
(S'The'
g307
S'O'
tp1061
a(S'fried'
g44
g35
tp1062
a(S'oysters'
g151
g35
tp1063
a(S'are'
g544
S'O'
tp1064
a(S'tender'
g34
S'O'
tp1065
a(S'and'
g29
S'O'
tp1066
a(S'buttery'
g34
S'O'
tp1067
a(S'and'
g29
S'O'
tp1068
a(S'the'
g49
S'O'
tp1069
a(S'Ahi'
g347
g35
tp1070
a(S'with'
g40
g35
tp1071
a(S'wasabi'
g44
g35
tp1072
a(S'butter'
g34
g35
tp1073
a(S'is'
g111
S'O'
tp1074
a(S'also'
g359
S'O'
tp1075
a(S'worth'
g44
S'O'
tp1076
a(S'checking'
g11
S'O'
tp1077
a(S'out'
g105
S'O'
tp1078
a(S','
S','
S'O'
tp1079
a(S'but'
g202
S'O'
tp1080
a(S'bear'
g103
S'O'
tp1081
a(S'in'
g47
S'O'
tp1082
a(S'mind'
g34
S'O'
tp1083
a(S'that'
g86
S'O'
tp1084
a(S"I've"
g347
S'O'
tp1085
a(S'been'
g182
S'O'
tp1086
a(S'buzzed'
g38
S'O'
tp1087
a(S'on'
g117
S'O'
tp1088
a(S'cheap'
g44
S'O'
tp1089
a(S'wine'
g34
S'O'
tp1090
a(S'every'
S'DT'
S'O'
tp1091
a(S'time'
g1021
S'O'
tp1092
a(S"I've"
g347
S'O'
tp1093
a(S'ordered'
g9
S'O'
tp1094
a(S'these'
S'DT'
p1095
S'O'
tp1096
a(S'.'
S'.'
S'O'
tp1097
aa(lp1098
(S'If'
S'IN'
p1099
S'O'
tp1100
a(S'anything'
S'NN'
p1101
S'O'
tp1102
a(S','
S','
S'O'
tp1103
a(S'you'
g506
S'O'
tp1104
a(S'should'
g516
S'O'
tp1105
a(S'come'
g23
S'O'
tp1106
a(S'and'
g29
S'O'
tp1107
a(S'try'
g23
S'O'
tp1108
a(S'their'
g728
S'O'
tp1109
a(S'house'
g199
S'O'
tp1110
a(S'noodles'
g151
g35
tp1111
a(S'.'
S'.'
S'O'
tp1112
aa(lp1113
(S'the'
g49
S'O'
tp1114
a(S'place'
g34
S'O'
tp1115
a(S'was'
g9
S'O'
tp1116
a(S'very'
g3
S'O'
tp1117
a(S'small'
S'JJ'
p1118
S'O'
tp1119
a(S'but'
g202
S'O'
tp1120
a(S'very'
g3
S'O'
tp1121
a(S'cozy'
g44
S'O'
tp1122
a(S'and'
g29
S'O'
tp1123
a(S'inviting'
g34
S'O'
tp1124
a(S'.'
S'.'
S'O'
tp1125
aa(lp1126
(S'I'
g7
S'O'
tp1127
a(S'had'
g9
S'O'
tp1128
a(S'the'
g49
S'O'
tp1129
a(S'thai'
g34
g35
tp1130
a(S'curry'
g34
g35
tp1131
a(S','
S','
S'O'
tp1132
a(S'which'
g86
S'O'
tp1133
a(S'was'
g9
S'O'
tp1134
a(S'a'
g32
S'O'
tp1135
a(S'little'
g44
S'O'
tp1136
a(S'heavy'
g44
S'O'
tp1137
a(S'on'
g117
S'O'
tp1138
a(S'the'
g49
S'O'
tp1139
a(S'spices'
g151
g35
tp1140
a(S','
S','
S'O'
tp1141
a(S'which'
g86
S'O'
tp1142
a(S','
S','
S'O'
tp1143
a(S'I'
g7
S'O'
tp1144
a(S'thought'
g9
S'O'
tp1145
a(S'was'
g9
S'O'
tp1146
a(S'a'
g32
S'O'
tp1147
a(S'negative'
g44
S'O'
tp1148
a(S'at'
g561
S'O'
tp1149
a(S'first'
g44
S'O'
tp1150
a(S','
S','
S'O'
tp1151
a(S'but'
g202
S'O'
tp1152
a(S'really'
g469
S'O'
tp1153
a(S'grew'
S'VBD'
S'O'
tp1154
a(S'on'
g117
S'O'
tp1155
a(S'me'
g97
S'O'
tp1156
a(S'by'
S'IN'
p1157
S'O'
tp1158
a(S'the'
g49
S'O'
tp1159
a(S'end'
g34
S'O'
tp1160
a(S'and'
g29
S'O'
tp1161
a(S'I'
g7
S'O'
tp1162
a(S'enjoyed'
g103
S'O'
tp1163
a(S'.'
S'.'
S'O'
tp1164
aa(lp1165
(S'The'
g307
S'O'
tp1166
a(S'har'
g34
g35
tp1167
a(S'gow'
g34
g35
tp1168
a(S'('
S'('
S'O'
tp1169
a(S'shrimp'
g44
g35
tp1170
a(S'dumplings'
g151
g35
tp1171
a(S')'
S')'
S'O'
tp1172
a(S'fragrant'
g34
S'O'
tp1173
a(S','
S','
S'O'
tp1174
a(S'plump'
g34
S'O'
tp1175
a(S'and'
g29
S'O'
tp1176
a(S'a'
g32
S'O'
tp1177
a(S'little'
g44
S'O'
tp1178
a(S'sweet'
g44
S'O'
tp1179
a(S'are'
g544
S'O'
tp1180
a(S'wrapped'
g38
S'O'
tp1181
a(S'in'
g47
S'O'
tp1182
a(S'a'
g32
S'O'
tp1183
a(S'chewy'
g34
S'O'
tp1184
a(S','
S','
S'O'
tp1185
a(S'translucent'
g44
S'O'
tp1186
a(S'skin'
g34
S'O'
tp1187
a(S'that'
g86
S'O'
tp1188
a(S'so'
g3
S'O'
tp1189
a(S'perfectly'
g3
S'O'
tp1190
a(S'pulls'
g522
S'O'
tp1191
a(S'together'
g3
S'O'
tp1192
a(S'the'
g49
S'O'
tp1193
a(S'flavor'
g34
S'O'
tp1194
a(S'of'
g90
S'O'
tp1195
a(S'your'
g820
S'O'
tp1196
a(S'surroundings'
g151
S'O'
tp1197
a(S'when'
g5
S'O'
tp1198
a(S'dipped'
g38
S'O'
tp1199
a(S'in'
g47
S'O'
tp1200
a(S'soy'
g34
g35
tp1201
a(S'sauce'
g34
g35
tp1202
a(S'and'
g29
S'O'
tp1203
a(S'vinegar'
g34
g35
tp1204
a(S'.'
S'.'
S'O'
tp1205
aa(lp1206
(S'I'
g7
S'O'
tp1207
a(S'buy'
g103
S'O'
tp1208
a(S'these'
g1095
S'O'
tp1209
a(S'white'
g551
g35
tp1210
a(S'buns'
g151
g35
tp1211
a(S'with'
g40
S'O'
tp1212
a(S'delicious'
g44
S'O'
tp1213
a(S'pork'
g34
g35
tp1214
a(S'inside'
g52
S'O'
tp1215
a(S'when'
g5
S'O'
tp1216
a(S'I'
g7
S'O'
tp1217
a(S'visit'
g103
S'O'
tp1218
a(S'SF'
g3
S'O'
tp1219
a(S'at'
g561
S'O'
tp1220
a(S'this'
g144
S'O'
tp1221
a(S'Chinatown'
g347
S'O'
tp1222
a(S'location'
g34
S'O'
tp1223
a(S'.'
S'.'
S'O'
tp1224
aa(lp1225
(S'The'
g307
S'O'
tp1226
a(S'texture'
g34
S'O'
tp1227
a(S'reminded'
g9
S'O'
tp1228
a(S'me'
g97
S'O'
tp1229
a(S'of'
g90
S'O'
tp1230
a(S'a'
g32
S'O'
tp1231
a(S'crab'
g34
g35
tp1232
a(S'cake'
g34
g35
tp1233
a(S','
S','
S'O'
tp1234
a(S'but'
g202
S'O'
tp1235
a(S'made'
g9
S'O'
tp1236
a(S'with'
g40
S'O'
tp1237
a(S'zucchini'
g34
g35
tp1238
a(S'.'
S'.'
S'O'
tp1239
aa(lp1240
(S'I'
g7
S'O'
tp1241
a(S'seriously'
g3
S'O'
tp1242
a(S'have'
g103
S'O'
tp1243
a(S'probably'
S'RB'
p1244
S'O'
tp1245
a(S'tried'
g38
S'O'
tp1246
a(S'the'
g49
S'O'
tp1247
a(S'majority'
S'NN'
S'O'
tp1248
a(S'of'
g90
S'O'
tp1249
a(S'the'
g49
S'O'
tp1250
a(S'menu'
g34
S'O'
tp1251
a(S'already'
S'RB'
S'O'
tp1252
a(S'and'
g29
S'O'
tp1253
a(S'some'
g42
S'O'
tp1254
a(S'of'
g90
S'O'
tp1255
a(S'my'
g119
S'O'
tp1256
a(S'favorites'
g151
S'O'
tp1257
a(S'are'
g544
S'O'
tp1258
a(S'the'
g49
S'O'
tp1259
a(S'tuna'
g34
g35
tp1260
a(S'and'
g29
g35
tp1261
a(S'salmon'
g34
g35
tp1262
a(S'tartar'
g34
g35
tp1263
a(S','
S','
S'O'
tp1264
a(S'the'
g49
S'O'
tp1265
a(S'tokyo'
g34
g35
tp1266
a(S'crunch'
g34
g35
tp1267
a(S'roll'
g34
g35
tp1268
a(S','
S','
S'O'
tp1269
a(S'hamachi'
g44
g35
tp1270
a(S'kama'
g34
g35
tp1271
a(S','
S','
S'O'
tp1272
a(S'and'
g29
S'O'
tp1273
a(S'of'
g90
S'O'
tp1274
a(S'course'
g650
S'O'
tp1275
a(S'their'
g728
S'O'
tp1276
a(S'famous'
g44
g35
tp1277
a(S'spoonfull'
g34
g35
tp1278
a(S'of'
g90
g35
tp1279
a(S'happiness'
g34
g35
tp1280
a(S"it's"
g34
S'O'
tp1281
a(S'a'
g32
S'O'
tp1282
a(S'MUST'
g347
S'O'
tp1283
a(S'.'
S'.'
S'O'
tp1284
aa(lp1285
(S'also'
g359
S'O'
tp1286
a(S','
S','
S'O'
tp1287
a(S'be'
g65
S'O'
tp1288
a(S'sure'
g44
S'O'
tp1289
a(S'to'
g21
S'O'
tp1290
a(S'order'
S'NN'
p1291
S'O'
tp1292
a(S'the'
g49
S'O'
tp1293
a(S'pancakes'
g151
g35
tp1294
a(S'topped'
g9
g35
tp1295
a(S'with'
g40
g35
tp1296
a(S'fresh'
g44
g35
tp1297
a(S'fruit'
g34
g35
tp1298
a(S'to'
g21
S'O'
tp1299
a(S'balance'
g23
S'O'
tp1300
a(S'your'
g820
S'O'
tp1301
a(S'sweet'
g34
S'O'
tp1302
a(S'and'
g29
S'O'
tp1303
a(S'savory'
g44
S'O'
tp1304
a(S'cravings'
g151
S'O'
tp1305
a(S')'
S')'
S'O'
tp1306
a(S'If'
g1099
S'O'
tp1307
a(S'I'
g7
S'O'
tp1308
a(S'have'
g103
S'O'
tp1309
a(S'to'
g21
S'O'
tp1310
a(S'admit'
g23
S'O'
tp1311
a(S'it'
g109
S'O'
tp1312
a(S','
S','
S'O'
tp1313
a(S'there'
g904
S'O'
tp1314
a(S'are'
g544
S'O'
tp1315
a(S'definitely'
g3
S'O'
tp1316
a(S"'wrong'"
g44
S'O'
tp1317
a(S'orders'
S'NNS'
S'O'
tp1318
a(S'here'
g27
S'O'
tp1319
a(S'.'
S'.'
S'O'
tp1320
aa(lp1321
(S'Fun'
g34
S'O'
tp1322
a(S'with'
g40
S'O'
tp1323
a(S'friends'
g151
S'O'
tp1324
a(S'but'
g202
S'O'
tp1325
a(S'the'
g49
S'O'
tp1326
a(S'lack'
g34
S'O'
tp1327
a(S'of'
g90
S'O'
tp1328
a(S'a'
g32
S'O'
tp1329
a(S'good'
g44
S'O'
tp1330
a(S'wine'
g34
S'O'
tp1331
a(S'selection'
g34
S'O'
tp1332
a(S'or'
g127
S'O'
tp1333
a(S'eclectic'
g44
S'O'
tp1334
a(S'beer'
S'NN'
p1335
S'O'
tp1336
a(S'selection'
g34
S'O'
tp1337
a(S'('
S'('
S'O'
tp1338
a(S'to'
g21
S'O'
tp1339
a(S'complement'
g23
S'O'
tp1340
a(S'the'
g49
S'O'
tp1341
a(S'various'
S'JJ'
S'O'
tp1342
a(S'cultural'
g44
S'O'
tp1343
a(S'dishes'
g151
S'O'
tp1344
a(S')'
S')'
S'O'
tp1345
a(S"it's"
g103
S'O'
tp1346
a(S'a'
g32
S'O'
tp1347
a(S'little'
g44
S'O'
tp1348
a(S'lacking'
g34
S'O'
tp1349
a(S'as'
g52
S'O'
tp1350
a(S'a'
g32
S'O'
tp1351
a(S'good'
g44
S'O'
tp1352
a(S'place'
g34
S'O'
tp1353
a(S'to'
g21
S'O'
tp1354
a(S'start'
g23
S'O'
tp1355
a(S'the'
g49
S'O'
tp1356
a(S'evening'
g34
S'O'
tp1357
a(S'.'
S'.'
S'O'
tp1358
aa(lp1359
(S'Wish'
g44
S'O'
tp1360
a(S'I'
g7
S'O'
tp1361
a(S'took'
S'VBD'
S'O'
tp1362
a(S'a'
g32
S'O'
tp1363
a(S'bite'
g34
S'O'
tp1364
a(S'when'
g5
S'O'
tp1365
a(S'it'
g109
S'O'
tp1366
a(S'was'
g9
S'O'
tp1367
a(S'still'
S'RB'
S'O'
tp1368
a(S'fresh'
g44
S'O'
tp1369
a(S'but'
g202
S'O'
tp1370
a(S'we'
g702
S'O'
tp1371
a(S'ate'
g103
S'O'
tp1372
a(S'it'
g109
S'O'
tp1373
a(S'as'
g52
S'O'
tp1374
a(S'dessert'
g34
S'O'
tp1375
a(S'after'
S'IN'
p1376
S'O'
tp1377
a(S'we'
g702
S'O'
tp1378
a(S'finished'
g9
S'O'
tp1379
a(S'our'
S'PRP$'
p1380
S'O'
tp1381
a(S'entrees'
g151
S'O'
tp1382
a(S'.'
S'.'
S'O'
tp1383
aa(lp1384
(S'Deja'
g347
S'O'
tp1385
a(S'Vu'
g347
S'O'
tp1386
a(S'has'
g598
S'O'
tp1387
a(S'the'
g49
S'O'
tp1388
a(S'same'
S'JJ'
S'O'
tp1389
a(S'great'
g444
S'O'
tp1390
a(S'made'
g38
S'O'
tp1391
a(S'to'
g21
S'O'
tp1392
a(S'order'
g1291
S'O'
tp1393
a(S'slices'
g151
g35
tp1394
a(S'that'
g86
S'O'
tp1395
a(S'are'
g544
S'O'
tp1396
a(S'heavenly'
g3
S'O'
tp1397
a(S'and'
g29
S'O'
tp1398
a(S'to'
g21
S'O'
tp1399
a(S'die'
g23
S'O'
tp1400
a(S'for'
g401
S'O'
tp1401
a(S'.'
S'.'
S'O'
tp1402
aa(lp1403
(S'The'
g307
S'O'
tp1404
a(S'chicken'
g34
g35
tp1405
a(S'fried'
g9
g35
tp1406
a(S'rice'
g34
g35
tp1407
a(S'and'
g29
S'O'
tp1408
a(S'the'
g49
S'O'
tp1409
a(S'chicken'
g34
g35
tp1410
a(S'with'
g40
g35
tp1411
a(S'mixed'
g44
g35
tp1412
a(S'vegetables'
g151
g35
tp1413
a(S'.'
S'.'
S'O'
tp1414
aa(lp1415
(S'Really'
g3
S'O'
tp1416
a(S'great'
g444
S'O'
tp1417
a(S'fresh'
g44
g35
tp1418
a(S'fish'
g34
g35
tp1419
a(S'.'
S'.'
S'O'
tp1420
aa(lp1421
(S'First'
g347
S'O'
tp1422
a(S'off'
g3
S'O'
tp1423
a(S','
S','
S'O'
tp1424
a(S'we'
g702
S'O'
tp1425
a(S'both'
g155
S'O'
tp1426
a(S'loved'
g9
S'O'
tp1427
a(S'the'
g49
S'O'
tp1428
a(S'olive'
g44
g35
tp1429
a(S'oil'
S'NN'
g35
tp1430
a(S'infused'
g38
g35
tp1431
a(S'with'
g40
g35
tp1432
a(S'something'
g313
g35
tp1433
a(S'spicy'
g34
g35
tp1434
a(S'.'
S'.'
S'O'
tp1435
aa(lp1436
(S'The'
g307
S'O'
tp1437
a(S'15'
S'CD'
p1438
S'O'
tp1439
a(S'.'
S'.'
S'O'
tp1440
a(S'00'
g546
S'O'
tp1441
a(S'pizza'
g34
g35
tp1442
a(S'had'
g9
S'O'
tp1443
a(S'12'
S'CD'
S'O'
tp1444
a(S'thin'
g44
S'O'
tp1445
a(S'sliced'
g9
S'O'
tp1446
a(S'pieces'
g151
S'O'
tp1447
a(S'.'
S'.'
S'O'
tp1448
aa(lp1449
(S'Tasty'
g44
S'O'
tp1450
a(S'meat'
g34
g35
tp1451
a(S','
S','
S'O'
tp1452
a(S'perfect'
g44
S'O'
tp1453
a(S'onion'
g34
g35
tp1454
a(S'rings'
g151
g35
tp1455
a(S'.'
S'.'
S'O'
tp1456
aa(lp1457
(S'We'
g645
S'O'
tp1458
a(S'had'
g9
S'O'
tp1459
a(S'the'
g49
S'O'
tp1460
a(S'Green'
g44
g35
tp1461
a(S'Rotee'
g347
g35
tp1462
a(S'and'
g29
S'O'
tp1463
a(S'Chicken'
g347
g35
tp1464
a(S'Pad'
g347
g35
tp1465
a(S'Thai'
g347
g35
tp1466
a(S'and'
g29
S'O'
tp1467
a(S'both'
g155
S'O'
tp1468
a(S'were'
g606
S'O'
tp1469
a(S'delicious'
g44
S'O'
tp1470
a(S'.'
S'.'
S'O'
tp1471
aa(lp1472
(S'The'
g307
S'O'
tp1473
a(S'clam'
g34
g35
tp1474
a(S'and'
g29
g35
tp1475
a(S'garlic'
g44
g35
tp1476
a(S'pizza'
g34
g35
tp1477
a(S'is'
g111
S'O'
tp1478
a(S'amazing'
g44
S'O'
tp1479
a(S'.'
S'.'
S'O'
tp1480
aa(lp1481
(S'Is'
g522
S'O'
tp1482
a(S'it'
g109
S'O'
tp1483
a(S'real'
g1032
S'O'
tp1484
a(S'from'
g196
S'O'
tp1485
a(S'Japan'
S'NNP'
S'O'
tp1486
a(S'or'
g127
S'O'
tp1487
a(S"'US"
S'POS'
S'O'
tp1488
a(S'Kobe'
g347
g35
tp1489
a(S"style'"
g34
S'O'
tp1490
a(S'?'
S'.'
S'O'
tp1491
aa(lp1492
(S'the'
g49
S'O'
tp1493
a(S'closest'
g1012
S'O'
tp1494
a(S'to'
g21
S'O'
tp1495
a(S'new'
S'JJ'
S'O'
tp1496
a(S'york'
g34
S'O'
tp1497
a(S'style'
S'NN'
p1498
S'O'
tp1499
a(S"i've"
g34
S'O'
tp1500
a(S'found'
g38
S'O'
tp1501
a(S'in'
g47
S'O'
tp1502
a(S'SF'
g347
S'O'
tp1503
a(S'('
S'('
S'O'
tp1504
a(S'and'
g29
S'O'
tp1505
a(S"i'm"
g34
S'O'
tp1506
a(S'from'
g196
S'O'
tp1507
a(S'NY'
g347
S'O'
tp1508
a(S')'
S')'
S'O'
tp1509
a(S','
S','
S'O'
tp1510
a(S'but'
g202
S'O'
tp1511
a(S'admittedly'
g3
S'O'
tp1512
a(S'i'
g44
S'O'
tp1513
a(S"haven't"
g103
S'O'
tp1514
a(S'gone'
S'VBN'
S'O'
tp1515
a(S'pizza'
g44
S'O'
tp1516
a(S'tasting'
g11
S'O'
tp1517
a(S'all'
g155
S'O'
tp1518
a(S'over'
g52
S'O'
tp1519
a(S'the'
g49
S'O'
tp1520
a(S'city'
S'NN'
p1521
S'O'
tp1522
a(S'yet'
g3
S'O'
tp1523
a(S'.'
S'.'
S'O'
tp1524
aa(lp1525
(S'I'
g7
S'O'
tp1526
a(S'was'
g9
S'O'
tp1527
a(S'really'
g469
S'O'
tp1528
a(S'in'
g47
S'O'
tp1529
a(S'the'
g49
S'O'
tp1530
a(S'mood'
g34
S'O'
tp1531
a(S'for'
g401
S'O'
tp1532
a(S'a'
g32
S'O'
tp1533
a(S'beer'
g1335
S'O'
tp1534
a(S'today'
S'NN'
S'O'
tp1535
a(S'and'
g29
S'O'
tp1536
a(S'had'
g9
S'O'
tp1537
a(S'so'
g3
S'O'
tp1538
a(S'anticipated'
g38
S'O'
tp1539
a(S'it'
g109
S'O'
tp1540
a(S'that'
g52
S'O'
tp1541
a(S'I'
g7
S'O'
tp1542
a(S'walked'
g9
S'O'
tp1543
a(S'over'
g52
S'O'
tp1544
a(S'the'
g49
S'O'
tp1545
a(S'the'
g49
S'O'
tp1546
a(S'7'
S'CD'
S'O'
tp1547
a(S'11'
S'CD'
S'O'
tp1548
a(S'on'
g117
S'O'
tp1549
a(S'Geary'
g347
S'O'
tp1550
a(S'and'
g29
S'O'
tp1551
a(S'15th'
g546
S'O'
tp1552
a(S'and'
g29
S'O'
tp1553
a(S'brought'
g9
S'O'
tp1554
a(S'it'
g109
S'O'
tp1555
a(S'back'
g3
S'O'
tp1556
a(S'to'
g21
S'O'
tp1557
a(S'the'
g49
S'O'
tp1558
a(S'Cafe'
g347
S'O'
tp1559
a(S'Mereb'
g347
S'O'
tp1560
a(S'.'
S'.'
S'O'
tp1561
aa(lp1562
(S'My'
g720
S'O'
tp1563
a(S'wife'
S'NN'
S'O'
tp1564
a(S','
S','
S'O'
tp1565
a(S'Karen'
g347
S'O'
tp1566
a(S','
S','
S'O'
tp1567
a(S'asked'
g9
S'O'
tp1568
a(S'which'
g86
S'O'
tp1569
a(S'of'
g90
S'O'
tp1570
a(S'two'
S'CD'
p1571
S'O'
tp1572
a(S'main'
S'JJ'
S'O'
tp1573
a(S'courses'
g151
S'O'
tp1574
a(S'was'
g9
S'O'
tp1575
a(S'better'
S'RBR'
S'O'
tp1576
a(S'and'
g29
S'O'
tp1577
a(S'the'
g49
S'O'
tp1578
a(S'waiter'
g34
S'O'
tp1579
a(S'unhesitatingly'
g3
S'O'
tp1580
a(S'recommended'
g9
S'O'
tp1581
a(S'one'
g546
S'O'
tp1582
a(S'over'
g52
S'O'
tp1583
a(S'the'
g49
S'O'
tp1584
a(S'other'
S'JJ'
p1585
S'O'
tp1586
a(S'('
S'('
S'O'
tp1587
a(S'I'
g7
S'O'
tp1588
a(S"can't"
g103
S'O'
tp1589
a(S'remember'
g23
S'O'
tp1590
a(S'which'
g86
S'O'
tp1591
a(S'things'
S'NNS'
S'O'
tp1592
a(S')'
S')'
S'O'
tp1593
a(S','
S','
S'O'
tp1594
a(S'and'
g29
S'O'
tp1595
a(S'although'
S'IN'
S'O'
tp1596
a(S'we'
g702
S'O'
tp1597
a(S"didn't"
g103
S'O'
tp1598
a(S'try'
g23
S'O'
tp1599
a(S'the'
g49
S'O'
tp1600
a(S'one'
g546
S'O'
tp1601
a(S'he'
S'PRP'
p1602
S'O'
tp1603
a(S'guided'
g9
S'O'
tp1604
a(S'us'
g230
S'O'
tp1605
a(S'away'
g3
S'O'
tp1606
a(S'from'
g196
S'O'
tp1607
a(S','
S','
S'O'
tp1608
a(S'the'
g49
S'O'
tp1609
a(S'one'
g546
S'O'
tp1610
a(S'she'
g224
S'O'
tp1611
a(S'chose'
g9
S'O'
tp1612
a(S'was'
g9
S'O'
tp1613
a(S'delicious'
g44
S'O'
tp1614
a(S'.'
S'.'
S'O'
tp1615
aa(lp1616
(S'I'
g7
S'O'
tp1617
a(S'am'
S'VBP'
p1618
S'O'
tp1619
a(S'not'
g734
S'O'
tp1620
a(S'a'
g32
S'O'
tp1621
a(S'huge'
g939
S'O'
tp1622
a(S'eggplant'
g34
g35
tp1623
a(S'fan'
g34
S'O'
tp1624
a(S'in'
g47
S'O'
tp1625
a(S'general'
g44
S'O'
tp1626
a(S','
S','
S'O'
tp1627
a(S'but'
g202
S'O'
tp1628
a(S'the'
g49
S'O'
tp1629
a(S'the'
g49
S'O'
tp1630
a(S'bengan'
g44
g35
tp1631
a(S'bartha'
g34
g35
tp1632
a(S'consisting'
g11
S'O'
tp1633
a(S'of'
g90
S'O'
tp1634
a(S'sauteed'
g34
g35
tp1635
a(S'eggplant'
g34
g35
tp1636
a(S','
S','
S'O'
tp1637
a(S'garlic'
g44
g35
tp1638
a(S','
S','
S'O'
tp1639
a(S'ginger'
g34
g35
tp1640
a(S','
S','
S'O'
tp1641
a(S'onion'
g34
g35
tp1642
a(S','
S','
S'O'
tp1643
a(S'and'
g29
S'O'
tp1644
a(S'spices'
g151
g35
tp1645
a(S'is'
g111
S'O'
tp1646
a(S'also'
g359
S'O'
tp1647
a(S'great'
g444
S'O'
tp1648
a(S'.'
S'.'
S'O'
tp1649
aa(lp1650
(S'Fish'
g34
g35
tp1651
a(S'in'
g47
S'O'
tp1652
a(S'spicy'
g34
S'O'
tp1653
a(S'yumminess'
g34
S'O'
tp1654
a(S'.'
S'.'
S'O'
tp1655
a(S'.'
S'.'
S'O'
tp1656
a(S'.'
S'.'
S'O'
tp1657
a(S'dim'
g44
g35
tp1658
a(S'sum'
g34
g35
tp1659
a(S'.'
S'.'
S'O'
tp1660
a(S'.'
S'.'
S'O'
tp1661
a(S'.'
S'.'
S'O'
tp1662
aa(lp1663
(S'This'
S'DT'
S'O'
tp1664
a(S'was'
g9
S'O'
tp1665
a(S'also'
g359
S'O'
tp1666
a(S'really'
g469
S'O'
tp1667
a(S'good'
g44
S'O'
tp1668
a(S','
S','
S'O'
tp1669
a(S'covered'
g38
S'O'
tp1670
a(S'in'
g47
S'O'
tp1671
a(S'veggies'
g151
g35
tp1672
a(S'and'
g29
S'O'
tp1673
a(S'black'
S'JJ'
p1674
g35
tp1675
a(S'olives'
g151
g35
tp1676
a(S'.'
S'.'
S'O'
tp1677
aa(lp1678
(S'You'
S'PRP'
S'O'
tp1679
a(S"don't"
g103
S'O'
tp1680
a(S'expect'
g23
S'O'
tp1681
a(S'much'
g3
S'O'
tp1682
a(S'from'
g196
S'O'
tp1683
a(S'a'
g32
S'O'
tp1684
a(S'pizza'
g44
g35
tp1685
a(S'place'
g34
S'O'
tp1686
a(S','
S','
S'O'
tp1687
a(S'but'
g202
S'O'
tp1688
a(S'everyone'
S'NN'
S'O'
tp1689
a(S'there'
g904
S'O'
tp1690
a(S'is'
g111
S'O'
tp1691
a(S'always'
g115
S'O'
tp1692
a(S'smiling'
g11
S'O'
tp1693
a(S'and'
g29
S'O'
tp1694
a(S'the'
g49
S'O'
tp1695
a(S'delivery'
S'NN'
S'O'
tp1696
a(S'guys'
g34
S'O'
tp1697
a(S'are'
g544
S'O'
tp1698
a(S'always'
g115
S'O'
tp1699
a(S'nice'
g3
S'O'
tp1700
a(S'.'
S'.'
S'O'
tp1701
aa(lp1702
(S'Weird'
g347
S'O'
tp1703
a(S'.'
S'.'
S'O'
tp1704
a(S'.'
S'.'
S'O'
tp1705
a(S'.'
S'.'
S'O'
tp1706
a(S'.'
S'.'
S'O'
tp1707
a(S'they'
g1025
S'O'
tp1708
a(S'should'
g516
S'O'
tp1709
a(S'serve'
g23
S'O'
tp1710
a(S'vanilla'
g34
g35
tp1711
a(S'bean'
g44
g35
tp1712
a(S'ice'
g34
g35
tp1713
a(S'cream'
g34
g35
tp1714
a(S'with'
g40
g35
tp1715
a(S'chocolate'
g34
g35
tp1716
a(S'molten'
g151
g35
tp1717
a(S'cake'
g103
g35
tp1718
a(S'.'
S'.'
S'O'
tp1719
aa(lp1720
(S'Pad'
g347
g35
tp1721
a(S'Thai'
g347
g35
tp1722
a(S'which'
g86
S'O'
tp1723
a(S'is'
g111
S'O'
tp1724
a(S'perfect'
g44
S'O'
tp1725
a(S'by'
g1157
S'O'
tp1726
a(S'the'
g49
S'O'
tp1727
a(S'way'
g76
S'O'
tp1728
a(S'.'
S'.'
S'O'
tp1729
aa(lp1730
(S"It's"
g52
S'O'
tp1731
a(S'a'
g32
S'O'
tp1732
a(S'good'
g44
S'O'
tp1733
a(S'old'
S'JJ'
S'O'
tp1734
a(S'fashioned'
g38
S'O'
tp1735
a(S'Hof'
g347
S'O'
tp1736
a(S'Brau'
g347
S'O'
tp1737
a(S','
S','
S'O'
tp1738
a(S'with'
g40
S'O'
tp1739
a(S'a'
g32
S'O'
tp1740
a(S'large'
g632
S'O'
tp1741
a(S'variety'
g34
S'O'
tp1742
a(S'of'
g90
S'O'
tp1743
a(S'meats'
g151
S'O'
tp1744
a(S'and'
g29
S'O'
tp1745
a(S'other'
g1585
S'O'
tp1746
a(S'delights'
g151
S'O'
tp1747
a(S'.'
S'.'
S'O'
tp1748
aa(lp1749
(S'I'
g7
S'O'
tp1750
a(S'just'
g540
S'O'
tp1751
a(S'love'
g23
S'O'
tp1752
a(S'that'
g52
S'O'
tp1753
a(S'you'
g506
S'O'
tp1754
a(S'can'
g466
S'O'
tp1755
a(S'see'
g23
S'O'
tp1756
a(S'the'
g49
S'O'
tp1757
a(S'veggies'
g151
g35
tp1758
a(S'and'
g29
S'O'
tp1759
a(S'grain'
g34
S'O'
tp1760
a(S'in'
g47
S'O'
tp1761
a(S'the'
g49
S'O'
tp1762
a(S'burger'
g34
g35
tp1763
a(S'.'
S'.'
S'O'
tp1764
aa(lp1765
(S'The'
g307
S'O'
tp1766
a(S'fish'
g34
g35
tp1767
a(S'was'
g9
S'O'
tp1768
a(S'nicely'
g3
S'O'
tp1769
a(S'grilled'
g38
g35
tp1770
a(S'so'
g52
S'O'
tp1771
a(S'it'
g109
S'O'
tp1772
a(S'was'
g9
S'O'
tp1773
a(S'firm'
g44
S'O'
tp1774
a(S'yet'
g3
S'O'
tp1775
a(S'soft'
g44
S'O'
tp1776
a(S'with'
g40
S'O'
tp1777
a(S'a'
g32
S'O'
tp1778
a(S'nice'
g44
S'O'
tp1779
a(S'brown'
g34
S'O'
tp1780
a(S'crust'
g34
g35
tp1781
a(S','
S','
S'O'
tp1782
a(S'they'
g1025
S'O'
tp1783
a(S'added'
g9
S'O'
tp1784
a(S'just'
g540
S'O'
tp1785
a(S'enough'
g3
S'O'
tp1786
a(S'aioli'
g34
g35
tp1787
a(S'for'
g401
S'O'
tp1788
a(S'a'
g32
S'O'
tp1789
a(S'bit'
g34
S'O'
tp1790
a(S'of'
g90
S'O'
tp1791
a(S'spiciness'
g34
S'O'
tp1792
a(S'without'
S'IN'
S'O'
tp1793
a(S'overpowering'
g11
S'O'
tp1794
a(S'the'
g49
S'O'
tp1795
a(S'other'
g1585
S'O'
tp1796
a(S'milder'
g34
S'O'
tp1797
a(S'flavors'
g151
S'O'
tp1798
a(S','
S','
S'O'
tp1799
a(S'and'
g29
S'O'
tp1800
a(S'the'
g49
S'O'
tp1801
a(S'mango'
g34
g35
tp1802
a(S'avocado'
g34
g35
tp1803
a(S'salsa'
g34
g35
tp1804
a(S'added'
g9
S'O'
tp1805
a(S'a'
g32
S'O'
tp1806
a(S'wonderful'
g44
S'O'
tp1807
a(S'fruity'
g34
S'O'
tp1808
a(S','
S','
S'O'
tp1809
a(S'creamy'
g44
S'O'
tp1810
a(S'balance'
g34
S'O'
tp1811
a(S'.'
S'.'
S'O'
tp1812
aa(lp1813
(S'They'
g410
S'O'
tp1814
a(S'serve'
g103
S'O'
tp1815
a(S'a'
g32
S'O'
tp1816
a(S'nice'
g44
S'O'
tp1817
a(S'iceberg'
g34
g35
tp1818
a(S'salad'
g34
g35
tp1819
a(S'with'
g40
S'O'
tp1820
a(S'louie'
g44
g35
tp1821
a(S'dressing'
g34
g35
tp1822
a(S'and'
g29
S'O'
tp1823
a(S'bountiful'
g44
S'O'
tp1824
a(S'amounts'
g151
S'O'
tp1825
a(S'of'
g90
S'O'
tp1826
a(S'shrimp'
g34
g35
tp1827
a(S','
S','
S'O'
tp1828
a(S'followed'
g38
S'O'
tp1829
a(S'by'
g1157
S'O'
tp1830
a(S'your'
g820
S'O'
tp1831
a(S'choice'
S'NN'
S'O'
tp1832
a(S'of'
g90
S'O'
tp1833
a(S'fresh'
g44
g35
tp1834
a(S'seafood'
g34
g35
tp1835
a(S'.'
S'.'
S'O'
tp1836
aa(lp1837
(S'We'
g645
S'O'
tp1838
a(S'had'
g9
S'O'
tp1839
a(S'the'
g49
S'O'
tp1840
a(S'Kolokithokeftethes'
g347
g35
tp1841
a(S'('
S'('
S'O'
tp1842
a(S'zucchinni'
g347
g35
tp1843
a(S'cakes'
g151
g35
tp1844
a(S')'
S')'
S'O'
tp1845
a(S','
S','
S'O'
tp1846
a(S'the'
g49
S'O'
tp1847
a(S'Aginares'
g347
g35
tp1848
a(S'Souvlaki'
g347
g35
tp1849
a(S'('
S'('
S'O'
tp1850
a(S'eggplant'
g44
g35
tp1851
a(S'artichoke'
g34
g35
tp1852
a(S'skewers'
g151
g35
tp1853
a(S')'
S')'
S'O'
tp1854
a(S','
S','
S'O'
tp1855
a(S'and'
g29
S'O'
tp1856
a(S'a'
g32
S'O'
tp1857
a(S'trio'
g34
g35
tp1858
a(S'of'
g90
g35
tp1859
a(S'dips'
g151
g35
tp1860
a(S'('
S'('
S'O'
tp1861
a(S'not'
g734
S'O'
tp1862
a(S'on'
g117
S'O'
tp1863
a(S'their'
g728
S'O'
tp1864
a(S'menu'
g34
S'O'
tp1865
a(S')'
S')'
S'O'
tp1866
a(S'that'
g86
S'O'
tp1867
a(S'came'
S'VBD'
p1868
S'O'
tp1869
a(S'with'
g40
S'O'
tp1870
a(S'dolmades'
g151
g35
tp1871
a(S','
S','
S'O'
tp1872
a(S'sliced'
g9
g35
tp1873
a(S'cucumbers'
g151
g35
tp1874
a(S','
S','
S'O'
tp1875
a(S'and'
g29
S'O'
tp1876
a(S'tasty'
g34
S'O'
tp1877
a(S'seasoned'
g9
g35
tp1878
a(S'pita'
g151
g35
tp1879
a(S','
S','
S'O'
tp1880
a(S'which'
g86
S'O'
tp1881
a(S'was'
g9
S'O'
tp1882
a(S'recommended'
g38
S'O'
tp1883
a(S'by'
g1157
S'O'
tp1884
a(S'our'
g1380
S'O'
tp1885
a(S'server'
g34
S'O'
tp1886
a(S'.'
S'.'
S'O'
tp1887
aa(lp1888
(S'Order'
g34
S'O'
tp1889
a(S'from'
g196
S'O'
tp1890
a(S'the'
g49
S'O'
tp1891
a(S'Northeastern'
g347
S'O'
tp1892
a(S'Dimsum'
g347
S'O'
tp1893
a(S'menu'
g34
S'O'
tp1894
a(S'and'
g29
S'O'
tp1895
a(S'definitely'
g3
S'O'
tp1896
a(S'try'
g23
S'O'
tp1897
a(S'the'
g49
S'O'
tp1898
a(S'cold'
g44
g35
tp1899
a(S'tofu'
g34
g35
tp1900
a(S'salad'
g34
g35
tp1901
a(S','
S','
S'O'
tp1902
a(S'soy'
g44
g35
tp1903
a(S'milk'
g34
g35
tp1904
a(S'('
S'('
S'O'
tp1905
a(S'sweet'
g44
S'O'
tp1906
a(S')'
S')'
S'O'
tp1907
a(S','
S','
S'O'
tp1908
a(S'onion'
g34
g35
tp1909
a(S'pancakes'
g151
g35
tp1910
a(S','
S','
S'O'
tp1911
a(S'shanghai'
g34
g35
tp1912
a(S'noodles'
g151
g35
tp1913
a(S','
S','
S'O'
tp1914
a(S'vege'
g34
g35
tp1915
a(S'potstickers'
g151
g35
tp1916
a(S','
S','
S'O'
tp1917
a(S'and'
g29
S'O'
tp1918
a(S'some'
g42
S'O'
tp1919
a(S'of'
g90
S'O'
tp1920
a(S'the'
g49
S'O'
tp1921
a(S'breads'
g151
g35
tp1922
a(S'they'
g1025
S'O'
tp1923
a(S'have'
g103
S'O'
tp1924
a(S'in'
g47
S'O'
tp1925
a(S'front'
g34
S'O'
tp1926
a(S'.'
S'.'
S'O'
tp1927
aa(lp1928
(S'Their'
g720
S'O'
tp1929
a(S'spicy'
g34
S'O'
tp1930
a(S'is'
g111
S'O'
tp1931
a(S'definitely'
g3
S'O'
tp1932
a(S'mouth'
g44
S'O'
tp1933
a(S'watering'
g11
S'O'
tp1934
a(S'saliva'
g44
S'O'
tp1935
a(S'engaging'
g11
S'O'
tp1936
a(S'milk'
g34
S'O'
tp1937
a(S'needing'
g11
S'O'
tp1938
a(S'kinda'
g44
S'O'
tp1939
a(S'HOT'
g347
S'O'
tp1940
a(S'!'
S'.'
S'O'
tp1941
a(S'!'
S'.'
S'O'
tp1942
a(S'!'
S'.'
S'O'
tp1943
aa(lp1944
(S'Large'
g44
S'O'
tp1945
a(S'servings'
g151
S'O'
tp1946
a(S'of'
g90
S'O'
tp1947
a(S'pasta'
S'NN'
S'FOOD'
tp1948
a(S'that'
g86
S'O'
tp1949
a(S'are'
g544
S'O'
tp1950
a(S'pretty'
g3
S'O'
tp1951
a(S'good'
g44
S'O'
tp1952
a(S'as'
g3
S'O'
tp1953
a(S'well'
g3
S'O'
tp1954
a(S'.'
S'.'
S'O'
tp1955
aa(lp1956
(S'So'
g3
S'O'
tp1957
a(S'two'
g1571
S'O'
tp1958
a(S'married'
g44
S'O'
tp1959
a(S'guys'
g151
S'O'
tp1960
a(S'and'
g29
S'O'
tp1961
a(S'the'
g49
S'O'
tp1962
a(S'heterosexual'
g44
S'O'
tp1963
a(S'bachelor'
g34
S'O'
tp1964
a(S'ended'
g9
S'O'
tp1965
a(S'up'
g105
S'O'
tp1966
a(S'ordering'
g11
S'O'
tp1967
a(S'a'
g32
S'O'
tp1968
a(S'beef'
g34
g35
tp1969
a(S'dish'
g34
S'O'
tp1970
a(S','
S','
S'O'
tp1971
a(S'a'
g32
S'O'
tp1972
a(S'pork'
g34
g35
tp1973
a(S'dish'
g34
S'O'
tp1974
a(S','
S','
S'O'
tp1975
a(S'and'
g29
S'O'
tp1976
a(S'a'
g32
S'O'
tp1977
a(S'fish'
g44
g35
tp1978
a(S'dish'
g34
S'O'
tp1979
a(S'.'
S'.'
S'O'
tp1980
aa(lp1981
(S'May'
S'NNP'
S'O'
tp1982
a(S'I'
g7
S'O'
tp1983
a(S'get'
g103
S'O'
tp1984
a(S'black'
g1674
g35
tp1985
a(S'beans'
g151
g35
tp1986
a(S'on'
g117
S'O'
tp1987
a(S'that'
g155
S'O'
tp1988
a(S'?'
S'.'
S'O'
tp1989
aa(lp1990
(S'The'
g307
S'O'
tp1991
a(S'food'
g422
S'O'
tp1992
a(S'is'
g111
S'O'
tp1993
a(S'great'
g444
S'O'
tp1994
a(S'family'
S'NN'
S'O'
tp1995
a(S'style'
g1498
S'O'
tp1996
a(S'Middle'
g347
S'O'
tp1997
a(S'Eastern'
g347
S'O'
tp1998
a(S'that'
g86
S'O'
tp1999
a(S'is'
g111
S'O'
tp2000
a(S'meant'
g38
S'O'
tp2001
a(S'to'
g21
S'O'
tp2002
a(S'be'
g65
S'O'
tp2003
a(S'shared'
g38
S'O'
tp2004
a(S'with'
g40
S'O'
tp2005
a(S'friends'
g151
S'O'
tp2006
a(S'.'
S'.'
S'O'
tp2007
aa(lp2008
(S'and'
g29
S'O'
tp2009
a(S'i'
g34
S'O'
tp2010
a(S'want'
g103
S'O'
tp2011
a(S'something'
g313
S'O'
tp2012
a(S'to'
g21
S'O'
tp2013
a(S'look'
g23
S'O'
tp2014
a(S'forward'
g3
S'O'
tp2015
a(S'to'
g21
S'O'
tp2016
a(S','
S','
S'O'
tp2017
a(S'pizza'
g44
g35
tp2018
a(S'wise'
g34
S'O'
tp2019
a(S'.'
S'.'
S'O'
tp2020
aa(lp2021
(S'YAY'
g23
S'O'
tp2022
a(S'The'
g307
S'O'
tp2023
a(S'not'
g734
S'O'
tp2024
a(S'so'
g3
S'O'
tp2025
a(S'good'
g44
S'O'
tp2026
a(S'Shrimp'
g347
g35
tp2027
a(S'appetizer'
g34
g35
tp2028
a(S'did'
S'VBD'
S'O'
tp2029
a(S'you'
g506
S'O'
tp2030
a(S'REALLY'
g23
S'O'
tp2031
a(S'just'
g540
S'O'
tp2032
a(S'charge'
g34
S'O'
tp2033
a(S'15'
g1438
S'O'
tp2034
a(S'for'
g401
S'O'
tp2035
a(S'2'
S'CD'
S'O'
tp2036
a(S'prawns'
g151
g35
tp2037
a(S'?'
S'.'
S'O'
tp2038
aa(lp2039
(S'And'
S'CC'
p2040
S'O'
tp2041
a(S'after'
g1376
S'O'
tp2042
a(S'you'
g506
S'O'
tp2043
a(S'are'
g544
S'O'
tp2044
a(S'done'
S'VBN'
S'O'
tp2045
a(S'gorging'
g34
S'O'
tp2046
a(S','
S','
S'O'
tp2047
a(S'grab'
g23
S'O'
tp2048
a(S'some'
g42
S'O'
tp2049
a(S'tea'
g34
S'O'
tp2050
a(S'in'
g47
S'O'
tp2051
a(S'the'
g49
S'O'
tp2052
a(S'back'
g34
S'O'
tp2053
a(S','
S','
S'O'
tp2054
a(S'sweeten'
g522
S'O'
tp2055
a(S'it'
g109
S'O'
tp2056
a(S'to'
g21
S'O'
tp2057
a(S'your'
g820
S'O'
tp2058
a(S'liking'
g34
S'O'
tp2059
a(S','
S','
S'O'
tp2060
a(S'and'
g29
S'O'
tp2061
a(S'walk'
g23
S'O'
tp2062
a(S'away'
g3
S'O'
tp2063
a(S'quickly'
S'RB'
S'O'
tp2064
a(S'to'
g21
S'O'
tp2065
a(S'a'
g32
S'O'
tp2066
a(S'safer'
g34
S'O'
tp2067
a(S'neighborhood'
g34
S'O'
tp2068
a(S'.'
S'.'
S'O'
tp2069
aa(lp2070
(S'And'
g2040
S'O'
tp2071
a(S'not'
g734
S'O'
tp2072
a(S'that'
g52
S'O'
tp2073
a(S'crappy'
g44
S'O'
tp2074
a(S'nasty'
g44
S'O'
tp2075
a(S'cheap'
g34
S'O'
tp2076
a(S'o'
g34
S'O'
tp2077
a(S'crap'
g34
S'O'
tp2078
a(S'o'
g34
S'O'
tp2079
a(S'soggy'
g44
S'O'
tp2080
a(S'pizza'
g34
g35
tp2081
a(S'.'
S'.'
S'O'
tp2082
aa(lp2083
(S'The'
g307
S'O'
tp2084
a(S'pastries'
g151
g35
tp2085
a(S'are'
g544
S'O'
tp2086
a(S'amazing'
g11
S'O'
tp2087
a(S'and'
g29
S'O'
tp2088
a(S'the'
g49
S'O'
tp2089
a(S'fruit'
g34
S'O'
tp2090
a(S'and'
g29
S'O'
tp2091
a(S'orange'
g34
S'O'
tp2092
a(S'juice'
g34
S'O'
tp2093
a(S'make'
g103
S'O'
tp2094
a(S'you'
g506
S'O'
tp2095
a(S'remember'
g23
S'O'
tp2096
a(S'why'
S'WRB'
S'O'
tp2097
a(S'you'
g506
S'O'
tp2098
a(S'moved'
g9
S'O'
tp2099
a(S'to'
g21
S'O'
tp2100
a(S'California'
S'NNP'
S'O'
tp2101
a(S'.'
S'.'
S'O'
tp2102
aa(lp2103
(S'The'
g307
S'O'
tp2104
a(S'place'
g34
S'O'
tp2105
a(S'was'
g9
S'O'
tp2106
a(S'kinda'
g38
S'O'
tp2107
a(S'small'
g1118
S'O'
tp2108
a(S','
S','
S'O'
tp2109
a(S'but'
g202
S'O'
tp2110
a(S'the'
g49
S'O'
tp2111
a(S'tables'
g151
S'O'
tp2112
a(S'were'
g606
S'O'
tp2113
a(S'arranged'
g38
S'O'
tp2114
a(S'in'
g47
S'O'
tp2115
a(S'a'
g32
S'O'
tp2116
a(S'way'
g76
S'O'
tp2117
a(S'that'
g52
S'O'
tp2118
a(S'it'
g109
S'O'
tp2119
a(S'was'
g9
S'O'
tp2120
a(S'easy'
g44
S'O'
tp2121
a(S'for'
g401
S'O'
tp2122
a(S'people'
S'NNS'
S'O'
tp2123
a(S'to'
g21
S'O'
tp2124
a(S'get'
g23
S'O'
tp2125
a(S'to'
g21
S'O'
tp2126
a(S'their'
g728
S'O'
tp2127
a(S'seats'
g151
S'O'
tp2128
a(S'.'
S'.'
S'O'
tp2129
aa(lp2130
(S'fresh'
g44
S'O'
tp2131
a(S','
S','
S'O'
tp2132
a(S'healthy'
S'JJ'
S'O'
tp2133
a(S'ingredients'
g151
S'O'
tp2134
a(S'made'
g38
S'O'
tp2135
a(S'for'
g401
S'O'
tp2136
a(S'very'
g3
S'O'
tp2137
a(S'inspiring'
g44
S'O'
tp2138
a(S'cookery'
g34
S'O'
tp2139
a(S','
S','
S'O'
tp2140
a(S'and'
g29
S'O'
tp2141
a(S'also'
g359
S'O'
tp2142
a(S'a'
g32
S'O'
tp2143
a(S'nice'
g44
S'O'
tp2144
a(S'variation'
g34
S'O'
tp2145
a(S'of'
g90
S'O'
tp2146
a(S'hong'
g44
S'O'
tp2147
a(S'kong'
g44
S'O'
tp2148
a(S'style'
g1498
S'O'
tp2149
a(S'desserts'
g151
S'O'
tp2150
a(S'.'
S'.'
S'O'
tp2151
aa(lp2152
(S'I'
g7
S'O'
tp2153
a(S'have'
g103
S'O'
tp2154
a(S'noticed'
g38
S'O'
tp2155
a(S'an'
g155
S'O'
tp2156
a(S'abundance'
g34
S'O'
tp2157
a(S'of'
g90
S'O'
tp2158
a(S'these'
g1095
S'O'
tp2159
a(S'situations'
g151
S'O'
tp2160
a(S'popping'
g11
S'O'
tp2161
a(S'up'
g105
S'O'
tp2162
a(S'.'
S'.'
S'O'
tp2163
a(S'.'
S'.'
S'O'
tp2164
a(S'.'
S'.'
S'O'
tp2165
a(S'.'
S'.'
S'O'
tp2166
a(S'('
S'('
S'O'
tp2167
a(S'Little'
g44
S'O'
tp2168
a(S'Star'
g347
S'O'
tp2169
a(S'Pizza'
g347
g35
tp2170
a(S')'
S')'
S'O'
tp2171
a(S'.'
S'.'
S'O'
tp2172
a(S'.'
S'.'
S'O'
tp2173
a(S'.'
S'.'
S'O'
tp2174
a(S'.'
S'.'
S'O'
tp2175
a(S'what'
g526
S'O'
tp2176
a(S'the'
g49
S'O'
tp2177
a(S'hell'
g34
S'O'
tp2178
a(S'.'
S'.'
S'O'
tp2179
a(S'.'
S'.'
S'O'
tp2180
a(S'.'
S'.'
S'O'
tp2181
a(S'.'
S'.'
S'O'
tp2182
a(S'are'
g544
S'O'
tp2183
a(S'we'
g702
S'O'
tp2184
a(S'now'
S'RB'
p2185
S'O'
tp2186
a(S'expected'
g38
S'O'
tp2187
a(S'to'
g21
S'O'
tp2188
a(S'carry'
g23
S'O'
tp2189
a(S'around'
g105
S'O'
tp2190
a(S'5'
g149
S'O'
tp2191
a(S'in'
g47
S'O'
tp2192
a(S'quarters'
g151
S'O'
tp2193
a(S'for'
g401
S'O'
tp2194
a(S'the'
g49
S'O'
tp2195
a(S'parking'
g34
S'O'
tp2196
a(S'meters'
g151
S'O'
tp2197
a(S'and'
g29
S'O'
tp2198
a(S'at'
g561
S'O'
tp2199
a(S'least'
g1012
S'O'
tp2200
a(S'a'
g32
S'O'
tp2201
a(S'c'
g44
S'O'
tp2202
a(S'note'
g34
S'O'
tp2203
a(S'for'
g401
S'O'
tp2204
a(S'a'
g32
S'O'
tp2205
a(S'nice'
g44
S'O'
tp2206
a(S'dinner'
g34
S'O'
tp2207
a(S'.'
S'.'
S'O'
tp2208
a(S'.'
S'.'
S'O'
tp2209
a(S'.'
S'.'
S'O'
tp2210
aa(lp2211
(S'Anything'
g11
S'O'
tp2212
a(S'lamb'
g44
g35
tp2213
a(S','
S','
S'O'
tp2214
a(S'anything'
g1101
S'O'
tp2215
a(S'roasting'
g11
S'O'
tp2216
a(S'on'
g117
S'O'
tp2217
a(S'the'
g49
S'O'
tp2218
a(S'spit'
g34
S'O'
tp2219
a(S'.'
S'.'
S'O'
tp2220
aa(lp2221
(S'It'
S'PRP'
S'O'
tp2222
a(S'was'
g9
S'O'
tp2223
a(S'pretty'
g3
S'O'
tp2224
a(S'good'
g44
S'O'
tp2225
a(S'especially'
g1053
S'O'
tp2226
a(S'for'
g401
S'O'
tp2227
a(S'the'
g49
S'O'
tp2228
a(S'price'
S'NN'
S'O'
tp2229
a(S'we'
g702
S'O'
tp2230
a(S'paid'
g9
S'O'
tp2231
a(S'.'
S'.'
S'O'
tp2232
a(S'The'
g307
S'O'
tp2233
a(S'steak'
g34
g35
tp2234
a(S"didn't"
g34
S'O'
tp2235
a(S'wow'
g23
S'O'
tp2236
a(S'me'
g97
S'O'
tp2237
a(S'but'
g202
S'O'
tp2238
a(S"that's"
g23
S'O'
tp2239
a(S'probably'
g1244
S'O'
tp2240
a(S'because'
g52
S'O'
tp2241
a(S'I'
g7
S'O'
tp2242
a(S'ordered'
g9
S'O'
tp2243
a(S'medium'
g34
S'O'
tp2244
a(S'instead'
g798
S'O'
tp2245
a(S'of'
g90
S'O'
tp2246
a(S'medium'
g34
S'O'
tp2247
a(S'rare'
g34
S'O'
tp2248
a(S'.'
S'.'
S'O'
tp2249
aa(lp2250
(S'Tip'
g347
S'O'
tp2251
a(S'Try'
g347
S'O'
tp2252
a(S'Boboquivaris'
g347
g35
tp2253
a(S'on'
g117
S'O'
tp2254
a(S'Lombard'
g347
S'O'
tp2255
a(S'when'
g5
S'O'
tp2256
a(S"they're"
g34
S'O'
tp2257
a(S'not'
g734
S'O'
tp2258
a(S'crowded'
g38
S'O'
tp2259
a(S'and'
g29
S'O'
tp2260
a(S"you'll"
g109
S'O'
tp2261
a(S'('
S'('
S'O'
tp2262
a(S'hopefully'
g3
S'O'
tp2263
a(S')'
S')'
S'O'
tp2264
a(S'get'
g23
S'O'
tp2265
a(S'some'
g42
S'O'
tp2266
a(S'good'
g44
S'O'
tp2267
a(S'steak'
g34
g35
tp2268
a(S'.'
S'.'
S'O'
tp2269
aa(lp2270
(S'My'
g720
S'O'
tp2271
a(S'grilled'
g44
g35
tp2272
a(S'cheese'
g34
g35
tp2273
a(S'was'
g9
S'O'
tp2274
a(S'good'
g44
S'O'
tp2275
a(S','
S','
S'O'
tp2276
a(S'and'
g29
S'O'
tp2277
a(S'the'
g49
S'O'
tp2278
a(S'tomato'
g34
g35
tp2279
a(S'soup'
g34
g35
tp2280
a(S'it'
g109
S'O'
tp2281
a(S'came'
g1868
S'O'
tp2282
a(S'with'
g40
S'O'
tp2283
a(S'was'
g9
S'O'
tp2284
a(S'peppery'
g34
S'O'
tp2285
a(S'and'
g29
S'O'
tp2286
a(S'great'
g444
S'O'
tp2287
a(S'.'
S'.'
S'O'
tp2288
aa(lp2289
(S'The'
g307
S'O'
tp2290
a(S'lamb'
g34
g35
tp2291
a(S'is'
g111
S'O'
tp2292
a(S'divine'
g44
S'O'
tp2293
a(S'.'
S'.'
S'O'
tp2294
aa(lp2295
(S'The'
g307
S'O'
tp2296
a(S'Sampler'
g347
g35
tp2297
a(S'with'
g40
g35
tp2298
a(S'all'
g788
g35
tp2299
a(S'the'
g49
g35
tp2300
a(S'fruit'
g34
g35
tp2301
a(S'looked'
g9
S'O'
tp2302
a(S'to'
g21
S'O'
tp2303
a(S'good'
g44
S'O'
tp2304
a(S'to'
g21
S'O'
tp2305
a(S'pass'
g23
S'O'
tp2306
a(S'up'
g105
S'O'
tp2307
a(S'.'
S'.'
S'O'
tp2308
aa(lp2309
(S'The'
g307
S'O'
tp2310
a(S'food'
g422
S'O'
tp2311
a(S'arrives'
g522
S'O'
tp2312
a(S'hot'
g44
S'O'
tp2313
a(S'and'
g29
S'O'
tp2314
a(S'gorgeous'
g44
S'O'
tp2315
a(S'promptly'
g3
S'O'
tp2316
a(S'and'
g29
S'O'
tp2317
a(S'it'
g109
S'O'
tp2318
a(S'makes'
S'VBZ'
S'O'
tp2319
a(S'up'
g105
S'O'
tp2320
a(S'for'
g401
S'O'
tp2321
a(S'the'
g49
S'O'
tp2322
a(S'almost'
g113
S'O'
tp2323
a(S'now'
g2185
S'O'
tp2324
a(S'hour'
S'NN'
S'O'
tp2325
a(S'wait'
g34
S'O'
tp2326
a(S'.'
S'.'
S'O'
tp2327
aa(lp2328
(S'Tried'
g38
S'O'
tp2329
a(S'the'
g49
S'O'
tp2330
a(S'calamari'
g34
g35
tp2331
a(S'and'
g29
S'O'
tp2332
a(S'the'
g49
S'O'
tp2333
a(S'carpaccio'
g34
g35
tp2334
a(S','
S','
S'O'
tp2335
a(S'both'
g155
S'O'
tp2336
a(S'super'
g44
S'O'
tp2337
a(S'tender'
g34
S'O'
tp2338
a(S'and'
g29
S'O'
tp2339
a(S'pretty'
g3
S'O'
tp2340
a(S'darn'
g44
S'O'
tp2341
a(S'yummy'
g34
S'O'
tp2342
a(S'.'
S'.'
S'O'
tp2343
aa(lp2344
(S'Only'
g3
S'O'
tp2345
a(S'complaint'
g34
S'O'
tp2346
a(S'was'
g9
S'O'
tp2347
a(S'that'
g52
S'O'
tp2348
a(S'my'
g119
S'O'
tp2349
a(S'splurge'
g34
S'O'
tp2350
a(S'1'
S'CD'
S'O'
tp2351
a(S'4'
g1040
S'O'
tp2352
a(S'cup'
g34
S'O'
tp2353
a(S'of'
g90
S'O'
tp2354
a(S'Paella'
g347
g35
tp2355
a(S'was'
g9
S'O'
tp2356
a(S'cold'
g44
S'O'
tp2357
a(S'and'
g29
S'O'
tp2358
a(S'had'
g9
S'O'
tp2359
a(S'crunch'
g34
S'O'
tp2360
a(S'rice'
g34
g35
tp2361
a(S'.'
S'.'
S'O'
tp2362
aa(lp2363
(S"Mama's"
g347
g35
tp2364
a(S'Sampler'
g347
g35
tp2365
a(S'French'
g347
g35
tp2366
a(S'Toast'
g347
g35
tp2367
a(S'slice'
g44
g35
tp2368
a(S'each'
S'DT'
g35
tp2369
a(S'of'
g90
S'O'
tp2370
a(S'cinnamon'
g34
g35
tp2371
a(S','
S','
S'O'
tp2372
a(S'banana'
g34
g35
tp2373
a(S'nut'
g34
g35
tp2374
a(S'and'
g29
S'O'
tp2375
a(S'cranberry'
g34
g35
tp2376
a(S'orange'
g34
S'O'
tp2377
a(S'with'
g40
S'O'
tp2378
a(S'fresh'
g44
S'O'
tp2379
a(S'berries'
g151
g35
tp2380
a(S'.'
S'.'
S'O'
tp2381
aa(lp2382
(S'All'
g155
S'O'
tp2383
a(S'you'
g506
S'O'
tp2384
a(S'get'
g103
S'O'
tp2385
a(S'is'
g111
S'O'
tp2386
a(S'perfectly'
g3
S'O'
tp2387
a(S'('
S'('
S'O'
tp2388
a(S'I'
g7
S'O'
tp2389
a(S"don't"
g103
S'O'
tp2390
a(S'use'
g23
S'O'
tp2391
a(S'that'
g52
S'O'
tp2392
a(S'term'
S'NN'
S'O'
tp2393
a(S'lightly'
g3
S'O'
tp2394
a(S')'
S')'
S'O'
tp2395
a(S'cooked'
g9
g35
tp2396
a(S'aged'
g38
g35
tp2397
a(S'beef'
g34
g35
tp2398
a(S'that'
g86
S'O'
tp2399
a(S'melts'
g151
S'O'
tp2400
a(S'in'
g47
S'O'
tp2401
a(S'your'
g820
S'O'
tp2402
a(S'mouth'
g34
S'O'
tp2403
a(S'.'
S'.'
S'O'
tp2404
aa(lp2405
(S'We'
g645
S'O'
tp2406
a(S'also'
g359
S'O'
tp2407
a(S'had'
g9
S'O'
tp2408
a(S'some'
g42
S'O'
tp2409
a(S'garlic'
g44
g35
tp2410
a(S'bread'
g34
g35
tp2411
a(S'with'
g40
g35
tp2412
a(S'cheese'
g34
g35
tp2413
a(S'as'
g3
S'O'
tp2414
a(S'well'
g3
S'O'
tp2415
a(S'.'
S'.'
S'O'
tp2416
aa(lp2417
(S'we'
g702
S'O'
tp2418
a(S'shared'
g9
S'O'
tp2419
a(S'shrimp'
g44
g35
tp2420
a(S'tikka'
g34
g35
tp2421
a(S'masala'
g34
g35
tp2422
a(S','
S','
S'O'
tp2423
a(S'the'
g49
S'O'
tp2424
a(S'okra'
g44
g35
tp2425
a(S'dish'
g34
g35
tp2426
a(S','
S','
S'O'
tp2427
a(S'and'
g29
S'O'
tp2428
a(S'he'
g1602
S'O'
tp2429
a(S'had'
g9
S'O'
tp2430
a(S'goat'
g34
g35
tp2431
a(S'curry'
g34
g35
tp2432
a(S'('
S'('
S'O'
tp2433
a(S"i'm"
g44
S'O'
tp2434
a(S'not'
g734
S'O'
tp2435
a(S'too'
g736
S'O'
tp2436
a(S'mad'
g44
S'O'
tp2437
a(S'on'
g117
S'O'
tp2438
a(S'goat'
g34
g35
tp2439
a(S'myself'
g109
S'O'
tp2440
a(S')'
S')'
S'O'
tp2441
a(S'.'
S'.'
S'O'
tp2442
aa(lp2443
(S'Pad'
g347
g35
tp2444
a(S'Thai'
g347
g35
tp2445
a(S'is'
g111
S'O'
tp2446
a(S'always'
g115
S'O'
tp2447
a(S'fresh'
g44
S'O'
tp2448
a(S','
S','
S'O'
tp2449
a(S'tasty'
g44
S'O'
tp2450
a(S','
S','
S'O'
tp2451
a(S'and'
g29
S'O'
tp2452
a(S'unpretentious'
g44
S'O'
tp2453
a(S'.'
S'.'
S'O'
tp2454
aa(lp2455
(S'Enter'
g347
S'O'
tp2456
a(S"Arinell's"
g347
S'O'
tp2457
a(S'as'
g52
S'O'
tp2458
a(S'close'
g3
S'O'
tp2459
a(S'to'
g21
S'O'
tp2460
a(S'NYC'
g347
S'O'
tp2461
a(S'thin'
g44
S'O'
tp2462
a(S'crust'
g34
S'O'
tp2463
a(S'as'
g52
S'O'
tp2464
a(S'you'
g506
S'O'
tp2465
a(S'can'
g466
S'O'
tp2466
a(S'get'
g23
S'O'
tp2467
a(S','
S','
S'O'
tp2468
a(S'I'
g7
S'O'
tp2469
a(S'have'
g103
S'O'
tp2470
a(S'only'
g3
S'O'
tp2471
a(S'had'
g9
S'O'
tp2472
a(S'there'
g904
S'O'
tp2473
a(S'cheese'
g44
g35
tp2474
a(S'as'
g52
S'O'
tp2475
a(S'I'
g7
S'O'
tp2476
a(S'am'
g1618
S'O'
tp2477
a(S'a'
g32
S'O'
tp2478
a(S'little'
g44
S'O'
tp2479
a(S'terrified'
g34
S'O'
tp2480
a(S'of'
g90
S'O'
tp2481
a(S'getting'
g129
S'O'
tp2482
a(S'a'
g32
S'O'
tp2483
a(S'pie'
g34
g35
tp2484
a(S'with'
g40
S'O'
tp2485
a(S'toppings'
g151
g35
tp2486
a(S'and'
g29
S'O'
tp2487
a(S'realizing'
g11
S'O'
tp2488
a(S'they'
g1025
S'O'
tp2489
a(S'messed'
g9
S'O'
tp2490
a(S'up'
g105
S'O'
tp2491
a(S'the'
g49
S'O'
tp2492
a(S'best'
g1012
S'O'
tp2493
a(S'representation'
g34
S'O'
tp2494
a(S'of'
g90
S'O'
tp2495
a(S'edible'
g44
S'O'
tp2496
a(S'pizza'
g34
g35
tp2497
a(S'this'
g144
S'O'
tp2498
a(S'city'
g1521
S'O'
tp2499
a(S'has'
g598
S'O'
tp2500
a(S'offered'
g38
S'O'
tp2501
a(S'me'
g97
S'O'
tp2502
a(S'since'
S'IN'
S'O'
tp2503
a(S'moving'
g11
S'O'
tp2504
a(S'.'
S'.'
S'O'
tp2505
aa(lp2506
(S'Three'
g546
S'O'
tp2507
a(S'words'
S'NNS'
S'O'
tp2508
a(S'garlic'
g44
g35
tp2509
a(S'rosemary'
g44
g35
tp2510
a(S'turkey'
g34
g35
tp2511
a(S'.'
S'.'
S'O'
tp2512
aa.